                                      1 ;--------------------------------------------------------
                                      2 ; File Created by SDCC : free open source ANSI-C Compiler
                                      3 ; Version 4.1.6 #12539 (Linux)
                                      4 ;--------------------------------------------------------
                                      5 	.module geometry_boy
                                      6 	.optsdcc -mgbz80
                                      7 	
                                      8 ;--------------------------------------------------------
                                      9 ; Public variables in this module
                                     10 ;--------------------------------------------------------
                                     11 	.globl _main
                                     12 	.globl _level_select
                                     13 	.globl _player_select
                                     14 	.globl _title
                                     15 	.globl _game
                                     16 	.globl _initialize_player
                                     17 	.globl _render_player
                                     18 	.globl _tick_player
                                     19 	.globl _collide
                                     20 	.globl _init_background
                                     21 	.globl _scroll_bkg_x
                                     22 	.globl _vbl_interrupt_title
                                     23 	.globl _vbl_interrupt_game
                                     24 	.globl _lcd_interrupt_game
                                     25 	.globl _update_HUD_bar
                                     26 	.globl _gbt_update
                                     27 	.globl _gbt_loop
                                     28 	.globl _gbt_play
                                     29 	.globl _set_sprite_data
                                     30 	.globl _set_win_tile_xy
                                     31 	.globl _get_bkg_tile_xy
                                     32 	.globl _set_bkg_tile_xy
                                     33 	.globl _set_bkg_tiles
                                     34 	.globl _set_bkg_data
                                     35 	.globl _wait_vbl_done
                                     36 	.globl _set_interrupts
                                     37 	.globl _joypad
                                     38 	.globl _delay
                                     39 	.globl _add_LCD
                                     40 	.globl _add_VBL
                                     41 	.globl _remove_LCD
                                     42 	.globl _remove_VBL
                                     43 	.globl _cursor_title_position_old
                                     44 	.globl _cursor_title_position
                                     45 	.globl _title_loaded
                                     46 	.globl _saved
                                     47 	.globl _old_px_progress_bar
                                     48 	.globl _px_progress_bar
                                     49 	.globl _current_attempts
                                     50 	.globl _level_banks
                                     51 	.globl _level_widths
                                     52 	.globl _level_maps
                                     53 	.globl _level_ind
                                     54 	.globl _parallax_tile_ind
                                     55 	.globl _old_scroll_x
                                     56 	.globl _old_background_x_shift
                                     57 	.globl _background_x_shift
                                     58 	.globl _tick
                                     59 	.globl _jpad
                                     60 	.globl _prev_jpad
                                     61 	.globl _lose
                                     62 	.globl _win
                                     63 	.globl _on_ground
                                     64 	.globl _player_sprite_num
                                     65 	.globl _player_x
                                     66 	.globl _player_y
                                     67 	.globl _player_dx
                                     68 	.globl _player_dy
                                     69 	.globl _px_progress
                                     70 	.globl _attempts
                                     71 	.globl _vbl_count
                                     72 	.globl _saved_bank
                                     73 	.globl _count
                                     74 	.globl _render_col
                                     75 	.globl _render_row
                                     76 	.globl _scx_cnt
                                     77 	.globl _back_text
                                     78 	.globl _attempts_text
                                     79 	.globl _progress_text
                                     80 	.globl _level_text
                                     81 	.globl _player_text
                                     82 	.globl _start_text
                                     83 	.globl _game_title
                                     84 	.globl _attempts_title
                                     85 	.globl _progress_bar_tiles
                                     86 	.globl _aero_cursors
                                     87 	.globl _aero
                                     88 	.globl _gb_tileset_v2
                                     89 	.globl _players
                                     90 ;--------------------------------------------------------
                                     91 ; special function registers
                                     92 ;--------------------------------------------------------
                                     93 ;--------------------------------------------------------
                                     94 ; ram data
                                     95 ;--------------------------------------------------------
                                     96 	.area _DATA
      000000                         97 _scx_cnt::
      000000                         98 	.ds 1
      000001                         99 _render_row::
      000001                        100 	.ds 1
      000002                        101 _render_col::
      000002                        102 	.ds 1
      000003                        103 _count::
      000003                        104 	.ds 2
      000005                        105 _saved_bank::
      000005                        106 	.ds 1
      000006                        107 _vbl_count::
      000006                        108 	.ds 1
      000007                        109 _attempts::
      000007                        110 	.ds 4
      00000B                        111 _px_progress::
      00000B                        112 	.ds 4
                                    113 ;--------------------------------------------------------
                                    114 ; ram data
                                    115 ;--------------------------------------------------------
                                    116 	.area _INITIALIZED
      000000                        117 _player_dy::
      000000                        118 	.ds 1
      000001                        119 _player_dx::
      000001                        120 	.ds 1
      000002                        121 _player_y::
      000002                        122 	.ds 1
      000003                        123 _player_x::
      000003                        124 	.ds 1
      000004                        125 _player_sprite_num::
      000004                        126 	.ds 1
      000005                        127 _on_ground::
      000005                        128 	.ds 1
      000006                        129 _win::
      000006                        130 	.ds 1
      000007                        131 _lose::
      000007                        132 	.ds 1
      000008                        133 _prev_jpad::
      000008                        134 	.ds 1
      000009                        135 _jpad::
      000009                        136 	.ds 1
      00000A                        137 _tick::
      00000A                        138 	.ds 1
      00000B                        139 _background_x_shift::
      00000B                        140 	.ds 2
      00000D                        141 _old_background_x_shift::
      00000D                        142 	.ds 2
      00000F                        143 _old_scroll_x::
      00000F                        144 	.ds 2
      000011                        145 _parallax_tile_ind::
      000011                        146 	.ds 1
      000012                        147 _level_ind::
      000012                        148 	.ds 1
      000013                        149 _level_maps::
      000013                        150 	.ds 4
      000017                        151 _level_widths::
      000017                        152 	.ds 4
      00001B                        153 _level_banks::
      00001B                        154 	.ds 2
      00001D                        155 _current_attempts::
      00001D                        156 	.ds 2
      00001F                        157 _px_progress_bar::
      00001F                        158 	.ds 2
      000021                        159 _old_px_progress_bar::
      000021                        160 	.ds 2
      000023                        161 _saved::
      000023                        162 	.ds 2
      000025                        163 _title_loaded::
      000025                        164 	.ds 1
      000026                        165 _cursor_title_position::
      000026                        166 	.ds 1
      000027                        167 _cursor_title_position_old::
      000027                        168 	.ds 1
                                    169 ;--------------------------------------------------------
                                    170 ; absolute external ram data
                                    171 ;--------------------------------------------------------
                                    172 	.area _DABS (ABS)
                                    173 ;--------------------------------------------------------
                                    174 ; global & static initialisations
                                    175 ;--------------------------------------------------------
                                    176 	.area _HOME
                                    177 	.area _GSINIT
                                    178 	.area _GSFINAL
                                    179 	.area _GSINIT
                                    180 ;--------------------------------------------------------
                                    181 ; Home
                                    182 ;--------------------------------------------------------
                                    183 	.area _HOME
                                    184 	.area _HOME
                                    185 ;--------------------------------------------------------
                                    186 ; code
                                    187 ;--------------------------------------------------------
                                    188 	.area _CODE
                                    189 ;geometry_boy.c:239: void update_HUD_bar()
                                    190 ;	---------------------------------
                                    191 ; Function update_HUD_bar
                                    192 ; ---------------------------------
      000000                        193 _update_HUD_bar::
                                    194 ;geometry_boy.c:241: px_progress_bar = NUM_PROGRESS_BAR_TILES * (background_x_shift + player_x) / (level_widths[level_ind] - LEVEL_END_OFFSET); 
      000000 21r03r00               195 	ld	hl, #_player_x
      000003 4E                     196 	ld	c, (hl)
      000004 06 00                  197 	ld	b, #0x00
      000006 21r0Br00               198 	ld	hl, #_background_x_shift
      000009 6E                     199 	ld	l, (hl)
                                    200 ;	spillPairReg hl
                                    201 ;	spillPairReg hl
      00000A FAr0Cr00               202 	ld	a, (_background_x_shift + 1)
      00000D 67                     203 	ld	h, a
                                    204 ;	spillPairReg hl
                                    205 ;	spillPairReg hl
      00000E 09                     206 	add	hl, bc
      00000F 4D                     207 	ld	c, l
      000010 44                     208 	ld	b, h
      000011 29                     209 	add	hl, hl
      000012 29                     210 	add	hl, hl
      000013 29                     211 	add	hl, hl
      000014 09                     212 	add	hl, bc
      000015 29                     213 	add	hl, hl
      000016 4D                     214 	ld	c, l
      000017 44                     215 	ld	b, h
      000018 11r17r00               216 	ld	de, #_level_widths+0
      00001B 21r12r00               217 	ld	hl, #_level_ind
      00001E 6E                     218 	ld	l, (hl)
                                    219 ;	spillPairReg hl
                                    220 ;	spillPairReg hl
      00001F 26 00                  221 	ld	h, #0x00
                                    222 ;	spillPairReg hl
                                    223 ;	spillPairReg hl
      000021 29                     224 	add	hl, hl
      000022 19                     225 	add	hl, de
      000023 2A                     226 	ld	a, (hl+)
      000024 6E                     227 	ld	l, (hl)
                                    228 ;	spillPairReg hl
      000025 C6 EC                  229 	add	a, #0xec
      000027 5F                     230 	ld	e, a
      000028 7D                     231 	ld	a, l
      000029 CE FF                  232 	adc	a, #0xff
      00002B 57                     233 	ld	d, a
      00002C D5                     234 	push	de
      00002D C5                     235 	push	bc
      00002E CDr00r00               236 	call	__divuint
      000031 E8 04                  237 	add	sp, #4
      000033 21r1Fr00               238 	ld	hl, #_px_progress_bar
      000036 7B                     239 	ld	a, e
      000037 22                     240 	ld	(hl+), a
      000038 72                     241 	ld	(hl), d
                                    242 ;geometry_boy.c:242: render_col = 0;
      000039 21r02r00               243 	ld	hl, #_render_col
      00003C 36 00                  244 	ld	(hl), #0x00
                                    245 ;geometry_boy.c:245: old_px_progress_bar = px_progress_bar;
      00003E 21r1Fr00               246 	ld	hl, #_px_progress_bar
      000041 2A                     247 	ld	a, (hl+)
      000042 4F                     248 	ld	c, a
      000043 46                     249 	ld	b, (hl)
                                    250 ;geometry_boy.c:243: if (px_progress_bar >= old_px_progress_bar)
      000044 11r1Fr00               251 	ld	de, #_px_progress_bar
      000047 21r21r00               252 	ld	hl, #_old_px_progress_bar
      00004A 1A                     253 	ld	a, (de)
      00004B 13                     254 	inc	de
      00004C 96                     255 	sub	a, (hl)
      00004D 23                     256 	inc	hl
      00004E 1A                     257 	ld	a, (de)
      00004F 9E                     258 	sbc	a, (hl)
      000050 38 3B                  259 	jr	C, 00108$
                                    260 ;geometry_boy.c:245: old_px_progress_bar = px_progress_bar;
      000052 21r21r00               261 	ld	hl, #_old_px_progress_bar
      000055 79                     262 	ld	a, c
      000056 22                     263 	ld	(hl+), a
      000057 70                     264 	ld	(hl), b
                                    265 ;geometry_boy.c:246: while (px_progress_bar > 8)
      000058                        266 00101$:
      000058 21r1Fr00               267 	ld	hl, #_px_progress_bar
      00005B 2A                     268 	ld	a, (hl+)
      00005C 4F                     269 	ld	c, a
      00005D 46                     270 	ld	b, (hl)
      00005E 3E 08                  271 	ld	a, #0x08
      000060 B9                     272 	cp	a, c
      000061 3E 00                  273 	ld	a, #0x00
      000063 98                     274 	sbc	a, b
      000064 30 13                  275 	jr	NC, 00103$
                                    276 ;geometry_boy.c:248: render_col++;
      000066 21r02r00               277 	ld	hl, #_render_col
      000069 34                     278 	inc	(hl)
                                    279 ;geometry_boy.c:249: px_progress_bar -= 8;
      00006A 79                     280 	ld	a, c
      00006B C6 F8                  281 	add	a, #0xf8
      00006D 4F                     282 	ld	c, a
      00006E 78                     283 	ld	a, b
      00006F CE FF                  284 	adc	a, #0xff
      000071 21r1Fr00               285 	ld	hl, #_px_progress_bar
      000074 71                     286 	ld	(hl), c
      000075 23                     287 	inc	hl
      000076 77                     288 	ld	(hl), a
      000077 18 DF                  289 	jr	00101$
      000079                        290 00103$:
                                    291 ;geometry_boy.c:251: set_win_tile_xy(render_col, 1, PROGRESS_BAR_TILES + px_progress_bar);
      000079 FAr1Fr00               292 	ld	a, (#_px_progress_bar)
      00007C C6 33                  293 	add	a, #0x33
      00007E 67                     294 	ld	h, a
      00007F 2E 01                  295 	ld	l, #0x01
      000081 E5                     296 	push	hl
      000082 FAr02r00               297 	ld	a, (#_render_col)
      000085 F5                     298 	push	af
      000086 33                     299 	inc	sp
      000087 CDr00r00               300 	call	_set_win_tile_xy
      00008A E8 03                  301 	add	sp, #3
      00008C C9                     302 	ret
      00008D                        303 00108$:
                                    304 ;geometry_boy.c:255: old_px_progress_bar = px_progress_bar;
      00008D 21r21r00               305 	ld	hl, #_old_px_progress_bar
      000090 79                     306 	ld	a, c
      000091 22                     307 	ld	(hl+), a
      000092 70                     308 	ld	(hl), b
                                    309 ;geometry_boy.c:256: while (render_col < NUM_PROGRESS_BAR_TILES)
      000093                        310 00104$:
      000093 21r02r00               311 	ld	hl, #_render_col
      000096 7E                     312 	ld	a, (hl)
      000097 D6 12                  313 	sub	a, #0x12
      000099 D0                     314 	ret	NC
                                    315 ;geometry_boy.c:258: set_win_tile_xy(render_col, 1, PROGRESS_BAR_TILES);
      00009A 11 01 33               316 	ld	de, #0x3301
      00009D D5                     317 	push	de
      00009E 7E                     318 	ld	a, (hl)
      00009F F5                     319 	push	af
      0000A0 33                     320 	inc	sp
      0000A1 CDr00r00               321 	call	_set_win_tile_xy
      0000A4 E8 03                  322 	add	sp, #3
                                    323 ;geometry_boy.c:259: render_col++;
      0000A6 21r02r00               324 	ld	hl, #_render_col
      0000A9 34                     325 	inc	(hl)
                                    326 ;geometry_boy.c:262: }
      0000AA 18 E7                  327 	jr	00104$
      0000AC                        328 _players:
      0000AC FF                     329 	.db #0xff	; 255
      0000AD FF                     330 	.db #0xff	; 255
      0000AE 81                     331 	.db #0x81	; 129
      0000AF 81                     332 	.db #0x81	; 129
      0000B0 81                     333 	.db #0x81	; 129
      0000B1 81                     334 	.db #0x81	; 129
      0000B2 81                     335 	.db #0x81	; 129
      0000B3 99                     336 	.db #0x99	; 153
      0000B4 81                     337 	.db #0x81	; 129
      0000B5 99                     338 	.db #0x99	; 153
      0000B6 81                     339 	.db #0x81	; 129
      0000B7 81                     340 	.db #0x81	; 129
      0000B8 81                     341 	.db #0x81	; 129
      0000B9 81                     342 	.db #0x81	; 129
      0000BA FF                     343 	.db #0xff	; 255
      0000BB FF                     344 	.db #0xff	; 255
      0000BC FF                     345 	.db #0xff	; 255
      0000BD FF                     346 	.db #0xff	; 255
      0000BE 81                     347 	.db #0x81	; 129
      0000BF FF                     348 	.db #0xff	; 255
      0000C0 81                     349 	.db #0x81	; 129
      0000C1 DB                     350 	.db #0xdb	; 219
      0000C2 81                     351 	.db #0x81	; 129
      0000C3 FF                     352 	.db #0xff	; 255
      0000C4 81                     353 	.db #0x81	; 129
      0000C5 FF                     354 	.db #0xff	; 255
      0000C6 81                     355 	.db #0x81	; 129
      0000C7 C3                     356 	.db #0xc3	; 195
      0000C8 81                     357 	.db #0x81	; 129
      0000C9 FF                     358 	.db #0xff	; 255
      0000CA FF                     359 	.db #0xff	; 255
      0000CB FF                     360 	.db #0xff	; 255
      0000CC F7                     361 	.db #0xf7	; 247
      0000CD F0                     362 	.db #0xf0	; 240
      0000CE F7                     363 	.db #0xf7	; 247
      0000CF F0                     364 	.db #0xf0	; 240
      0000D0 C7                     365 	.db #0xc7	; 199
      0000D1 C0                     366 	.db #0xc0	; 192
      0000D2 DF                     367 	.db #0xdf	; 223
      0000D3 C0                     368 	.db #0xc0	; 192
      0000D4 DF                     369 	.db #0xdf	; 223
      0000D5 C0                     370 	.db #0xc0	; 192
      0000D6 C7                     371 	.db #0xc7	; 199
      0000D7 C0                     372 	.db #0xc0	; 192
      0000D8 F7                     373 	.db #0xf7	; 247
      0000D9 F0                     374 	.db #0xf0	; 240
      0000DA F7                     375 	.db #0xf7	; 247
      0000DB F0                     376 	.db #0xf0	; 240
      0000DC 7E                     377 	.db #0x7e	; 126
      0000DD 7E                     378 	.db #0x7e	; 126
      0000DE C3                     379 	.db #0xc3	; 195
      0000DF 81                     380 	.db #0x81	; 129
      0000E0 DB                     381 	.db #0xdb	; 219
      0000E1 81                     382 	.db #0x81	; 129
      0000E2 F3                     383 	.db #0xf3	; 243
      0000E3 81                     384 	.db #0x81	; 129
      0000E4 E7                     385 	.db #0xe7	; 231
      0000E5 81                     386 	.db #0x81	; 129
      0000E6 FF                     387 	.db #0xff	; 255
      0000E7 81                     388 	.db #0x81	; 129
      0000E8 E7                     389 	.db #0xe7	; 231
      0000E9 81                     390 	.db #0x81	; 129
      0000EA 7E                     391 	.db #0x7e	; 126
      0000EB 7E                     392 	.db #0x7e	; 126
      0000EC C3                     393 	.db #0xc3	; 195
      0000ED DB                     394 	.db #0xdb	; 219
      0000EE 81                     395 	.db #0x81	; 129
      0000EF 81                     396 	.db #0x81	; 129
      0000F0 00                     397 	.db #0x00	; 0
      0000F1 00                     398 	.db #0x00	; 0
      0000F2 00                     399 	.db #0x00	; 0
      0000F3 99                     400 	.db #0x99	; 153
      0000F4 00                     401 	.db #0x00	; 0
      0000F5 99                     402 	.db #0x99	; 153
      0000F6 00                     403 	.db #0x00	; 0
      0000F7 00                     404 	.db #0x00	; 0
      0000F8 81                     405 	.db #0x81	; 129
      0000F9 81                     406 	.db #0x81	; 129
      0000FA C3                     407 	.db #0xc3	; 195
      0000FB DB                     408 	.db #0xdb	; 219
      0000FC E7                     409 	.db #0xe7	; 231
      0000FD 07                     410 	.db #0x07	; 7
      0000FE E7                     411 	.db #0xe7	; 231
      0000FF 07                     412 	.db #0x07	; 7
      000100 E7                     413 	.db #0xe7	; 231
      000101 07                     414 	.db #0x07	; 7
      000102 18                     415 	.db #0x18	; 24
      000103 18                     416 	.db #0x18	; 24
      000104 18                     417 	.db #0x18	; 24
      000105 18                     418 	.db #0x18	; 24
      000106 E7                     419 	.db #0xe7	; 231
      000107 E0                     420 	.db #0xe0	; 224
      000108 E7                     421 	.db #0xe7	; 231
      000109 E0                     422 	.db #0xe0	; 224
      00010A E7                     423 	.db #0xe7	; 231
      00010B E0                     424 	.db #0xe0	; 224
      00010C A7                     425 	.db #0xa7	; 167
      00010D C7                     426 	.db #0xc7	; 199
      00010E A0                     427 	.db #0xa0	; 160
      00010F C7                     428 	.db #0xc7	; 199
      000110 A7                     429 	.db #0xa7	; 167
      000111 C0                     430 	.db #0xc0	; 192
      000112 00                     431 	.db #0x00	; 0
      000113 00                     432 	.db #0x00	; 0
      000114 00                     433 	.db #0x00	; 0
      000115 00                     434 	.db #0x00	; 0
      000116 E5                     435 	.db #0xe5	; 229
      000117 03                     436 	.db #0x03	; 3
      000118 05                     437 	.db #0x05	; 5
      000119 E3                     438 	.db #0xe3	; 227
      00011A E5                     439 	.db #0xe5	; 229
      00011B E3                     440 	.db #0xe3	; 227
      00011C FF                     441 	.db #0xff	; 255
      00011D 00                     442 	.db #0x00	; 0
      00011E FF                     443 	.db #0xff	; 255
      00011F 00                     444 	.db #0x00	; 0
      000120 FF                     445 	.db #0xff	; 255
      000121 66                     446 	.db #0x66	; 102	'f'
      000122 FF                     447 	.db #0xff	; 255
      000123 66                     448 	.db #0x66	; 102	'f'
      000124 FF                     449 	.db #0xff	; 255
      000125 18                     450 	.db #0x18	; 24
      000126 FF                     451 	.db #0xff	; 255
      000127 3C                     452 	.db #0x3c	; 60
      000128 FF                     453 	.db #0xff	; 255
      000129 3C                     454 	.db #0x3c	; 60
      00012A FF                     455 	.db #0xff	; 255
      00012B 24                     456 	.db #0x24	; 36
      00012C 00                     457 	.db #0x00	; 0
      00012D FF                     458 	.db #0xff	; 255
      00012E 00                     459 	.db #0x00	; 0
      00012F FF                     460 	.db #0xff	; 255
      000130 00                     461 	.db #0x00	; 0
      000131 FF                     462 	.db #0xff	; 255
      000132 00                     463 	.db #0x00	; 0
      000133 FF                     464 	.db #0xff	; 255
      000134 00                     465 	.db #0x00	; 0
      000135 99                     466 	.db #0x99	; 153
      000136 18                     467 	.db #0x18	; 24
      000137 E7                     468 	.db #0xe7	; 231
      000138 00                     469 	.db #0x00	; 0
      000139 81                     470 	.db #0x81	; 129
      00013A 00                     471 	.db #0x00	; 0
      00013B FF                     472 	.db #0xff	; 255
      00013C FF                     473 	.db #0xff	; 255
      00013D FF                     474 	.db #0xff	; 255
      00013E FF                     475 	.db #0xff	; 255
      00013F FF                     476 	.db #0xff	; 255
      000140 FF                     477 	.db #0xff	; 255
      000141 FF                     478 	.db #0xff	; 255
      000142 FF                     479 	.db #0xff	; 255
      000143 FF                     480 	.db #0xff	; 255
      000144 FF                     481 	.db #0xff	; 255
      000145 FF                     482 	.db #0xff	; 255
      000146 BD                     483 	.db #0xbd	; 189
      000147 18                     484 	.db #0x18	; 24
      000148 FF                     485 	.db #0xff	; 255
      000149 FF                     486 	.db #0xff	; 255
      00014A FF                     487 	.db #0xff	; 255
      00014B FF                     488 	.db #0xff	; 255
      00014C FF                     489 	.db #0xff	; 255
      00014D FF                     490 	.db #0xff	; 255
      00014E FF                     491 	.db #0xff	; 255
      00014F 91                     492 	.db #0x91	; 145
      000150 FF                     493 	.db #0xff	; 255
      000151 FF                     494 	.db #0xff	; 255
      000152 FF                     495 	.db #0xff	; 255
      000153 A5                     496 	.db #0xa5	; 165
      000154 FF                     497 	.db #0xff	; 255
      000155 A5                     498 	.db #0xa5	; 165
      000156 FF                     499 	.db #0xff	; 255
      000157 FF                     500 	.db #0xff	; 255
      000158 FF                     501 	.db #0xff	; 255
      000159 89                     502 	.db #0x89	; 137
      00015A FF                     503 	.db #0xff	; 255
      00015B FF                     504 	.db #0xff	; 255
      00015C 7E                     505 	.db #0x7e	; 126
      00015D 7E                     506 	.db #0x7e	; 126
      00015E FF                     507 	.db #0xff	; 255
      00015F 81                     508 	.db #0x81	; 129
      000160 FF                     509 	.db #0xff	; 255
      000161 A5                     510 	.db #0xa5	; 165
      000162 FF                     511 	.db #0xff	; 255
      000163 81                     512 	.db #0x81	; 129
      000164 FF                     513 	.db #0xff	; 255
      000165 81                     514 	.db #0x81	; 129
      000166 FF                     515 	.db #0xff	; 255
      000167 A5                     516 	.db #0xa5	; 165
      000168 FF                     517 	.db #0xff	; 255
      000169 81                     518 	.db #0x81	; 129
      00016A 7E                     519 	.db #0x7e	; 126
      00016B 7E                     520 	.db #0x7e	; 126
      00016C FF                     521 	.db #0xff	; 255
      00016D 81                     522 	.db #0x81	; 129
      00016E FE                     523 	.db #0xfe	; 254
      00016F 43                     524 	.db #0x43	; 67	'C'
      000170 FC                     525 	.db #0xfc	; 252
      000171 27                     526 	.db #0x27	; 39
      000172 F8                     527 	.db #0xf8	; 248
      000173 1F                     528 	.db #0x1f	; 31
      000174 F8                     529 	.db #0xf8	; 248
      000175 1F                     530 	.db #0x1f	; 31
      000176 E4                     531 	.db #0xe4	; 228
      000177 3F                     532 	.db #0x3f	; 63
      000178 C2                     533 	.db #0xc2	; 194
      000179 7F                     534 	.db #0x7f	; 127
      00017A 81                     535 	.db #0x81	; 129
      00017B FF                     536 	.db #0xff	; 255
      00017C 04                     537 	.db #0x04	; 4
      00017D 64                     538 	.db #0x64	; 100	'd'
      00017E 06                     539 	.db #0x06	; 6
      00017F A6                     540 	.db #0xa6	; 166
      000180 0F                     541 	.db #0x0f	; 15
      000181 2F                     542 	.db #0x2f	; 47
      000182 06                     543 	.db #0x06	; 6
      000183 20                     544 	.db #0x20	; 32
      000184 06                     545 	.db #0x06	; 6
      000185 20                     546 	.db #0x20	; 32
      000186 3E                     547 	.db #0x3e	; 62
      000187 1E                     548 	.db #0x1e	; 30
      000188 06                     549 	.db #0x06	; 6
      000189 16                     550 	.db #0x16	; 22
      00018A 06                     551 	.db #0x06	; 6
      00018B 16                     552 	.db #0x16	; 22
      00018C 3C                     553 	.db #0x3c	; 60
      00018D 3C                     554 	.db #0x3c	; 60
      00018E 7E                     555 	.db #0x7e	; 126
      00018F 7E                     556 	.db #0x7e	; 126
      000190 DB                     557 	.db #0xdb	; 219
      000191 DB                     558 	.db #0xdb	; 219
      000192 DB                     559 	.db #0xdb	; 219
      000193 DB                     560 	.db #0xdb	; 219
      000194 FF                     561 	.db #0xff	; 255
      000195 FF                     562 	.db #0xff	; 255
      000196 00                     563 	.db #0x00	; 0
      000197 3C                     564 	.db #0x3c	; 60
      000198 42                     565 	.db #0x42	; 66	'B'
      000199 7E                     566 	.db #0x7e	; 126
      00019A 66                     567 	.db #0x66	; 102	'f'
      00019B 66                     568 	.db #0x66	; 102	'f'
      00019C 7E                     569 	.db #0x7e	; 126
      00019D 7E                     570 	.db #0x7e	; 126
      00019E 7E                     571 	.db #0x7e	; 126
      00019F 7E                     572 	.db #0x7e	; 126
      0001A0 60                     573 	.db #0x60	; 96
      0001A1 60                     574 	.db #0x60	; 96
      0001A2 7E                     575 	.db #0x7e	; 126
      0001A3 7E                     576 	.db #0x7e	; 126
      0001A4 7E                     577 	.db #0x7e	; 126
      0001A5 7E                     578 	.db #0x7e	; 126
      0001A6 60                     579 	.db #0x60	; 96
      0001A7 60                     580 	.db #0x60	; 96
      0001A8 7E                     581 	.db #0x7e	; 126
      0001A9 7E                     582 	.db #0x7e	; 126
      0001AA 7E                     583 	.db #0x7e	; 126
      0001AB 7E                     584 	.db #0x7e	; 126
      0001AC 00                     585 	.db #0x00	; 0
      0001AD 00                     586 	.db #0x00	; 0
      0001AE 00                     587 	.db #0x00	; 0
      0001AF 00                     588 	.db #0x00	; 0
      0001B0 00                     589 	.db #0x00	; 0
      0001B1 00                     590 	.db #0x00	; 0
      0001B2 00                     591 	.db #0x00	; 0
      0001B3 00                     592 	.db #0x00	; 0
      0001B4 00                     593 	.db #0x00	; 0
      0001B5 00                     594 	.db #0x00	; 0
      0001B6 00                     595 	.db #0x00	; 0
      0001B7 00                     596 	.db #0x00	; 0
      0001B8 00                     597 	.db #0x00	; 0
      0001B9 00                     598 	.db #0x00	; 0
      0001BA 00                     599 	.db #0x00	; 0
      0001BB 00                     600 	.db #0x00	; 0
      0001BC                        601 _gb_tileset_v2:
      0001BC 00                     602 	.db #0x00	; 0
      0001BD 00                     603 	.db #0x00	; 0
      0001BE 00                     604 	.db #0x00	; 0
      0001BF 00                     605 	.db #0x00	; 0
      0001C0 00                     606 	.db #0x00	; 0
      0001C1 00                     607 	.db #0x00	; 0
      0001C2 00                     608 	.db #0x00	; 0
      0001C3 00                     609 	.db #0x00	; 0
      0001C4 00                     610 	.db #0x00	; 0
      0001C5 00                     611 	.db #0x00	; 0
      0001C6 00                     612 	.db #0x00	; 0
      0001C7 00                     613 	.db #0x00	; 0
      0001C8 00                     614 	.db #0x00	; 0
      0001C9 00                     615 	.db #0x00	; 0
      0001CA 00                     616 	.db #0x00	; 0
      0001CB 00                     617 	.db #0x00	; 0
      0001CC FF                     618 	.db #0xff	; 255
      0001CD 00                     619 	.db #0x00	; 0
      0001CE FF                     620 	.db #0xff	; 255
      0001CF 00                     621 	.db #0x00	; 0
      0001D0 FF                     622 	.db #0xff	; 255
      0001D1 00                     623 	.db #0x00	; 0
      0001D2 FF                     624 	.db #0xff	; 255
      0001D3 00                     625 	.db #0x00	; 0
      0001D4 FF                     626 	.db #0xff	; 255
      0001D5 00                     627 	.db #0x00	; 0
      0001D6 FF                     628 	.db #0xff	; 255
      0001D7 00                     629 	.db #0x00	; 0
      0001D8 FF                     630 	.db #0xff	; 255
      0001D9 00                     631 	.db #0x00	; 0
      0001DA FF                     632 	.db #0xff	; 255
      0001DB 00                     633 	.db #0x00	; 0
      0001DC 00                     634 	.db #0x00	; 0
      0001DD FF                     635 	.db #0xff	; 255
      0001DE 00                     636 	.db #0x00	; 0
      0001DF FF                     637 	.db #0xff	; 255
      0001E0 00                     638 	.db #0x00	; 0
      0001E1 FF                     639 	.db #0xff	; 255
      0001E2 00                     640 	.db #0x00	; 0
      0001E3 FF                     641 	.db #0xff	; 255
      0001E4 00                     642 	.db #0x00	; 0
      0001E5 FF                     643 	.db #0xff	; 255
      0001E6 00                     644 	.db #0x00	; 0
      0001E7 FF                     645 	.db #0xff	; 255
      0001E8 00                     646 	.db #0x00	; 0
      0001E9 FF                     647 	.db #0xff	; 255
      0001EA 00                     648 	.db #0x00	; 0
      0001EB FF                     649 	.db #0xff	; 255
      0001EC FF                     650 	.db #0xff	; 255
      0001ED FF                     651 	.db #0xff	; 255
      0001EE FF                     652 	.db #0xff	; 255
      0001EF FF                     653 	.db #0xff	; 255
      0001F0 FF                     654 	.db #0xff	; 255
      0001F1 FF                     655 	.db #0xff	; 255
      0001F2 FF                     656 	.db #0xff	; 255
      0001F3 FF                     657 	.db #0xff	; 255
      0001F4 FF                     658 	.db #0xff	; 255
      0001F5 FF                     659 	.db #0xff	; 255
      0001F6 FF                     660 	.db #0xff	; 255
      0001F7 FF                     661 	.db #0xff	; 255
      0001F8 FF                     662 	.db #0xff	; 255
      0001F9 FF                     663 	.db #0xff	; 255
      0001FA FF                     664 	.db #0xff	; 255
      0001FB FF                     665 	.db #0xff	; 255
      0001FC 18                     666 	.db #0x18	; 24
      0001FD 18                     667 	.db #0x18	; 24
      0001FE 18                     668 	.db #0x18	; 24
      0001FF 18                     669 	.db #0x18	; 24
      000200 3C                     670 	.db #0x3c	; 60
      000201 3C                     671 	.db #0x3c	; 60
      000202 3C                     672 	.db #0x3c	; 60
      000203 3C                     673 	.db #0x3c	; 60
      000204 7E                     674 	.db #0x7e	; 126
      000205 7E                     675 	.db #0x7e	; 126
      000206 7E                     676 	.db #0x7e	; 126
      000207 7E                     677 	.db #0x7e	; 126
      000208 FF                     678 	.db #0xff	; 255
      000209 FF                     679 	.db #0xff	; 255
      00020A FF                     680 	.db #0xff	; 255
      00020B FF                     681 	.db #0xff	; 255
      00020C 00                     682 	.db #0x00	; 0
      00020D 00                     683 	.db #0x00	; 0
      00020E 00                     684 	.db #0x00	; 0
      00020F 00                     685 	.db #0x00	; 0
      000210 00                     686 	.db #0x00	; 0
      000211 00                     687 	.db #0x00	; 0
      000212 00                     688 	.db #0x00	; 0
      000213 00                     689 	.db #0x00	; 0
      000214 18                     690 	.db #0x18	; 24
      000215 18                     691 	.db #0x18	; 24
      000216 3C                     692 	.db #0x3c	; 60
      000217 3C                     693 	.db #0x3c	; 60
      000218 7E                     694 	.db #0x7e	; 126
      000219 7E                     695 	.db #0x7e	; 126
      00021A FF                     696 	.db #0xff	; 255
      00021B FF                     697 	.db #0xff	; 255
      00021C 00                     698 	.db #0x00	; 0
      00021D 00                     699 	.db #0x00	; 0
      00021E 00                     700 	.db #0x00	; 0
      00021F 00                     701 	.db #0x00	; 0
      000220 18                     702 	.db #0x18	; 24
      000221 00                     703 	.db #0x00	; 0
      000222 24                     704 	.db #0x24	; 36
      000223 18                     705 	.db #0x18	; 24
      000224 24                     706 	.db #0x24	; 36
      000225 18                     707 	.db #0x18	; 24
      000226 18                     708 	.db #0x18	; 24
      000227 00                     709 	.db #0x00	; 0
      000228 00                     710 	.db #0x00	; 0
      000229 00                     711 	.db #0x00	; 0
      00022A 00                     712 	.db #0x00	; 0
      00022B 00                     713 	.db #0x00	; 0
      00022C 00                     714 	.db #0x00	; 0
      00022D 00                     715 	.db #0x00	; 0
      00022E 00                     716 	.db #0x00	; 0
      00022F 00                     717 	.db #0x00	; 0
      000230 00                     718 	.db #0x00	; 0
      000231 00                     719 	.db #0x00	; 0
      000232 00                     720 	.db #0x00	; 0
      000233 00                     721 	.db #0x00	; 0
      000234 00                     722 	.db #0x00	; 0
      000235 00                     723 	.db #0x00	; 0
      000236 00                     724 	.db #0x00	; 0
      000237 00                     725 	.db #0x00	; 0
      000238 7E                     726 	.db #0x7e	; 126
      000239 00                     727 	.db #0x00	; 0
      00023A 00                     728 	.db #0x00	; 0
      00023B FF                     729 	.db #0xff	; 255
      00023C 00                     730 	.db #0x00	; 0
      00023D 00                     731 	.db #0x00	; 0
      00023E 00                     732 	.db #0x00	; 0
      00023F 00                     733 	.db #0x00	; 0
      000240 00                     734 	.db #0x00	; 0
      000241 00                     735 	.db #0x00	; 0
      000242 00                     736 	.db #0x00	; 0
      000243 00                     737 	.db #0x00	; 0
      000244 FF                     738 	.db #0xff	; 255
      000245 FF                     739 	.db #0xff	; 255
      000246 FF                     740 	.db #0xff	; 255
      000247 FF                     741 	.db #0xff	; 255
      000248 FF                     742 	.db #0xff	; 255
      000249 FF                     743 	.db #0xff	; 255
      00024A FF                     744 	.db #0xff	; 255
      00024B FF                     745 	.db #0xff	; 255
      00024C 0F                     746 	.db #0x0f	; 15
      00024D F0                     747 	.db #0xf0	; 240
      00024E 0F                     748 	.db #0x0f	; 15
      00024F F0                     749 	.db #0xf0	; 240
      000250 0F                     750 	.db #0x0f	; 15
      000251 F0                     751 	.db #0xf0	; 240
      000252 0F                     752 	.db #0x0f	; 15
      000253 F0                     753 	.db #0xf0	; 240
      000254 F0                     754 	.db #0xf0	; 240
      000255 0F                     755 	.db #0x0f	; 15
      000256 F0                     756 	.db #0xf0	; 240
      000257 0F                     757 	.db #0x0f	; 15
      000258 F0                     758 	.db #0xf0	; 240
      000259 0F                     759 	.db #0x0f	; 15
      00025A F0                     760 	.db #0xf0	; 240
      00025B 0F                     761 	.db #0x0f	; 15
      00025C FF                     762 	.db #0xff	; 255
      00025D FF                     763 	.db #0xff	; 255
      00025E FF                     764 	.db #0xff	; 255
      00025F FF                     765 	.db #0xff	; 255
      000260 7E                     766 	.db #0x7e	; 126
      000261 7E                     767 	.db #0x7e	; 126
      000262 7E                     768 	.db #0x7e	; 126
      000263 7E                     769 	.db #0x7e	; 126
      000264 3C                     770 	.db #0x3c	; 60
      000265 3C                     771 	.db #0x3c	; 60
      000266 3C                     772 	.db #0x3c	; 60
      000267 3C                     773 	.db #0x3c	; 60
      000268 18                     774 	.db #0x18	; 24
      000269 18                     775 	.db #0x18	; 24
      00026A 18                     776 	.db #0x18	; 24
      00026B 18                     777 	.db #0x18	; 24
      00026C 3C                     778 	.db #0x3c	; 60
      00026D 00                     779 	.db #0x00	; 0
      00026E 3C                     780 	.db #0x3c	; 60
      00026F 00                     781 	.db #0x00	; 0
      000270 00                     782 	.db #0x00	; 0
      000271 7E                     783 	.db #0x7e	; 126
      000272 00                     784 	.db #0x00	; 0
      000273 FF                     785 	.db #0xff	; 255
      000274 00                     786 	.db #0x00	; 0
      000275 FF                     787 	.db #0xff	; 255
      000276 00                     788 	.db #0x00	; 0
      000277 7E                     789 	.db #0x7e	; 126
      000278 3C                     790 	.db #0x3c	; 60
      000279 00                     791 	.db #0x00	; 0
      00027A 3C                     792 	.db #0x3c	; 60
      00027B 00                     793 	.db #0x00	; 0
      00027C 03                     794 	.db #0x03	; 3
      00027D 03                     795 	.db #0x03	; 3
      00027E 0F                     796 	.db #0x0f	; 15
      00027F 0F                     797 	.db #0x0f	; 15
      000280 3F                     798 	.db #0x3f	; 63
      000281 3F                     799 	.db #0x3f	; 63
      000282 FF                     800 	.db #0xff	; 255
      000283 FF                     801 	.db #0xff	; 255
      000284 FF                     802 	.db #0xff	; 255
      000285 FF                     803 	.db #0xff	; 255
      000286 3F                     804 	.db #0x3f	; 63
      000287 3F                     805 	.db #0x3f	; 63
      000288 0F                     806 	.db #0x0f	; 15
      000289 0F                     807 	.db #0x0f	; 15
      00028A 03                     808 	.db #0x03	; 3
      00028B 03                     809 	.db #0x03	; 3
      00028C                        810 _aero:
      00028C FF                     811 	.db #0xff	; 255
      00028D FF                     812 	.db #0xff	; 255
      00028E FF                     813 	.db #0xff	; 255
      00028F FF                     814 	.db #0xff	; 255
      000290 FF                     815 	.db #0xff	; 255
      000291 F3                     816 	.db #0xf3	; 243
      000292 FF                     817 	.db #0xff	; 255
      000293 F1                     818 	.db #0xf1	; 241
      000294 FF                     819 	.db #0xff	; 255
      000295 F7                     820 	.db #0xf7	; 247
      000296 FF                     821 	.db #0xff	; 255
      000297 F7                     822 	.db #0xf7	; 247
      000298 FF                     823 	.db #0xff	; 255
      000299 C7                     824 	.db #0xc7	; 199
      00029A FF                     825 	.db #0xff	; 255
      00029B C7                     826 	.db #0xc7	; 199
      00029C FF                     827 	.db #0xff	; 255
      00029D FF                     828 	.db #0xff	; 255
      00029E FF                     829 	.db #0xff	; 255
      00029F FF                     830 	.db #0xff	; 255
      0002A0 FF                     831 	.db #0xff	; 255
      0002A1 F7                     832 	.db #0xf7	; 247
      0002A2 FF                     833 	.db #0xff	; 255
      0002A3 F3                     834 	.db #0xf3	; 243
      0002A4 FF                     835 	.db #0xff	; 255
      0002A5 F1                     836 	.db #0xf1	; 241
      0002A6 FF                     837 	.db #0xff	; 255
      0002A7 F3                     838 	.db #0xf3	; 243
      0002A8 FF                     839 	.db #0xff	; 255
      0002A9 F7                     840 	.db #0xf7	; 247
      0002AA FF                     841 	.db #0xff	; 255
      0002AB FF                     842 	.db #0xff	; 255
      0002AC FF                     843 	.db #0xff	; 255
      0002AD FF                     844 	.db #0xff	; 255
      0002AE FF                     845 	.db #0xff	; 255
      0002AF FF                     846 	.db #0xff	; 255
      0002B0 FF                     847 	.db #0xff	; 255
      0002B1 FF                     848 	.db #0xff	; 255
      0002B2 FF                     849 	.db #0xff	; 255
      0002B3 FF                     850 	.db #0xff	; 255
      0002B4 FF                     851 	.db #0xff	; 255
      0002B5 FF                     852 	.db #0xff	; 255
      0002B6 FF                     853 	.db #0xff	; 255
      0002B7 FF                     854 	.db #0xff	; 255
      0002B8 FF                     855 	.db #0xff	; 255
      0002B9 FF                     856 	.db #0xff	; 255
      0002BA FF                     857 	.db #0xff	; 255
      0002BB FF                     858 	.db #0xff	; 255
      0002BC FF                     859 	.db #0xff	; 255
      0002BD FF                     860 	.db #0xff	; 255
      0002BE FF                     861 	.db #0xff	; 255
      0002BF C1                     862 	.db #0xc1	; 193
      0002C0 FF                     863 	.db #0xff	; 255
      0002C1 80                     864 	.db #0x80	; 128
      0002C2 FF                     865 	.db #0xff	; 255
      0002C3 9C                     866 	.db #0x9c	; 156
      0002C4 FF                     867 	.db #0xff	; 255
      0002C5 9C                     868 	.db #0x9c	; 156
      0002C6 FF                     869 	.db #0xff	; 255
      0002C7 9C                     870 	.db #0x9c	; 156
      0002C8 FF                     871 	.db #0xff	; 255
      0002C9 80                     872 	.db #0x80	; 128
      0002CA FF                     873 	.db #0xff	; 255
      0002CB C1                     874 	.db #0xc1	; 193
      0002CC FF                     875 	.db #0xff	; 255
      0002CD FF                     876 	.db #0xff	; 255
      0002CE FF                     877 	.db #0xff	; 255
      0002CF E3                     878 	.db #0xe3	; 227
      0002D0 FF                     879 	.db #0xff	; 255
      0002D1 83                     880 	.db #0x83	; 131
      0002D2 FF                     881 	.db #0xff	; 255
      0002D3 83                     882 	.db #0x83	; 131
      0002D4 FF                     883 	.db #0xff	; 255
      0002D5 E3                     884 	.db #0xe3	; 227
      0002D6 FF                     885 	.db #0xff	; 255
      0002D7 E3                     886 	.db #0xe3	; 227
      0002D8 FF                     887 	.db #0xff	; 255
      0002D9 E3                     888 	.db #0xe3	; 227
      0002DA FF                     889 	.db #0xff	; 255
      0002DB E3                     890 	.db #0xe3	; 227
      0002DC FF                     891 	.db #0xff	; 255
      0002DD FF                     892 	.db #0xff	; 255
      0002DE FF                     893 	.db #0xff	; 255
      0002DF 81                     894 	.db #0x81	; 129
      0002E0 FF                     895 	.db #0xff	; 255
      0002E1 80                     896 	.db #0x80	; 128
      0002E2 FF                     897 	.db #0xff	; 255
      0002E3 FC                     898 	.db #0xfc	; 252
      0002E4 FF                     899 	.db #0xff	; 255
      0002E5 C0                     900 	.db #0xc0	; 192
      0002E6 FF                     901 	.db #0xff	; 255
      0002E7 8F                     902 	.db #0x8f	; 143
      0002E8 FF                     903 	.db #0xff	; 255
      0002E9 80                     904 	.db #0x80	; 128
      0002EA FF                     905 	.db #0xff	; 255
      0002EB 80                     906 	.db #0x80	; 128
      0002EC FF                     907 	.db #0xff	; 255
      0002ED FF                     908 	.db #0xff	; 255
      0002EE FF                     909 	.db #0xff	; 255
      0002EF 81                     910 	.db #0x81	; 129
      0002F0 FF                     911 	.db #0xff	; 255
      0002F1 80                     912 	.db #0x80	; 128
      0002F2 FF                     913 	.db #0xff	; 255
      0002F3 F8                     914 	.db #0xf8	; 248
      0002F4 FF                     915 	.db #0xff	; 255
      0002F5 C1                     916 	.db #0xc1	; 193
      0002F6 FF                     917 	.db #0xff	; 255
      0002F7 F8                     918 	.db #0xf8	; 248
      0002F8 FF                     919 	.db #0xff	; 255
      0002F9 80                     920 	.db #0x80	; 128
      0002FA FF                     921 	.db #0xff	; 255
      0002FB 81                     922 	.db #0x81	; 129
      0002FC FF                     923 	.db #0xff	; 255
      0002FD FF                     924 	.db #0xff	; 255
      0002FE FF                     925 	.db #0xff	; 255
      0002FF F1                     926 	.db #0xf1	; 241
      000300 FF                     927 	.db #0xff	; 255
      000301 E1                     928 	.db #0xe1	; 225
      000302 FF                     929 	.db #0xff	; 255
      000303 C9                     930 	.db #0xc9	; 201
      000304 FF                     931 	.db #0xff	; 255
      000305 99                     932 	.db #0x99	; 153
      000306 FF                     933 	.db #0xff	; 255
      000307 80                     934 	.db #0x80	; 128
      000308 FF                     935 	.db #0xff	; 255
      000309 80                     936 	.db #0x80	; 128
      00030A FF                     937 	.db #0xff	; 255
      00030B F1                     938 	.db #0xf1	; 241
      00030C FF                     939 	.db #0xff	; 255
      00030D FF                     940 	.db #0xff	; 255
      00030E FF                     941 	.db #0xff	; 255
      00030F 80                     942 	.db #0x80	; 128
      000310 FF                     943 	.db #0xff	; 255
      000311 80                     944 	.db #0x80	; 128
      000312 FF                     945 	.db #0xff	; 255
      000313 8F                     946 	.db #0x8f	; 143
      000314 FF                     947 	.db #0xff	; 255
      000315 81                     948 	.db #0x81	; 129
      000316 FF                     949 	.db #0xff	; 255
      000317 F8                     950 	.db #0xf8	; 248
      000318 FF                     951 	.db #0xff	; 255
      000319 80                     952 	.db #0x80	; 128
      00031A FF                     953 	.db #0xff	; 255
      00031B 81                     954 	.db #0x81	; 129
      00031C FF                     955 	.db #0xff	; 255
      00031D FF                     956 	.db #0xff	; 255
      00031E FF                     957 	.db #0xff	; 255
      00031F E0                     958 	.db #0xe0	; 224
      000320 FF                     959 	.db #0xff	; 255
      000321 C0                     960 	.db #0xc0	; 192
      000322 FF                     961 	.db #0xff	; 255
      000323 8F                     962 	.db #0x8f	; 143
      000324 FF                     963 	.db #0xff	; 255
      000325 81                     964 	.db #0x81	; 129
      000326 FF                     965 	.db #0xff	; 255
      000327 9C                     966 	.db #0x9c	; 156
      000328 FF                     967 	.db #0xff	; 255
      000329 80                     968 	.db #0x80	; 128
      00032A FF                     969 	.db #0xff	; 255
      00032B C1                     970 	.db #0xc1	; 193
      00032C FF                     971 	.db #0xff	; 255
      00032D FF                     972 	.db #0xff	; 255
      00032E FF                     973 	.db #0xff	; 255
      00032F 80                     974 	.db #0x80	; 128
      000330 FF                     975 	.db #0xff	; 255
      000331 80                     976 	.db #0x80	; 128
      000332 FF                     977 	.db #0xff	; 255
      000333 F8                     978 	.db #0xf8	; 248
      000334 FF                     979 	.db #0xff	; 255
      000335 F1                     980 	.db #0xf1	; 241
      000336 FF                     981 	.db #0xff	; 255
      000337 E3                     982 	.db #0xe3	; 227
      000338 FF                     983 	.db #0xff	; 255
      000339 E3                     984 	.db #0xe3	; 227
      00033A FF                     985 	.db #0xff	; 255
      00033B E3                     986 	.db #0xe3	; 227
      00033C FF                     987 	.db #0xff	; 255
      00033D FF                     988 	.db #0xff	; 255
      00033E FF                     989 	.db #0xff	; 255
      00033F C1                     990 	.db #0xc1	; 193
      000340 FF                     991 	.db #0xff	; 255
      000341 80                     992 	.db #0x80	; 128
      000342 FF                     993 	.db #0xff	; 255
      000343 9C                     994 	.db #0x9c	; 156
      000344 FF                     995 	.db #0xff	; 255
      000345 C1                     996 	.db #0xc1	; 193
      000346 FF                     997 	.db #0xff	; 255
      000347 9C                     998 	.db #0x9c	; 156
      000348 FF                     999 	.db #0xff	; 255
      000349 80                    1000 	.db #0x80	; 128
      00034A FF                    1001 	.db #0xff	; 255
      00034B C1                    1002 	.db #0xc1	; 193
      00034C FF                    1003 	.db #0xff	; 255
      00034D FF                    1004 	.db #0xff	; 255
      00034E FF                    1005 	.db #0xff	; 255
      00034F C1                    1006 	.db #0xc1	; 193
      000350 FF                    1007 	.db #0xff	; 255
      000351 80                    1008 	.db #0x80	; 128
      000352 FF                    1009 	.db #0xff	; 255
      000353 9C                    1010 	.db #0x9c	; 156
      000354 FF                    1011 	.db #0xff	; 255
      000355 C0                    1012 	.db #0xc0	; 192
      000356 FF                    1013 	.db #0xff	; 255
      000357 F8                    1014 	.db #0xf8	; 248
      000358 FF                    1015 	.db #0xff	; 255
      000359 C0                    1016 	.db #0xc0	; 192
      00035A FF                    1017 	.db #0xff	; 255
      00035B C1                    1018 	.db #0xc1	; 193
      00035C FF                    1019 	.db #0xff	; 255
      00035D FF                    1020 	.db #0xff	; 255
      00035E FF                    1021 	.db #0xff	; 255
      00035F E1                    1022 	.db #0xe1	; 225
      000360 FF                    1023 	.db #0xff	; 255
      000361 C0                    1024 	.db #0xc0	; 192
      000362 FF                    1025 	.db #0xff	; 255
      000363 9C                    1026 	.db #0x9c	; 156
      000364 FF                    1027 	.db #0xff	; 255
      000365 80                    1028 	.db #0x80	; 128
      000366 FF                    1029 	.db #0xff	; 255
      000367 80                    1030 	.db #0x80	; 128
      000368 FF                    1031 	.db #0xff	; 255
      000369 9C                    1032 	.db #0x9c	; 156
      00036A FF                    1033 	.db #0xff	; 255
      00036B 9C                    1034 	.db #0x9c	; 156
      00036C FF                    1035 	.db #0xff	; 255
      00036D FF                    1036 	.db #0xff	; 255
      00036E FF                    1037 	.db #0xff	; 255
      00036F 81                    1038 	.db #0x81	; 129
      000370 FF                    1039 	.db #0xff	; 255
      000371 80                    1040 	.db #0x80	; 128
      000372 FF                    1041 	.db #0xff	; 255
      000373 9C                    1042 	.db #0x9c	; 156
      000374 FF                    1043 	.db #0xff	; 255
      000375 81                    1044 	.db #0x81	; 129
      000376 FF                    1045 	.db #0xff	; 255
      000377 9C                    1046 	.db #0x9c	; 156
      000378 FF                    1047 	.db #0xff	; 255
      000379 80                    1048 	.db #0x80	; 128
      00037A FF                    1049 	.db #0xff	; 255
      00037B 81                    1050 	.db #0x81	; 129
      00037C FF                    1051 	.db #0xff	; 255
      00037D FF                    1052 	.db #0xff	; 255
      00037E FF                    1053 	.db #0xff	; 255
      00037F E0                    1054 	.db #0xe0	; 224
      000380 FF                    1055 	.db #0xff	; 255
      000381 C0                    1056 	.db #0xc0	; 192
      000382 FF                    1057 	.db #0xff	; 255
      000383 9F                    1058 	.db #0x9f	; 159
      000384 FF                    1059 	.db #0xff	; 255
      000385 9F                    1060 	.db #0x9f	; 159
      000386 FF                    1061 	.db #0xff	; 255
      000387 9F                    1062 	.db #0x9f	; 159
      000388 FF                    1063 	.db #0xff	; 255
      000389 80                    1064 	.db #0x80	; 128
      00038A FF                    1065 	.db #0xff	; 255
      00038B C0                    1066 	.db #0xc0	; 192
      00038C FF                    1067 	.db #0xff	; 255
      00038D FF                    1068 	.db #0xff	; 255
      00038E FF                    1069 	.db #0xff	; 255
      00038F 83                    1070 	.db #0x83	; 131
      000390 FF                    1071 	.db #0xff	; 255
      000391 81                    1072 	.db #0x81	; 129
      000392 FF                    1073 	.db #0xff	; 255
      000393 9C                    1074 	.db #0x9c	; 156
      000394 FF                    1075 	.db #0xff	; 255
      000395 9C                    1076 	.db #0x9c	; 156
      000396 FF                    1077 	.db #0xff	; 255
      000397 9C                    1078 	.db #0x9c	; 156
      000398 FF                    1079 	.db #0xff	; 255
      000399 80                    1080 	.db #0x80	; 128
      00039A FF                    1081 	.db #0xff	; 255
      00039B 81                    1082 	.db #0x81	; 129
      00039C FF                    1083 	.db #0xff	; 255
      00039D FF                    1084 	.db #0xff	; 255
      00039E FF                    1085 	.db #0xff	; 255
      00039F C0                    1086 	.db #0xc0	; 192
      0003A0 FF                    1087 	.db #0xff	; 255
      0003A1 80                    1088 	.db #0x80	; 128
      0003A2 FF                    1089 	.db #0xff	; 255
      0003A3 9F                    1090 	.db #0x9f	; 159
      0003A4 FF                    1091 	.db #0xff	; 255
      0003A5 81                    1092 	.db #0x81	; 129
      0003A6 FF                    1093 	.db #0xff	; 255
      0003A7 9F                    1094 	.db #0x9f	; 159
      0003A8 FF                    1095 	.db #0xff	; 255
      0003A9 80                    1096 	.db #0x80	; 128
      0003AA FF                    1097 	.db #0xff	; 255
      0003AB C0                    1098 	.db #0xc0	; 192
      0003AC FF                    1099 	.db #0xff	; 255
      0003AD FF                    1100 	.db #0xff	; 255
      0003AE FF                    1101 	.db #0xff	; 255
      0003AF C0                    1102 	.db #0xc0	; 192
      0003B0 FF                    1103 	.db #0xff	; 255
      0003B1 80                    1104 	.db #0x80	; 128
      0003B2 FF                    1105 	.db #0xff	; 255
      0003B3 9F                    1106 	.db #0x9f	; 159
      0003B4 FF                    1107 	.db #0xff	; 255
      0003B5 81                    1108 	.db #0x81	; 129
      0003B6 FF                    1109 	.db #0xff	; 255
      0003B7 81                    1110 	.db #0x81	; 129
      0003B8 FF                    1111 	.db #0xff	; 255
      0003B9 9F                    1112 	.db #0x9f	; 159
      0003BA FF                    1113 	.db #0xff	; 255
      0003BB 9F                    1114 	.db #0x9f	; 159
      0003BC FF                    1115 	.db #0xff	; 255
      0003BD FF                    1116 	.db #0xff	; 255
      0003BE FF                    1117 	.db #0xff	; 255
      0003BF C0                    1118 	.db #0xc0	; 192
      0003C0 FF                    1119 	.db #0xff	; 255
      0003C1 80                    1120 	.db #0x80	; 128
      0003C2 FF                    1121 	.db #0xff	; 255
      0003C3 9F                    1122 	.db #0x9f	; 159
      0003C4 FF                    1123 	.db #0xff	; 255
      0003C5 90                    1124 	.db #0x90	; 144
      0003C6 FF                    1125 	.db #0xff	; 255
      0003C7 9C                    1126 	.db #0x9c	; 156
      0003C8 FF                    1127 	.db #0xff	; 255
      0003C9 80                    1128 	.db #0x80	; 128
      0003CA FF                    1129 	.db #0xff	; 255
      0003CB C0                    1130 	.db #0xc0	; 192
      0003CC FF                    1131 	.db #0xff	; 255
      0003CD FF                    1132 	.db #0xff	; 255
      0003CE FF                    1133 	.db #0xff	; 255
      0003CF 9C                    1134 	.db #0x9c	; 156
      0003D0 FF                    1135 	.db #0xff	; 255
      0003D1 9C                    1136 	.db #0x9c	; 156
      0003D2 FF                    1137 	.db #0xff	; 255
      0003D3 80                    1138 	.db #0x80	; 128
      0003D4 FF                    1139 	.db #0xff	; 255
      0003D5 80                    1140 	.db #0x80	; 128
      0003D6 FF                    1141 	.db #0xff	; 255
      0003D7 9C                    1142 	.db #0x9c	; 156
      0003D8 FF                    1143 	.db #0xff	; 255
      0003D9 9C                    1144 	.db #0x9c	; 156
      0003DA FF                    1145 	.db #0xff	; 255
      0003DB 9C                    1146 	.db #0x9c	; 156
      0003DC FF                    1147 	.db #0xff	; 255
      0003DD FF                    1148 	.db #0xff	; 255
      0003DE FF                    1149 	.db #0xff	; 255
      0003DF E3                    1150 	.db #0xe3	; 227
      0003E0 FF                    1151 	.db #0xff	; 255
      0003E1 E3                    1152 	.db #0xe3	; 227
      0003E2 FF                    1153 	.db #0xff	; 255
      0003E3 E3                    1154 	.db #0xe3	; 227
      0003E4 FF                    1155 	.db #0xff	; 255
      0003E5 E3                    1156 	.db #0xe3	; 227
      0003E6 FF                    1157 	.db #0xff	; 255
      0003E7 E3                    1158 	.db #0xe3	; 227
      0003E8 FF                    1159 	.db #0xff	; 255
      0003E9 E3                    1160 	.db #0xe3	; 227
      0003EA FF                    1161 	.db #0xff	; 255
      0003EB E3                    1162 	.db #0xe3	; 227
      0003EC FF                    1163 	.db #0xff	; 255
      0003ED FF                    1164 	.db #0xff	; 255
      0003EE FF                    1165 	.db #0xff	; 255
      0003EF FC                    1166 	.db #0xfc	; 252
      0003F0 FF                    1167 	.db #0xff	; 255
      0003F1 FC                    1168 	.db #0xfc	; 252
      0003F2 FF                    1169 	.db #0xff	; 255
      0003F3 FC                    1170 	.db #0xfc	; 252
      0003F4 FF                    1171 	.db #0xff	; 255
      0003F5 9C                    1172 	.db #0x9c	; 156
      0003F6 FF                    1173 	.db #0xff	; 255
      0003F7 9C                    1174 	.db #0x9c	; 156
      0003F8 FF                    1175 	.db #0xff	; 255
      0003F9 80                    1176 	.db #0x80	; 128
      0003FA FF                    1177 	.db #0xff	; 255
      0003FB C1                    1178 	.db #0xc1	; 193
      0003FC FF                    1179 	.db #0xff	; 255
      0003FD FF                    1180 	.db #0xff	; 255
      0003FE FF                    1181 	.db #0xff	; 255
      0003FF 9C                    1182 	.db #0x9c	; 156
      000400 FF                    1183 	.db #0xff	; 255
      000401 98                    1184 	.db #0x98	; 152
      000402 FF                    1185 	.db #0xff	; 255
      000403 91                    1186 	.db #0x91	; 145
      000404 FF                    1187 	.db #0xff	; 255
      000405 83                    1188 	.db #0x83	; 131
      000406 FF                    1189 	.db #0xff	; 255
      000407 91                    1190 	.db #0x91	; 145
      000408 FF                    1191 	.db #0xff	; 255
      000409 98                    1192 	.db #0x98	; 152
      00040A FF                    1193 	.db #0xff	; 255
      00040B 9C                    1194 	.db #0x9c	; 156
      00040C FF                    1195 	.db #0xff	; 255
      00040D FF                    1196 	.db #0xff	; 255
      00040E FF                    1197 	.db #0xff	; 255
      00040F 9F                    1198 	.db #0x9f	; 159
      000410 FF                    1199 	.db #0xff	; 255
      000411 9F                    1200 	.db #0x9f	; 159
      000412 FF                    1201 	.db #0xff	; 255
      000413 9F                    1202 	.db #0x9f	; 159
      000414 FF                    1203 	.db #0xff	; 255
      000415 9F                    1204 	.db #0x9f	; 159
      000416 FF                    1205 	.db #0xff	; 255
      000417 9F                    1206 	.db #0x9f	; 159
      000418 FF                    1207 	.db #0xff	; 255
      000419 80                    1208 	.db #0x80	; 128
      00041A FF                    1209 	.db #0xff	; 255
      00041B 80                    1210 	.db #0x80	; 128
      00041C FF                    1211 	.db #0xff	; 255
      00041D FF                    1212 	.db #0xff	; 255
      00041E FF                    1213 	.db #0xff	; 255
      00041F 9C                    1214 	.db #0x9c	; 156
      000420 FF                    1215 	.db #0xff	; 255
      000421 88                    1216 	.db #0x88	; 136
      000422 FF                    1217 	.db #0xff	; 255
      000423 80                    1218 	.db #0x80	; 128
      000424 FF                    1219 	.db #0xff	; 255
      000425 80                    1220 	.db #0x80	; 128
      000426 FF                    1221 	.db #0xff	; 255
      000427 94                    1222 	.db #0x94	; 148
      000428 FF                    1223 	.db #0xff	; 255
      000429 9C                    1224 	.db #0x9c	; 156
      00042A FF                    1225 	.db #0xff	; 255
      00042B 9C                    1226 	.db #0x9c	; 156
      00042C FF                    1227 	.db #0xff	; 255
      00042D FF                    1228 	.db #0xff	; 255
      00042E FF                    1229 	.db #0xff	; 255
      00042F 8C                    1230 	.db #0x8c	; 140
      000430 FF                    1231 	.db #0xff	; 255
      000431 84                    1232 	.db #0x84	; 132
      000432 FF                    1233 	.db #0xff	; 255
      000433 80                    1234 	.db #0x80	; 128
      000434 FF                    1235 	.db #0xff	; 255
      000435 90                    1236 	.db #0x90	; 144
      000436 FF                    1237 	.db #0xff	; 255
      000437 98                    1238 	.db #0x98	; 152
      000438 FF                    1239 	.db #0xff	; 255
      000439 9C                    1240 	.db #0x9c	; 156
      00043A FF                    1241 	.db #0xff	; 255
      00043B 9C                    1242 	.db #0x9c	; 156
      00043C FF                    1243 	.db #0xff	; 255
      00043D FF                    1244 	.db #0xff	; 255
      00043E FF                    1245 	.db #0xff	; 255
      00043F C1                    1246 	.db #0xc1	; 193
      000440 FF                    1247 	.db #0xff	; 255
      000441 80                    1248 	.db #0x80	; 128
      000442 FF                    1249 	.db #0xff	; 255
      000443 9C                    1250 	.db #0x9c	; 156
      000444 FF                    1251 	.db #0xff	; 255
      000445 9C                    1252 	.db #0x9c	; 156
      000446 FF                    1253 	.db #0xff	; 255
      000447 9C                    1254 	.db #0x9c	; 156
      000448 FF                    1255 	.db #0xff	; 255
      000449 80                    1256 	.db #0x80	; 128
      00044A FF                    1257 	.db #0xff	; 255
      00044B C1                    1258 	.db #0xc1	; 193
      00044C FF                    1259 	.db #0xff	; 255
      00044D FF                    1260 	.db #0xff	; 255
      00044E FF                    1261 	.db #0xff	; 255
      00044F 81                    1262 	.db #0x81	; 129
      000450 FF                    1263 	.db #0xff	; 255
      000451 80                    1264 	.db #0x80	; 128
      000452 FF                    1265 	.db #0xff	; 255
      000453 9C                    1266 	.db #0x9c	; 156
      000454 FF                    1267 	.db #0xff	; 255
      000455 80                    1268 	.db #0x80	; 128
      000456 FF                    1269 	.db #0xff	; 255
      000457 81                    1270 	.db #0x81	; 129
      000458 FF                    1271 	.db #0xff	; 255
      000459 9F                    1272 	.db #0x9f	; 159
      00045A FF                    1273 	.db #0xff	; 255
      00045B 9F                    1274 	.db #0x9f	; 159
      00045C FF                    1275 	.db #0xff	; 255
      00045D FF                    1276 	.db #0xff	; 255
      00045E FF                    1277 	.db #0xff	; 255
      00045F C1                    1278 	.db #0xc1	; 193
      000460 FF                    1279 	.db #0xff	; 255
      000461 80                    1280 	.db #0x80	; 128
      000462 FF                    1281 	.db #0xff	; 255
      000463 9C                    1282 	.db #0x9c	; 156
      000464 FF                    1283 	.db #0xff	; 255
      000465 9C                    1284 	.db #0x9c	; 156
      000466 FF                    1285 	.db #0xff	; 255
      000467 81                    1286 	.db #0x81	; 129
      000468 FF                    1287 	.db #0xff	; 255
      000469 8C                    1288 	.db #0x8c	; 140
      00046A FF                    1289 	.db #0xff	; 255
      00046B C2                    1290 	.db #0xc2	; 194
      00046C FF                    1291 	.db #0xff	; 255
      00046D FF                    1292 	.db #0xff	; 255
      00046E FF                    1293 	.db #0xff	; 255
      00046F 81                    1294 	.db #0x81	; 129
      000470 FF                    1295 	.db #0xff	; 255
      000471 80                    1296 	.db #0x80	; 128
      000472 FF                    1297 	.db #0xff	; 255
      000473 9C                    1298 	.db #0x9c	; 156
      000474 FF                    1299 	.db #0xff	; 255
      000475 80                    1300 	.db #0x80	; 128
      000476 FF                    1301 	.db #0xff	; 255
      000477 81                    1302 	.db #0x81	; 129
      000478 FF                    1303 	.db #0xff	; 255
      000479 98                    1304 	.db #0x98	; 152
      00047A FF                    1305 	.db #0xff	; 255
      00047B 9C                    1306 	.db #0x9c	; 156
      00047C FF                    1307 	.db #0xff	; 255
      00047D FF                    1308 	.db #0xff	; 255
      00047E FF                    1309 	.db #0xff	; 255
      00047F C1                    1310 	.db #0xc1	; 193
      000480 FF                    1311 	.db #0xff	; 255
      000481 81                    1312 	.db #0x81	; 129
      000482 FF                    1313 	.db #0xff	; 255
      000483 8F                    1314 	.db #0x8f	; 143
      000484 FF                    1315 	.db #0xff	; 255
      000485 C1                    1316 	.db #0xc1	; 193
      000486 FF                    1317 	.db #0xff	; 255
      000487 F8                    1318 	.db #0xf8	; 248
      000488 FF                    1319 	.db #0xff	; 255
      000489 80                    1320 	.db #0x80	; 128
      00048A FF                    1321 	.db #0xff	; 255
      00048B 81                    1322 	.db #0x81	; 129
      00048C FF                    1323 	.db #0xff	; 255
      00048D FF                    1324 	.db #0xff	; 255
      00048E FF                    1325 	.db #0xff	; 255
      00048F 80                    1326 	.db #0x80	; 128
      000490 FF                    1327 	.db #0xff	; 255
      000491 80                    1328 	.db #0x80	; 128
      000492 FF                    1329 	.db #0xff	; 255
      000493 E3                    1330 	.db #0xe3	; 227
      000494 FF                    1331 	.db #0xff	; 255
      000495 E3                    1332 	.db #0xe3	; 227
      000496 FF                    1333 	.db #0xff	; 255
      000497 E3                    1334 	.db #0xe3	; 227
      000498 FF                    1335 	.db #0xff	; 255
      000499 E3                    1336 	.db #0xe3	; 227
      00049A FF                    1337 	.db #0xff	; 255
      00049B E3                    1338 	.db #0xe3	; 227
      00049C FF                    1339 	.db #0xff	; 255
      00049D FF                    1340 	.db #0xff	; 255
      00049E FF                    1341 	.db #0xff	; 255
      00049F 9C                    1342 	.db #0x9c	; 156
      0004A0 FF                    1343 	.db #0xff	; 255
      0004A1 9C                    1344 	.db #0x9c	; 156
      0004A2 FF                    1345 	.db #0xff	; 255
      0004A3 9C                    1346 	.db #0x9c	; 156
      0004A4 FF                    1347 	.db #0xff	; 255
      0004A5 9C                    1348 	.db #0x9c	; 156
      0004A6 FF                    1349 	.db #0xff	; 255
      0004A7 9C                    1350 	.db #0x9c	; 156
      0004A8 FF                    1351 	.db #0xff	; 255
      0004A9 80                    1352 	.db #0x80	; 128
      0004AA FF                    1353 	.db #0xff	; 255
      0004AB C1                    1354 	.db #0xc1	; 193
      0004AC FF                    1355 	.db #0xff	; 255
      0004AD FF                    1356 	.db #0xff	; 255
      0004AE FF                    1357 	.db #0xff	; 255
      0004AF 9C                    1358 	.db #0x9c	; 156
      0004B0 FF                    1359 	.db #0xff	; 255
      0004B1 9C                    1360 	.db #0x9c	; 156
      0004B2 FF                    1361 	.db #0xff	; 255
      0004B3 9C                    1362 	.db #0x9c	; 156
      0004B4 FF                    1363 	.db #0xff	; 255
      0004B5 88                    1364 	.db #0x88	; 136
      0004B6 FF                    1365 	.db #0xff	; 255
      0004B7 81                    1366 	.db #0x81	; 129
      0004B8 FF                    1367 	.db #0xff	; 255
      0004B9 C3                    1368 	.db #0xc3	; 195
      0004BA FF                    1369 	.db #0xff	; 255
      0004BB E7                    1370 	.db #0xe7	; 231
      0004BC FF                    1371 	.db #0xff	; 255
      0004BD FF                    1372 	.db #0xff	; 255
      0004BE FF                    1373 	.db #0xff	; 255
      0004BF 94                    1374 	.db #0x94	; 148
      0004C0 FF                    1375 	.db #0xff	; 255
      0004C1 94                    1376 	.db #0x94	; 148
      0004C2 FF                    1377 	.db #0xff	; 255
      0004C3 94                    1378 	.db #0x94	; 148
      0004C4 FF                    1379 	.db #0xff	; 255
      0004C5 94                    1380 	.db #0x94	; 148
      0004C6 FF                    1381 	.db #0xff	; 255
      0004C7 94                    1382 	.db #0x94	; 148
      0004C8 FF                    1383 	.db #0xff	; 255
      0004C9 80                    1384 	.db #0x80	; 128
      0004CA FF                    1385 	.db #0xff	; 255
      0004CB C0                    1386 	.db #0xc0	; 192
      0004CC FF                    1387 	.db #0xff	; 255
      0004CD FF                    1388 	.db #0xff	; 255
      0004CE FF                    1389 	.db #0xff	; 255
      0004CF 9C                    1390 	.db #0x9c	; 156
      0004D0 FF                    1391 	.db #0xff	; 255
      0004D1 88                    1392 	.db #0x88	; 136
      0004D2 FF                    1393 	.db #0xff	; 255
      0004D3 C1                    1394 	.db #0xc1	; 193
      0004D4 FF                    1395 	.db #0xff	; 255
      0004D5 E3                    1396 	.db #0xe3	; 227
      0004D6 FF                    1397 	.db #0xff	; 255
      0004D7 C1                    1398 	.db #0xc1	; 193
      0004D8 FF                    1399 	.db #0xff	; 255
      0004D9 88                    1400 	.db #0x88	; 136
      0004DA FF                    1401 	.db #0xff	; 255
      0004DB 9C                    1402 	.db #0x9c	; 156
      0004DC FF                    1403 	.db #0xff	; 255
      0004DD FF                    1404 	.db #0xff	; 255
      0004DE FF                    1405 	.db #0xff	; 255
      0004DF 9C                    1406 	.db #0x9c	; 156
      0004E0 FF                    1407 	.db #0xff	; 255
      0004E1 9C                    1408 	.db #0x9c	; 156
      0004E2 FF                    1409 	.db #0xff	; 255
      0004E3 88                    1410 	.db #0x88	; 136
      0004E4 FF                    1411 	.db #0xff	; 255
      0004E5 C1                    1412 	.db #0xc1	; 193
      0004E6 FF                    1413 	.db #0xff	; 255
      0004E7 E3                    1414 	.db #0xe3	; 227
      0004E8 FF                    1415 	.db #0xff	; 255
      0004E9 E3                    1416 	.db #0xe3	; 227
      0004EA FF                    1417 	.db #0xff	; 255
      0004EB E3                    1418 	.db #0xe3	; 227
      0004EC FF                    1419 	.db #0xff	; 255
      0004ED FF                    1420 	.db #0xff	; 255
      0004EE FF                    1421 	.db #0xff	; 255
      0004EF 80                    1422 	.db #0x80	; 128
      0004F0 FF                    1423 	.db #0xff	; 255
      0004F1 80                    1424 	.db #0x80	; 128
      0004F2 FF                    1425 	.db #0xff	; 255
      0004F3 F1                    1426 	.db #0xf1	; 241
      0004F4 FF                    1427 	.db #0xff	; 255
      0004F5 E3                    1428 	.db #0xe3	; 227
      0004F6 FF                    1429 	.db #0xff	; 255
      0004F7 C7                    1430 	.db #0xc7	; 199
      0004F8 FF                    1431 	.db #0xff	; 255
      0004F9 80                    1432 	.db #0x80	; 128
      0004FA FF                    1433 	.db #0xff	; 255
      0004FB 80                    1434 	.db #0x80	; 128
      0004FC FF                    1435 	.db #0xff	; 255
      0004FD FF                    1436 	.db #0xff	; 255
      0004FE FF                    1437 	.db #0xff	; 255
      0004FF FF                    1438 	.db #0xff	; 255
      000500 FF                    1439 	.db #0xff	; 255
      000501 FF                    1440 	.db #0xff	; 255
      000502 FF                    1441 	.db #0xff	; 255
      000503 FF                    1442 	.db #0xff	; 255
      000504 FF                    1443 	.db #0xff	; 255
      000505 83                    1444 	.db #0x83	; 131
      000506 FF                    1445 	.db #0xff	; 255
      000507 83                    1446 	.db #0x83	; 131
      000508 FF                    1447 	.db #0xff	; 255
      000509 FF                    1448 	.db #0xff	; 255
      00050A FF                    1449 	.db #0xff	; 255
      00050B FF                    1450 	.db #0xff	; 255
      00050C FF                    1451 	.db #0xff	; 255
      00050D FF                    1452 	.db #0xff	; 255
      00050E FF                    1453 	.db #0xff	; 255
      00050F FF                    1454 	.db #0xff	; 255
      000510 FF                    1455 	.db #0xff	; 255
      000511 EB                    1456 	.db #0xeb	; 235
      000512 FF                    1457 	.db #0xff	; 255
      000513 E0                    1458 	.db #0xe0	; 224
      000514 FF                    1459 	.db #0xff	; 255
      000515 8B                    1460 	.db #0x8b	; 139
      000516 FF                    1461 	.db #0xff	; 255
      000517 E8                    1462 	.db #0xe8	; 232
      000518 FF                    1463 	.db #0xff	; 255
      000519 83                    1464 	.db #0x83	; 131
      00051A FF                    1465 	.db #0xff	; 255
      00051B EB                    1466 	.db #0xeb	; 235
      00051C FF                    1467 	.db #0xff	; 255
      00051D FF                    1468 	.db #0xff	; 255
      00051E FF                    1469 	.db #0xff	; 255
      00051F C1                    1470 	.db #0xc1	; 193
      000520 FF                    1471 	.db #0xff	; 255
      000521 9C                    1472 	.db #0x9c	; 156
      000522 FF                    1473 	.db #0xff	; 255
      000523 FC                    1474 	.db #0xfc	; 252
      000524 FF                    1475 	.db #0xff	; 255
      000525 F9                    1476 	.db #0xf9	; 249
      000526 FF                    1477 	.db #0xff	; 255
      000527 F3                    1478 	.db #0xf3	; 243
      000528 FF                    1479 	.db #0xff	; 255
      000529 FF                    1480 	.db #0xff	; 255
      00052A FF                    1481 	.db #0xff	; 255
      00052B F3                    1482 	.db #0xf3	; 243
      00052C FF                    1483 	.db #0xff	; 255
      00052D FF                    1484 	.db #0xff	; 255
      00052E FF                    1485 	.db #0xff	; 255
      00052F C7                    1486 	.db #0xc7	; 199
      000530 FF                    1487 	.db #0xff	; 255
      000531 C7                    1488 	.db #0xc7	; 199
      000532 FF                    1489 	.db #0xff	; 255
      000533 C7                    1490 	.db #0xc7	; 199
      000534 FF                    1491 	.db #0xff	; 255
      000535 CF                    1492 	.db #0xcf	; 207
      000536 FF                    1493 	.db #0xff	; 255
      000537 CF                    1494 	.db #0xcf	; 207
      000538 FF                    1495 	.db #0xff	; 255
      000539 FF                    1496 	.db #0xff	; 255
      00053A FF                    1497 	.db #0xff	; 255
      00053B CF                    1498 	.db #0xcf	; 207
      00053C FF                    1499 	.db #0xff	; 255
      00053D FF                    1500 	.db #0xff	; 255
      00053E FF                    1501 	.db #0xff	; 255
      00053F C1                    1502 	.db #0xc1	; 193
      000540 FF                    1503 	.db #0xff	; 255
      000541 BE                    1504 	.db #0xbe	; 190
      000542 FF                    1505 	.db #0xff	; 255
      000543 A2                    1506 	.db #0xa2	; 162
      000544 FF                    1507 	.db #0xff	; 255
      000545 AE                    1508 	.db #0xae	; 174
      000546 FF                    1509 	.db #0xff	; 255
      000547 A2                    1510 	.db #0xa2	; 162
      000548 FF                    1511 	.db #0xff	; 255
      000549 BE                    1512 	.db #0xbe	; 190
      00054A FF                    1513 	.db #0xff	; 255
      00054B C1                    1514 	.db #0xc1	; 193
      00054C FF                    1515 	.db #0xff	; 255
      00054D E3                    1516 	.db #0xe3	; 227
      00054E FF                    1517 	.db #0xff	; 255
      00054F E3                    1518 	.db #0xe3	; 227
      000550 FF                    1519 	.db #0xff	; 255
      000551 C1                    1520 	.db #0xc1	; 193
      000552 FF                    1521 	.db #0xff	; 255
      000553 C1                    1522 	.db #0xc1	; 193
      000554 FF                    1523 	.db #0xff	; 255
      000555 80                    1524 	.db #0x80	; 128
      000556 FF                    1525 	.db #0xff	; 255
      000557 80                    1526 	.db #0x80	; 128
      000558 FF                    1527 	.db #0xff	; 255
      000559 80                    1528 	.db #0x80	; 128
      00055A FF                    1529 	.db #0xff	; 255
      00055B F7                    1530 	.db #0xf7	; 247
      00055C FF                    1531 	.db #0xff	; 255
      00055D FF                    1532 	.db #0xff	; 255
      00055E FF                    1533 	.db #0xff	; 255
      00055F FF                    1534 	.db #0xff	; 255
      000560 FF                    1535 	.db #0xff	; 255
      000561 FF                    1536 	.db #0xff	; 255
      000562 FF                    1537 	.db #0xff	; 255
      000563 FF                    1538 	.db #0xff	; 255
      000564 FF                    1539 	.db #0xff	; 255
      000565 FF                    1540 	.db #0xff	; 255
      000566 FF                    1541 	.db #0xff	; 255
      000567 9F                    1542 	.db #0x9f	; 159
      000568 FF                    1543 	.db #0xff	; 255
      000569 9F                    1544 	.db #0x9f	; 159
      00056A FF                    1545 	.db #0xff	; 255
      00056B BF                    1546 	.db #0xbf	; 191
      00056C FF                    1547 	.db #0xff	; 255
      00056D FF                    1548 	.db #0xff	; 255
      00056E FF                    1549 	.db #0xff	; 255
      00056F FF                    1550 	.db #0xff	; 255
      000570 FF                    1551 	.db #0xff	; 255
      000571 FF                    1552 	.db #0xff	; 255
      000572 FF                    1553 	.db #0xff	; 255
      000573 FF                    1554 	.db #0xff	; 255
      000574 FF                    1555 	.db #0xff	; 255
      000575 FF                    1556 	.db #0xff	; 255
      000576 FF                    1557 	.db #0xff	; 255
      000577 9F                    1558 	.db #0x9f	; 159
      000578 FF                    1559 	.db #0xff	; 255
      000579 9F                    1560 	.db #0x9f	; 159
      00057A FF                    1561 	.db #0xff	; 255
      00057B FF                    1562 	.db #0xff	; 255
      00057C FF                    1563 	.db #0xff	; 255
      00057D FF                    1564 	.db #0xff	; 255
      00057E FF                    1565 	.db #0xff	; 255
      00057F FF                    1566 	.db #0xff	; 255
      000580 FF                    1567 	.db #0xff	; 255
      000581 E7                    1568 	.db #0xe7	; 231
      000582 FF                    1569 	.db #0xff	; 255
      000583 E7                    1570 	.db #0xe7	; 231
      000584 FF                    1571 	.db #0xff	; 255
      000585 FF                    1572 	.db #0xff	; 255
      000586 FF                    1573 	.db #0xff	; 255
      000587 E7                    1574 	.db #0xe7	; 231
      000588 FF                    1575 	.db #0xff	; 255
      000589 E7                    1576 	.db #0xe7	; 231
      00058A FF                    1577 	.db #0xff	; 255
      00058B FF                    1578 	.db #0xff	; 255
      00058C FF                    1579 	.db #0xff	; 255
      00058D FF                    1580 	.db #0xff	; 255
      00058E FF                    1581 	.db #0xff	; 255
      00058F FF                    1582 	.db #0xff	; 255
      000590 FF                    1583 	.db #0xff	; 255
      000591 FF                    1584 	.db #0xff	; 255
      000592 FF                    1585 	.db #0xff	; 255
      000593 C3                    1586 	.db #0xc3	; 195
      000594 FF                    1587 	.db #0xff	; 255
      000595 FF                    1588 	.db #0xff	; 255
      000596 FF                    1589 	.db #0xff	; 255
      000597 FF                    1590 	.db #0xff	; 255
      000598 FF                    1591 	.db #0xff	; 255
      000599 C3                    1592 	.db #0xc3	; 195
      00059A FF                    1593 	.db #0xff	; 255
      00059B FF                    1594 	.db #0xff	; 255
      00059C FF                    1595 	.db #0xff	; 255
      00059D FF                    1596 	.db #0xff	; 255
      00059E FF                    1597 	.db #0xff	; 255
      00059F 7E                    1598 	.db #0x7e	; 126
      0005A0 FF                    1599 	.db #0xff	; 255
      0005A1 BE                    1600 	.db #0xbe	; 190
      0005A2 FF                    1601 	.db #0xff	; 255
      0005A3 DE                    1602 	.db #0xde	; 222
      0005A4 FF                    1603 	.db #0xff	; 255
      0005A5 EE                    1604 	.db #0xee	; 238
      0005A6 FF                    1605 	.db #0xff	; 255
      0005A7 F6                    1606 	.db #0xf6	; 246
      0005A8 FF                    1607 	.db #0xff	; 255
      0005A9 FA                    1608 	.db #0xfa	; 250
      0005AA FF                    1609 	.db #0xff	; 255
      0005AB FC                    1610 	.db #0xfc	; 252
      0005AC FF                    1611 	.db #0xff	; 255
      0005AD FF                    1612 	.db #0xff	; 255
      0005AE FF                    1613 	.db #0xff	; 255
      0005AF FC                    1614 	.db #0xfc	; 252
      0005B0 FF                    1615 	.db #0xff	; 255
      0005B1 FA                    1616 	.db #0xfa	; 250
      0005B2 FF                    1617 	.db #0xff	; 255
      0005B3 F6                    1618 	.db #0xf6	; 246
      0005B4 FF                    1619 	.db #0xff	; 255
      0005B5 EE                    1620 	.db #0xee	; 238
      0005B6 FF                    1621 	.db #0xff	; 255
      0005B7 DE                    1622 	.db #0xde	; 222
      0005B8 FF                    1623 	.db #0xff	; 255
      0005B9 BE                    1624 	.db #0xbe	; 190
      0005BA FF                    1625 	.db #0xff	; 255
      0005BB 7E                    1626 	.db #0x7e	; 126
      0005BC FF                    1627 	.db #0xff	; 255
      0005BD FF                    1628 	.db #0xff	; 255
      0005BE FF                    1629 	.db #0xff	; 255
      0005BF 9F                    1630 	.db #0x9f	; 159
      0005C0 FF                    1631 	.db #0xff	; 255
      0005C1 9F                    1632 	.db #0x9f	; 159
      0005C2 FF                    1633 	.db #0xff	; 255
      0005C3 9F                    1634 	.db #0x9f	; 159
      0005C4 FF                    1635 	.db #0xff	; 255
      0005C5 9F                    1636 	.db #0x9f	; 159
      0005C6 FF                    1637 	.db #0xff	; 255
      0005C7 9F                    1638 	.db #0x9f	; 159
      0005C8 FF                    1639 	.db #0xff	; 255
      0005C9 80                    1640 	.db #0x80	; 128
      0005CA FF                    1641 	.db #0xff	; 255
      0005CB 80                    1642 	.db #0x80	; 128
      0005CC FF                    1643 	.db #0xff	; 255
      0005CD FF                    1644 	.db #0xff	; 255
      0005CE FF                    1645 	.db #0xff	; 255
      0005CF 81                    1646 	.db #0x81	; 129
      0005D0 FF                    1647 	.db #0xff	; 255
      0005D1 80                    1648 	.db #0x80	; 128
      0005D2 FF                    1649 	.db #0xff	; 255
      0005D3 9C                    1650 	.db #0x9c	; 156
      0005D4 FF                    1651 	.db #0xff	; 255
      0005D5 80                    1652 	.db #0x80	; 128
      0005D6 FF                    1653 	.db #0xff	; 255
      0005D7 81                    1654 	.db #0x81	; 129
      0005D8 FF                    1655 	.db #0xff	; 255
      0005D9 98                    1656 	.db #0x98	; 152
      0005DA FF                    1657 	.db #0xff	; 255
      0005DB 9C                    1658 	.db #0x9c	; 156
      0005DC FF                    1659 	.db #0xff	; 255
      0005DD FF                    1660 	.db #0xff	; 255
      0005DE FF                    1661 	.db #0xff	; 255
      0005DF FF                    1662 	.db #0xff	; 255
      0005E0 FF                    1663 	.db #0xff	; 255
      0005E1 DA                    1664 	.db #0xda	; 218
      0005E2 FF                    1665 	.db #0xff	; 255
      0005E3 AA                    1666 	.db #0xaa	; 170
      0005E4 FF                    1667 	.db #0xff	; 255
      0005E5 A9                    1668 	.db #0xa9	; 169
      0005E6 FF                    1669 	.db #0xff	; 255
      0005E7 AA                    1670 	.db #0xaa	; 170
      0005E8 FF                    1671 	.db #0xff	; 255
      0005E9 DA                    1672 	.db #0xda	; 218
      0005EA FF                    1673 	.db #0xff	; 255
      0005EB FF                    1674 	.db #0xff	; 255
      0005EC FF                    1675 	.db #0xff	; 255
      0005ED FF                    1676 	.db #0xff	; 255
      0005EE FF                    1677 	.db #0xff	; 255
      0005EF FF                    1678 	.db #0xff	; 255
      0005F0 FF                    1679 	.db #0xff	; 255
      0005F1 EF                    1680 	.db #0xef	; 239
      0005F2 FF                    1681 	.db #0xff	; 255
      0005F3 C1                    1682 	.db #0xc1	; 193
      0005F4 FF                    1683 	.db #0xff	; 255
      0005F5 81                    1684 	.db #0x81	; 129
      0005F6 FF                    1685 	.db #0xff	; 255
      0005F7 C1                    1686 	.db #0xc1	; 193
      0005F8 FF                    1687 	.db #0xff	; 255
      0005F9 EF                    1688 	.db #0xef	; 239
      0005FA FF                    1689 	.db #0xff	; 255
      0005FB FF                    1690 	.db #0xff	; 255
      0005FC FF                    1691 	.db #0xff	; 255
      0005FD FD                    1692 	.db #0xfd	; 253
      0005FE FF                    1693 	.db #0xff	; 255
      0005FF FA                    1694 	.db #0xfa	; 250
      000600 FF                    1695 	.db #0xff	; 255
      000601 FA                    1696 	.db #0xfa	; 250
      000602 FF                    1697 	.db #0xff	; 255
      000603 77                    1698 	.db #0x77	; 119	'w'
      000604 FF                    1699 	.db #0xff	; 255
      000605 77                    1700 	.db #0x77	; 119	'w'
      000606 FF                    1701 	.db #0xff	; 255
      000607 AF                    1702 	.db #0xaf	; 175
      000608 FF                    1703 	.db #0xff	; 255
      000609 AF                    1704 	.db #0xaf	; 175
      00060A FF                    1705 	.db #0xff	; 255
      00060B DF                    1706 	.db #0xdf	; 223
      00060C FF                    1707 	.db #0xff	; 255
      00060D DF                    1708 	.db #0xdf	; 223
      00060E FF                    1709 	.db #0xff	; 255
      00060F AF                    1710 	.db #0xaf	; 175
      000610 FF                    1711 	.db #0xff	; 255
      000611 AF                    1712 	.db #0xaf	; 175
      000612 FF                    1713 	.db #0xff	; 255
      000613 77                    1714 	.db #0x77	; 119	'w'
      000614 FF                    1715 	.db #0xff	; 255
      000615 77                    1716 	.db #0x77	; 119	'w'
      000616 FF                    1717 	.db #0xff	; 255
      000617 FA                    1718 	.db #0xfa	; 250
      000618 FF                    1719 	.db #0xff	; 255
      000619 FA                    1720 	.db #0xfa	; 250
      00061A FF                    1721 	.db #0xff	; 255
      00061B FD                    1722 	.db #0xfd	; 253
      00061C FF                    1723 	.db #0xff	; 255
      00061D FF                    1724 	.db #0xff	; 255
      00061E FF                    1725 	.db #0xff	; 255
      00061F E0                    1726 	.db #0xe0	; 224
      000620 FF                    1727 	.db #0xff	; 255
      000621 EE                    1728 	.db #0xee	; 238
      000622 FF                    1729 	.db #0xff	; 255
      000623 EE                    1730 	.db #0xee	; 238
      000624 FF                    1731 	.db #0xff	; 255
      000625 EE                    1732 	.db #0xee	; 238
      000626 FF                    1733 	.db #0xff	; 255
      000627 EE                    1734 	.db #0xee	; 238
      000628 FF                    1735 	.db #0xff	; 255
      000629 EE                    1736 	.db #0xee	; 238
      00062A FF                    1737 	.db #0xff	; 255
      00062B 0E                    1738 	.db #0x0e	; 14
      00062C FF                    1739 	.db #0xff	; 255
      00062D FF                    1740 	.db #0xff	; 255
      00062E FF                    1741 	.db #0xff	; 255
      00062F 0E                    1742 	.db #0x0e	; 14
      000630 FF                    1743 	.db #0xff	; 255
      000631 EE                    1744 	.db #0xee	; 238
      000632 FF                    1745 	.db #0xff	; 255
      000633 EE                    1746 	.db #0xee	; 238
      000634 FF                    1747 	.db #0xff	; 255
      000635 EE                    1748 	.db #0xee	; 238
      000636 FF                    1749 	.db #0xff	; 255
      000637 EE                    1750 	.db #0xee	; 238
      000638 FF                    1751 	.db #0xff	; 255
      000639 EE                    1752 	.db #0xee	; 238
      00063A FF                    1753 	.db #0xff	; 255
      00063B E0                    1754 	.db #0xe0	; 224
      00063C FF                    1755 	.db #0xff	; 255
      00063D FF                    1756 	.db #0xff	; 255
      00063E FF                    1757 	.db #0xff	; 255
      00063F FF                    1758 	.db #0xff	; 255
      000640 FF                    1759 	.db #0xff	; 255
      000641 EF                    1760 	.db #0xef	; 239
      000642 FF                    1761 	.db #0xff	; 255
      000643 EF                    1762 	.db #0xef	; 239
      000644 FF                    1763 	.db #0xff	; 255
      000645 83                    1764 	.db #0x83	; 131
      000646 FF                    1765 	.db #0xff	; 255
      000647 EF                    1766 	.db #0xef	; 239
      000648 FF                    1767 	.db #0xff	; 255
      000649 EF                    1768 	.db #0xef	; 239
      00064A FF                    1769 	.db #0xff	; 255
      00064B FF                    1770 	.db #0xff	; 255
      00064C FF                    1771 	.db #0xff	; 255
      00064D FF                    1772 	.db #0xff	; 255
      00064E FF                    1773 	.db #0xff	; 255
      00064F F9                    1774 	.db #0xf9	; 249
      000650 FF                    1775 	.db #0xff	; 255
      000651 F7                    1776 	.db #0xf7	; 247
      000652 FF                    1777 	.db #0xff	; 255
      000653 EF                    1778 	.db #0xef	; 239
      000654 FF                    1779 	.db #0xff	; 255
      000655 EF                    1780 	.db #0xef	; 239
      000656 FF                    1781 	.db #0xff	; 255
      000657 EF                    1782 	.db #0xef	; 239
      000658 FF                    1783 	.db #0xff	; 255
      000659 F7                    1784 	.db #0xf7	; 247
      00065A FF                    1785 	.db #0xff	; 255
      00065B F9                    1786 	.db #0xf9	; 249
      00065C FF                    1787 	.db #0xff	; 255
      00065D FF                    1788 	.db #0xff	; 255
      00065E FF                    1789 	.db #0xff	; 255
      00065F 1F                    1790 	.db #0x1f	; 31
      000660 FF                    1791 	.db #0xff	; 255
      000661 5F                    1792 	.db #0x5f	; 95
      000662 FF                    1793 	.db #0xff	; 255
      000663 5F                    1794 	.db #0x5f	; 95
      000664 FF                    1795 	.db #0xff	; 255
      000665 5F                    1796 	.db #0x5f	; 95
      000666 FF                    1797 	.db #0xff	; 255
      000667 5F                    1798 	.db #0x5f	; 95
      000668 FF                    1799 	.db #0xff	; 255
      000669 5F                    1800 	.db #0x5f	; 95
      00066A FF                    1801 	.db #0xff	; 255
      00066B 40                    1802 	.db #0x40	; 64
      00066C FF                    1803 	.db #0xff	; 255
      00066D FF                    1804 	.db #0xff	; 255
      00066E FF                    1805 	.db #0xff	; 255
      00066F 07                    1806 	.db #0x07	; 7
      000670 FF                    1807 	.db #0xff	; 255
      000671 77                    1808 	.db #0x77	; 119	'w'
      000672 FF                    1809 	.db #0xff	; 255
      000673 77                    1810 	.db #0x77	; 119	'w'
      000674 FF                    1811 	.db #0xff	; 255
      000675 77                    1812 	.db #0x77	; 119	'w'
      000676 FF                    1813 	.db #0xff	; 255
      000677 77                    1814 	.db #0x77	; 119	'w'
      000678 FF                    1815 	.db #0xff	; 255
      000679 77                    1816 	.db #0x77	; 119	'w'
      00067A FF                    1817 	.db #0xff	; 255
      00067B 70                    1818 	.db #0x70	; 112	'p'
      00067C FF                    1819 	.db #0xff	; 255
      00067D FF                    1820 	.db #0xff	; 255
      00067E FF                    1821 	.db #0xff	; 255
      00067F 00                    1822 	.db #0x00	; 0
      000680 FF                    1823 	.db #0xff	; 255
      000681 7E                    1824 	.db #0x7e	; 126
      000682 FF                    1825 	.db #0xff	; 255
      000683 7E                    1826 	.db #0x7e	; 126
      000684 FF                    1827 	.db #0xff	; 255
      000685 7E                    1828 	.db #0x7e	; 126
      000686 FF                    1829 	.db #0xff	; 255
      000687 7E                    1830 	.db #0x7e	; 126
      000688 FF                    1831 	.db #0xff	; 255
      000689 7E                    1832 	.db #0x7e	; 126
      00068A FF                    1833 	.db #0xff	; 255
      00068B 7E                    1834 	.db #0x7e	; 126
      00068C FF                    1835 	.db #0xff	; 255
      00068D FF                    1836 	.db #0xff	; 255
      00068E FF                    1837 	.db #0xff	; 255
      00068F FF                    1838 	.db #0xff	; 255
      000690 FF                    1839 	.db #0xff	; 255
      000691 FF                    1840 	.db #0xff	; 255
      000692 FF                    1841 	.db #0xff	; 255
      000693 FF                    1842 	.db #0xff	; 255
      000694 FF                    1843 	.db #0xff	; 255
      000695 FF                    1844 	.db #0xff	; 255
      000696 FF                    1845 	.db #0xff	; 255
      000697 FF                    1846 	.db #0xff	; 255
      000698 FF                    1847 	.db #0xff	; 255
      000699 FF                    1848 	.db #0xff	; 255
      00069A FF                    1849 	.db #0xff	; 255
      00069B 00                    1850 	.db #0x00	; 0
      00069C FF                    1851 	.db #0xff	; 255
      00069D FF                    1852 	.db #0xff	; 255
      00069E FF                    1853 	.db #0xff	; 255
      00069F 00                    1854 	.db #0x00	; 0
      0006A0 FF                    1855 	.db #0xff	; 255
      0006A1 7F                    1856 	.db #0x7f	; 127
      0006A2 FF                    1857 	.db #0xff	; 255
      0006A3 7F                    1858 	.db #0x7f	; 127
      0006A4 FF                    1859 	.db #0xff	; 255
      0006A5 7F                    1860 	.db #0x7f	; 127
      0006A6 FF                    1861 	.db #0xff	; 255
      0006A7 7F                    1862 	.db #0x7f	; 127
      0006A8 FF                    1863 	.db #0xff	; 255
      0006A9 7F                    1864 	.db #0x7f	; 127
      0006AA FF                    1865 	.db #0xff	; 255
      0006AB 7F                    1866 	.db #0x7f	; 127
      0006AC FF                    1867 	.db #0xff	; 255
      0006AD FF                    1868 	.db #0xff	; 255
      0006AE FF                    1869 	.db #0xff	; 255
      0006AF 1F                    1870 	.db #0x1f	; 31
      0006B0 FF                    1871 	.db #0xff	; 255
      0006B1 DF                    1872 	.db #0xdf	; 223
      0006B2 FF                    1873 	.db #0xff	; 255
      0006B3 DF                    1874 	.db #0xdf	; 223
      0006B4 FF                    1875 	.db #0xff	; 255
      0006B5 DF                    1876 	.db #0xdf	; 223
      0006B6 FF                    1877 	.db #0xff	; 255
      0006B7 DF                    1878 	.db #0xdf	; 223
      0006B8 FF                    1879 	.db #0xff	; 255
      0006B9 DF                    1880 	.db #0xdf	; 223
      0006BA FF                    1881 	.db #0xff	; 255
      0006BB C0                    1882 	.db #0xc0	; 192
      0006BC FF                    1883 	.db #0xff	; 255
      0006BD FF                    1884 	.db #0xff	; 255
      0006BE FF                    1885 	.db #0xff	; 255
      0006BF CE                    1886 	.db #0xce	; 206
      0006C0 FF                    1887 	.db #0xff	; 255
      0006C1 B5                    1888 	.db #0xb5	; 181
      0006C2 FF                    1889 	.db #0xff	; 255
      0006C3 CB                    1890 	.db #0xcb	; 203
      0006C4 FF                    1891 	.db #0xff	; 255
      0006C5 F7                    1892 	.db #0xf7	; 247
      0006C6 FF                    1893 	.db #0xff	; 255
      0006C7 E9                    1894 	.db #0xe9	; 233
      0006C8 FF                    1895 	.db #0xff	; 255
      0006C9 D6                    1896 	.db #0xd6	; 214
      0006CA FF                    1897 	.db #0xff	; 255
      0006CB B9                    1898 	.db #0xb9	; 185
      0006CC FF                    1899 	.db #0xff	; 255
      0006CD FF                    1900 	.db #0xff	; 255
      0006CE FF                    1901 	.db #0xff	; 255
      0006CF 9F                    1902 	.db #0x9f	; 159
      0006D0 FF                    1903 	.db #0xff	; 255
      0006D1 EF                    1904 	.db #0xef	; 239
      0006D2 FF                    1905 	.db #0xff	; 255
      0006D3 F7                    1906 	.db #0xf7	; 247
      0006D4 FF                    1907 	.db #0xff	; 255
      0006D5 F7                    1908 	.db #0xf7	; 247
      0006D6 FF                    1909 	.db #0xff	; 255
      0006D7 F7                    1910 	.db #0xf7	; 247
      0006D8 FF                    1911 	.db #0xff	; 255
      0006D9 EF                    1912 	.db #0xef	; 239
      0006DA FF                    1913 	.db #0xff	; 255
      0006DB 9F                    1914 	.db #0x9f	; 159
      0006DC FF                    1915 	.db #0xff	; 255
      0006DD FF                    1916 	.db #0xff	; 255
      0006DE FF                    1917 	.db #0xff	; 255
      0006DF FF                    1918 	.db #0xff	; 255
      0006E0 FF                    1919 	.db #0xff	; 255
      0006E1 F3                    1920 	.db #0xf3	; 243
      0006E2 FF                    1921 	.db #0xff	; 255
      0006E3 F3                    1922 	.db #0xf3	; 243
      0006E4 FF                    1923 	.db #0xff	; 255
      0006E5 FF                    1924 	.db #0xff	; 255
      0006E6 FF                    1925 	.db #0xff	; 255
      0006E7 F3                    1926 	.db #0xf3	; 243
      0006E8 FF                    1927 	.db #0xff	; 255
      0006E9 F3                    1928 	.db #0xf3	; 243
      0006EA FF                    1929 	.db #0xff	; 255
      0006EB F7                    1930 	.db #0xf7	; 247
      0006EC FF                    1931 	.db #0xff	; 255
      0006ED FF                    1932 	.db #0xff	; 255
      0006EE FF                    1933 	.db #0xff	; 255
      0006EF FC                    1934 	.db #0xfc	; 252
      0006F0 FF                    1935 	.db #0xff	; 255
      0006F1 F8                    1936 	.db #0xf8	; 248
      0006F2 FF                    1937 	.db #0xff	; 255
      0006F3 F1                    1938 	.db #0xf1	; 241
      0006F4 FF                    1939 	.db #0xff	; 255
      0006F5 E3                    1940 	.db #0xe3	; 227
      0006F6 FF                    1941 	.db #0xff	; 255
      0006F7 C7                    1942 	.db #0xc7	; 199
      0006F8 FF                    1943 	.db #0xff	; 255
      0006F9 8F                    1944 	.db #0x8f	; 143
      0006FA FF                    1945 	.db #0xff	; 255
      0006FB 9F                    1946 	.db #0x9f	; 159
      0006FC FF                    1947 	.db #0xff	; 255
      0006FD 00                    1948 	.db #0x00	; 0
      0006FE FF                    1949 	.db #0xff	; 255
      0006FF 00                    1950 	.db #0x00	; 0
      000700 FF                    1951 	.db #0xff	; 255
      000701 00                    1952 	.db #0x00	; 0
      000702 FF                    1953 	.db #0xff	; 255
      000703 00                    1954 	.db #0x00	; 0
      000704 FF                    1955 	.db #0xff	; 255
      000705 00                    1956 	.db #0x00	; 0
      000706 FF                    1957 	.db #0xff	; 255
      000707 00                    1958 	.db #0x00	; 0
      000708 FF                    1959 	.db #0xff	; 255
      000709 00                    1960 	.db #0x00	; 0
      00070A FF                    1961 	.db #0xff	; 255
      00070B 00                    1962 	.db #0x00	; 0
      00070C                       1963 _aero_cursors:
      00070C 00                    1964 	.db #0x00	; 0
      00070D 00                    1965 	.db #0x00	; 0
      00070E 00                    1966 	.db #0x00	; 0
      00070F 00                    1967 	.db #0x00	; 0
      000710 08                    1968 	.db #0x08	; 8
      000711 00                    1969 	.db #0x00	; 0
      000712 0C                    1970 	.db #0x0c	; 12
      000713 00                    1971 	.db #0x00	; 0
      000714 0E                    1972 	.db #0x0e	; 14
      000715 00                    1973 	.db #0x00	; 0
      000716 0C                    1974 	.db #0x0c	; 12
      000717 00                    1975 	.db #0x00	; 0
      000718 08                    1976 	.db #0x08	; 8
      000719 00                    1977 	.db #0x00	; 0
      00071A 00                    1978 	.db #0x00	; 0
      00071B 00                    1979 	.db #0x00	; 0
      00071C 00                    1980 	.db #0x00	; 0
      00071D 00                    1981 	.db #0x00	; 0
      00071E 00                    1982 	.db #0x00	; 0
      00071F 00                    1983 	.db #0x00	; 0
      000720 08                    1984 	.db #0x08	; 8
      000721 08                    1985 	.db #0x08	; 8
      000722 0C                    1986 	.db #0x0c	; 12
      000723 0C                    1987 	.db #0x0c	; 12
      000724 0E                    1988 	.db #0x0e	; 14
      000725 0E                    1989 	.db #0x0e	; 14
      000726 0C                    1990 	.db #0x0c	; 12
      000727 0C                    1991 	.db #0x0c	; 12
      000728 08                    1992 	.db #0x08	; 8
      000729 08                    1993 	.db #0x08	; 8
      00072A 00                    1994 	.db #0x00	; 0
      00072B 00                    1995 	.db #0x00	; 0
      00072C                       1996 _progress_bar_tiles:
      00072C FF                    1997 	.db #0xff	; 255
      00072D FF                    1998 	.db #0xff	; 255
      00072E FF                    1999 	.db #0xff	; 255
      00072F FF                    2000 	.db #0xff	; 255
      000730 FF                    2001 	.db #0xff	; 255
      000731 FF                    2002 	.db #0xff	; 255
      000732 FF                    2003 	.db #0xff	; 255
      000733 FF                    2004 	.db #0xff	; 255
      000734 FF                    2005 	.db #0xff	; 255
      000735 FF                    2006 	.db #0xff	; 255
      000736 FF                    2007 	.db #0xff	; 255
      000737 FF                    2008 	.db #0xff	; 255
      000738 FF                    2009 	.db #0xff	; 255
      000739 FF                    2010 	.db #0xff	; 255
      00073A FF                    2011 	.db #0xff	; 255
      00073B FF                    2012 	.db #0xff	; 255
      00073C FF                    2013 	.db #0xff	; 255
      00073D FF                    2014 	.db #0xff	; 255
      00073E FF                    2015 	.db #0xff	; 255
      00073F FF                    2016 	.db #0xff	; 255
      000740 FF                    2017 	.db #0xff	; 255
      000741 7F                    2018 	.db #0x7f	; 127
      000742 FF                    2019 	.db #0xff	; 255
      000743 7F                    2020 	.db #0x7f	; 127
      000744 FF                    2021 	.db #0xff	; 255
      000745 7F                    2022 	.db #0x7f	; 127
      000746 FF                    2023 	.db #0xff	; 255
      000747 7F                    2024 	.db #0x7f	; 127
      000748 FF                    2025 	.db #0xff	; 255
      000749 FF                    2026 	.db #0xff	; 255
      00074A FF                    2027 	.db #0xff	; 255
      00074B FF                    2028 	.db #0xff	; 255
      00074C FF                    2029 	.db #0xff	; 255
      00074D FF                    2030 	.db #0xff	; 255
      00074E FF                    2031 	.db #0xff	; 255
      00074F FF                    2032 	.db #0xff	; 255
      000750 FF                    2033 	.db #0xff	; 255
      000751 3F                    2034 	.db #0x3f	; 63
      000752 FF                    2035 	.db #0xff	; 255
      000753 3F                    2036 	.db #0x3f	; 63
      000754 FF                    2037 	.db #0xff	; 255
      000755 3F                    2038 	.db #0x3f	; 63
      000756 FF                    2039 	.db #0xff	; 255
      000757 3F                    2040 	.db #0x3f	; 63
      000758 FF                    2041 	.db #0xff	; 255
      000759 FF                    2042 	.db #0xff	; 255
      00075A FF                    2043 	.db #0xff	; 255
      00075B FF                    2044 	.db #0xff	; 255
      00075C FF                    2045 	.db #0xff	; 255
      00075D FF                    2046 	.db #0xff	; 255
      00075E FF                    2047 	.db #0xff	; 255
      00075F FF                    2048 	.db #0xff	; 255
      000760 FF                    2049 	.db #0xff	; 255
      000761 1F                    2050 	.db #0x1f	; 31
      000762 FF                    2051 	.db #0xff	; 255
      000763 1F                    2052 	.db #0x1f	; 31
      000764 FF                    2053 	.db #0xff	; 255
      000765 1F                    2054 	.db #0x1f	; 31
      000766 FF                    2055 	.db #0xff	; 255
      000767 1F                    2056 	.db #0x1f	; 31
      000768 FF                    2057 	.db #0xff	; 255
      000769 FF                    2058 	.db #0xff	; 255
      00076A FF                    2059 	.db #0xff	; 255
      00076B FF                    2060 	.db #0xff	; 255
      00076C FF                    2061 	.db #0xff	; 255
      00076D FF                    2062 	.db #0xff	; 255
      00076E FF                    2063 	.db #0xff	; 255
      00076F FF                    2064 	.db #0xff	; 255
      000770 FF                    2065 	.db #0xff	; 255
      000771 0F                    2066 	.db #0x0f	; 15
      000772 FF                    2067 	.db #0xff	; 255
      000773 0F                    2068 	.db #0x0f	; 15
      000774 FF                    2069 	.db #0xff	; 255
      000775 0F                    2070 	.db #0x0f	; 15
      000776 FF                    2071 	.db #0xff	; 255
      000777 0F                    2072 	.db #0x0f	; 15
      000778 FF                    2073 	.db #0xff	; 255
      000779 FF                    2074 	.db #0xff	; 255
      00077A FF                    2075 	.db #0xff	; 255
      00077B FF                    2076 	.db #0xff	; 255
      00077C FF                    2077 	.db #0xff	; 255
      00077D FF                    2078 	.db #0xff	; 255
      00077E FF                    2079 	.db #0xff	; 255
      00077F FF                    2080 	.db #0xff	; 255
      000780 FF                    2081 	.db #0xff	; 255
      000781 07                    2082 	.db #0x07	; 7
      000782 FF                    2083 	.db #0xff	; 255
      000783 07                    2084 	.db #0x07	; 7
      000784 FF                    2085 	.db #0xff	; 255
      000785 07                    2086 	.db #0x07	; 7
      000786 FF                    2087 	.db #0xff	; 255
      000787 07                    2088 	.db #0x07	; 7
      000788 FF                    2089 	.db #0xff	; 255
      000789 FF                    2090 	.db #0xff	; 255
      00078A FF                    2091 	.db #0xff	; 255
      00078B FF                    2092 	.db #0xff	; 255
      00078C FF                    2093 	.db #0xff	; 255
      00078D FF                    2094 	.db #0xff	; 255
      00078E FF                    2095 	.db #0xff	; 255
      00078F FF                    2096 	.db #0xff	; 255
      000790 FF                    2097 	.db #0xff	; 255
      000791 03                    2098 	.db #0x03	; 3
      000792 FF                    2099 	.db #0xff	; 255
      000793 03                    2100 	.db #0x03	; 3
      000794 FF                    2101 	.db #0xff	; 255
      000795 03                    2102 	.db #0x03	; 3
      000796 FF                    2103 	.db #0xff	; 255
      000797 03                    2104 	.db #0x03	; 3
      000798 FF                    2105 	.db #0xff	; 255
      000799 FF                    2106 	.db #0xff	; 255
      00079A FF                    2107 	.db #0xff	; 255
      00079B FF                    2108 	.db #0xff	; 255
      00079C FF                    2109 	.db #0xff	; 255
      00079D FF                    2110 	.db #0xff	; 255
      00079E FF                    2111 	.db #0xff	; 255
      00079F FF                    2112 	.db #0xff	; 255
      0007A0 FF                    2113 	.db #0xff	; 255
      0007A1 01                    2114 	.db #0x01	; 1
      0007A2 FF                    2115 	.db #0xff	; 255
      0007A3 01                    2116 	.db #0x01	; 1
      0007A4 FF                    2117 	.db #0xff	; 255
      0007A5 01                    2118 	.db #0x01	; 1
      0007A6 FF                    2119 	.db #0xff	; 255
      0007A7 01                    2120 	.db #0x01	; 1
      0007A8 FF                    2121 	.db #0xff	; 255
      0007A9 FF                    2122 	.db #0xff	; 255
      0007AA FF                    2123 	.db #0xff	; 255
      0007AB FF                    2124 	.db #0xff	; 255
      0007AC FF                    2125 	.db #0xff	; 255
      0007AD FF                    2126 	.db #0xff	; 255
      0007AE FF                    2127 	.db #0xff	; 255
      0007AF FF                    2128 	.db #0xff	; 255
      0007B0 FF                    2129 	.db #0xff	; 255
      0007B1 00                    2130 	.db #0x00	; 0
      0007B2 FF                    2131 	.db #0xff	; 255
      0007B3 00                    2132 	.db #0x00	; 0
      0007B4 FF                    2133 	.db #0xff	; 255
      0007B5 00                    2134 	.db #0x00	; 0
      0007B6 FF                    2135 	.db #0xff	; 255
      0007B7 00                    2136 	.db #0x00	; 0
      0007B8 FF                    2137 	.db #0xff	; 255
      0007B9 FF                    2138 	.db #0xff	; 255
      0007BA FF                    2139 	.db #0xff	; 255
      0007BB FF                    2140 	.db #0xff	; 255
      0007BC                       2141 _attempts_title:
      0007BC 41                    2142 	.db #0x41	;  65	'A'
      0007BD 54                    2143 	.db #0x54	;  84	'T'
      0007BE 54                    2144 	.db #0x54	;  84	'T'
      0007BF 45                    2145 	.db #0x45	;  69	'E'
      0007C0 4D                    2146 	.db #0x4d	;  77	'M'
      0007C1 50                    2147 	.db #0x50	;  80	'P'
      0007C2 54                    2148 	.db #0x54	;  84	'T'
                                   2149 ;geometry_boy.c:264: void lcd_interrupt_game()
                                   2150 ;	---------------------------------
                                   2151 ; Function lcd_interrupt_game
                                   2152 ; ---------------------------------
      0007C3                       2153 _lcd_interrupt_game::
                                   2154 ;geometry_boy.c:266: HIDE_WIN;
      0007C3 F0r00                 2155 	ldh	a, (_LCDC_REG + 0)
      0007C5 E6 DF                 2156 	and	a, #0xdf
      0007C7 E0r00                 2157 	ldh	(_LCDC_REG + 0), a
                                   2158 ;geometry_boy.c:267: } // hide the window, triggers at the scanline LYC
      0007C9 C9                    2159 	ret
                                   2160 ;geometry_boy.c:270: void vbl_interrupt_game()
                                   2161 ;	---------------------------------
                                   2162 ; Function vbl_interrupt_game
                                   2163 ; ---------------------------------
      0007CA                       2164 _vbl_interrupt_game::
                                   2165 ;geometry_boy.c:272: SHOW_WIN;
      0007CA F0r00                 2166 	ldh	a, (_LCDC_REG + 0)
      0007CC F6 20                 2167 	or	a, #0x20
      0007CE E0r00                 2168 	ldh	(_LCDC_REG + 0), a
                                   2169 ;geometry_boy.c:273: vbl_count++;
      0007D0 21r06r00              2170 	ld	hl, #_vbl_count
      0007D3 34                    2171 	inc	(hl)
                                   2172 ;geometry_boy.c:274: old_scroll_x += (background_x_shift - old_scroll_x + 1) >> 1;
      0007D4 FAr0Br00              2173 	ld	a, (#_background_x_shift)
      0007D7 21r0Fr00              2174 	ld	hl, #_old_scroll_x
      0007DA 96                    2175 	sub	a, (hl)
      0007DB 4F                    2176 	ld	c, a
      0007DC FAr0Cr00              2177 	ld	a, (#_background_x_shift + 1)
      0007DF 21r10r00              2178 	ld	hl, #_old_scroll_x + 1
      0007E2 9E                    2179 	sbc	a, (hl)
      0007E3 2B                    2180 	dec	hl
      0007E4 47                    2181 	ld	b, a
      0007E5 03                    2182 	inc	bc
      0007E6 CB 38                 2183 	srl	b
      0007E8 CB 19                 2184 	rr	c
      0007EA 6E                    2185 	ld	l, (hl)
                                   2186 ;	spillPairReg hl
                                   2187 ;	spillPairReg hl
      0007EB FAr10r00              2188 	ld	a, (_old_scroll_x + 1)
      0007EE 67                    2189 	ld	h, a
                                   2190 ;	spillPairReg hl
                                   2191 ;	spillPairReg hl
      0007EF 09                    2192 	add	hl, bc
      0007F0 4D                    2193 	ld	c, l
      0007F1 7C                    2194 	ld	a, h
      0007F2 21r0Fr00              2195 	ld	hl, #_old_scroll_x
      0007F5 71                    2196 	ld	(hl), c
      0007F6 23                    2197 	inc	hl
                                   2198 ;geometry_boy.c:275: SCX_REG = old_scroll_x; // + player_dx;
      0007F7 32                    2199 	ld	(hl-), a
      0007F8 7E                    2200 	ld	a, (hl)
      0007F9 E0r00                 2201 	ldh	(_SCX_REG + 0), a
                                   2202 ;geometry_boy.c:276: }
      0007FB C9                    2203 	ret
                                   2204 ;geometry_boy.c:278: void vbl_interrupt_title()
                                   2205 ;	---------------------------------
                                   2206 ; Function vbl_interrupt_title
                                   2207 ; ---------------------------------
      0007FC                       2208 _vbl_interrupt_title::
                                   2209 ;geometry_boy.c:280: vbl_count++;
      0007FC 21r06r00              2210 	ld	hl, #_vbl_count
      0007FF 34                    2211 	inc	(hl)
                                   2212 ;geometry_boy.c:281: old_scroll_x += (background_x_shift - old_scroll_x + 1) >> 1;
      000800 FAr0Br00              2213 	ld	a, (#_background_x_shift)
      000803 21r0Fr00              2214 	ld	hl, #_old_scroll_x
      000806 96                    2215 	sub	a, (hl)
      000807 4F                    2216 	ld	c, a
      000808 FAr0Cr00              2217 	ld	a, (#_background_x_shift + 1)
      00080B 21r10r00              2218 	ld	hl, #_old_scroll_x + 1
      00080E 9E                    2219 	sbc	a, (hl)
      00080F 2B                    2220 	dec	hl
      000810 47                    2221 	ld	b, a
      000811 03                    2222 	inc	bc
      000812 CB 38                 2223 	srl	b
      000814 CB 19                 2224 	rr	c
      000816 6E                    2225 	ld	l, (hl)
                                   2226 ;	spillPairReg hl
                                   2227 ;	spillPairReg hl
      000817 FAr10r00              2228 	ld	a, (_old_scroll_x + 1)
      00081A 67                    2229 	ld	h, a
                                   2230 ;	spillPairReg hl
                                   2231 ;	spillPairReg hl
      00081B 09                    2232 	add	hl, bc
      00081C 4D                    2233 	ld	c, l
      00081D 7C                    2234 	ld	a, h
      00081E 21r0Fr00              2235 	ld	hl, #_old_scroll_x
      000821 71                    2236 	ld	(hl), c
      000822 23                    2237 	inc	hl
                                   2238 ;geometry_boy.c:282: SCX_REG = old_scroll_x + player_dx;
      000823 32                    2239 	ld	(hl-), a
      000824 7E                    2240 	ld	a, (hl)
      000825 21r01r00              2241 	ld	hl, #_player_dx
      000828 86                    2242 	add	a, (hl)
      000829 E0r00                 2243 	ldh	(_SCX_REG + 0), a
                                   2244 ;geometry_boy.c:283: }
      00082B C9                    2245 	ret
                                   2246 ;geometry_boy.c:285: void scroll_bkg_x(uint8_t x_shift, char *map, uint16_t map_width)
                                   2247 ;	---------------------------------
                                   2248 ; Function scroll_bkg_x
                                   2249 ; ---------------------------------
      00082C                       2250 _scroll_bkg_x::
                                   2251 ;geometry_boy.c:287: background_x_shift = (background_x_shift + x_shift);
      00082C F8 02                 2252 	ldhl	sp,	#2
      00082E 4E                    2253 	ld	c, (hl)
      00082F 06 00                 2254 	ld	b, #0x00
      000831 21r0Br00              2255 	ld	hl, #_background_x_shift
      000834 6E                    2256 	ld	l, (hl)
                                   2257 ;	spillPairReg hl
                                   2258 ;	spillPairReg hl
      000835 FAr0Cr00              2259 	ld	a, (_background_x_shift + 1)
      000838 67                    2260 	ld	h, a
                                   2261 ;	spillPairReg hl
                                   2262 ;	spillPairReg hl
      000839 09                    2263 	add	hl, bc
      00083A 5D                    2264 	ld	e, l
      00083B 7C                    2265 	ld	a, h
      00083C 21r0Br00              2266 	ld	hl, #_background_x_shift
      00083F 73                    2267 	ld	(hl), e
      000840 23                    2268 	inc	hl
      000841 77                    2269 	ld	(hl), a
                                   2270 ;geometry_boy.c:288: if (background_x_shift >= old_background_x_shift)
      000842 11r0Br00              2271 	ld	de, #_background_x_shift
      000845 21r0Dr00              2272 	ld	hl, #_old_background_x_shift
      000848 1A                    2273 	ld	a, (de)
      000849 13                    2274 	inc	de
      00084A 96                    2275 	sub	a, (hl)
      00084B 23                    2276 	inc	hl
      00084C 1A                    2277 	ld	a, (de)
      00084D 9E                    2278 	sbc	a, (hl)
      00084E D8                    2279 	ret	C
                                   2280 ;geometry_boy.c:291: old_background_x_shift = ((background_x_shift >> 3) << 3) + 8 + x_shift; // old_background_x_shift = (background_x_shift / 8) * 8 + 8 + x_shift;
      00084F 21r0Br00              2281 	ld	hl, #_background_x_shift
      000852 2A                    2282 	ld	a, (hl+)
      000853 5F                    2283 	ld	e, a
      000854 56                    2284 	ld	d, (hl)
      000855 CB 3A                 2285 	srl	d
      000857 CB 1B                 2286 	rr	e
      000859 CB 3A                 2287 	srl	d
      00085B CB 1B                 2288 	rr	e
      00085D CB 3A                 2289 	srl	d
      00085F CB 1B                 2290 	rr	e
      000861 6B                    2291 	ld	l, e
      000862 62                    2292 	ld	h, d
      000863 29                    2293 	add	hl, hl
      000864 29                    2294 	add	hl, hl
      000865 29                    2295 	add	hl, hl
      000866 7D                    2296 	ld	a, l
      000867 C6 08                 2297 	add	a, #0x08
      000869 6F                    2298 	ld	l, a
                                   2299 ;	spillPairReg hl
                                   2300 ;	spillPairReg hl
      00086A 30 01                 2301 	jr	NC, 00118$
      00086C 24                    2302 	inc	h
      00086D                       2303 00118$:
      00086D 09                    2304 	add	hl, bc
      00086E 7D                    2305 	ld	a, l
      00086F EAr0Dr00              2306 	ld	(_old_background_x_shift), a
      000872 7C                    2307 	ld	a, h
      000873 EAr0Er00              2308 	ld	(_old_background_x_shift + 1), a
                                   2309 ;geometry_boy.c:292: count = (background_x_shift >> 3) - 1;
      000876 1B                    2310 	dec	de
      000877 21r03r00              2311 	ld	hl, #_count
      00087A 7B                    2312 	ld	a, e
      00087B 22                    2313 	ld	(hl+), a
                                   2314 ;geometry_boy.c:293: count = (count + 32) % map_width;
      00087C 7A                    2315 	ld	a, d
      00087D 32                    2316 	ld	(hl-), a
      00087E 2A                    2317 	ld	a, (hl+)
      00087F 46                    2318 	ld	b, (hl)
      000880 C6 20                 2319 	add	a, #0x20
      000882 4F                    2320 	ld	c, a
      000883 30 01                 2321 	jr	NC, 00119$
      000885 04                    2322 	inc	b
      000886                       2323 00119$:
      000886 F8 05                 2324 	ldhl	sp,	#5
      000888 2A                    2325 	ld	a, (hl+)
      000889 5F                    2326 	ld	e, a
      00088A 56                    2327 	ld	d, (hl)
      00088B D5                    2328 	push	de
      00088C C5                    2329 	push	bc
      00088D CDr00r00              2330 	call	__moduint
      000890 E8 04                 2331 	add	sp, #4
      000892 21r03r00              2332 	ld	hl, #_count
      000895 7B                    2333 	ld	a, e
      000896 22                    2334 	ld	(hl+), a
      000897 72                    2335 	ld	(hl), d
                                   2336 ;geometry_boy.c:294: for (render_row = 0; render_row < 18; render_row++)
      000898 21r01r00              2337 	ld	hl, #_render_row
      00089B 36 00                 2338 	ld	(hl), #0x00
      00089D                       2339 00104$:
                                   2340 ;geometry_boy.c:297: set_bkg_tiles(((background_x_shift >> 3) - 1) & 31, render_row, 1, 1, map + count);
      00089D F8 03                 2341 	ldhl	sp,#3
      00089F 2A                    2342 	ld	a, (hl+)
      0008A0 5F                    2343 	ld	e, a
      0008A1 56                    2344 	ld	d, (hl)
      0008A2 21r03r00              2345 	ld	hl, #_count
      0008A5 2A                    2346 	ld	a,	(hl+)
      0008A6 66                    2347 	ld	h, (hl)
      0008A7 6F                    2348 	ld	l, a
      0008A8 19                    2349 	add	hl, de
      0008A9 4D                    2350 	ld	c, l
      0008AA 44                    2351 	ld	b, h
      0008AB 21r0Br00              2352 	ld	hl, #_background_x_shift
      0008AE 2A                    2353 	ld	a, (hl+)
      0008AF 5F                    2354 	ld	e, a
      0008B0 56                    2355 	ld	d, (hl)
      0008B1 CB 3A                 2356 	srl	d
      0008B3 CB 1B                 2357 	rr	e
      0008B5 CB 3A                 2358 	srl	d
      0008B7 CB 1B                 2359 	rr	e
      0008B9 CB 3A                 2360 	srl	d
      0008BB CB 1B                 2361 	rr	e
      0008BD 7B                    2362 	ld	a, e
      0008BE 3D                    2363 	dec	a
      0008BF E6 1F                 2364 	and	a, #0x1f
      0008C1 C5                    2365 	push	bc
      0008C2 26 01                 2366 	ld	h, #0x01
                                   2367 ;	spillPairReg hl
                                   2368 ;	spillPairReg hl
      0008C4 E5                    2369 	push	hl
      0008C5 33                    2370 	inc	sp
      0008C6 26 01                 2371 	ld	h, #0x01
                                   2372 ;	spillPairReg hl
                                   2373 ;	spillPairReg hl
      0008C8 E5                    2374 	push	hl
      0008C9 33                    2375 	inc	sp
      0008CA 21r01r00              2376 	ld	hl, #_render_row
      0008CD 66                    2377 	ld	h, (hl)
                                   2378 ;	spillPairReg hl
                                   2379 ;	spillPairReg hl
      0008CE E5                    2380 	push	hl
      0008CF 33                    2381 	inc	sp
      0008D0 F5                    2382 	push	af
      0008D1 33                    2383 	inc	sp
      0008D2 CDr00r00              2384 	call	_set_bkg_tiles
      0008D5 E8 06                 2385 	add	sp, #6
                                   2386 ;geometry_boy.c:298: count += map_width;
      0008D7 21r03r00              2387 	ld	hl, #_count
      0008DA 2A                    2388 	ld	a, (hl+)
      0008DB 5F                    2389 	ld	e, a
      0008DC 56                    2390 	ld	d, (hl)
      0008DD F8 05                 2391 	ldhl	sp,	#5
      0008DF 2A                    2392 	ld	a,	(hl+)
      0008E0 66                    2393 	ld	h, (hl)
      0008E1 6F                    2394 	ld	l, a
      0008E2 19                    2395 	add	hl, de
      0008E3 5D                    2396 	ld	e, l
      0008E4 54                    2397 	ld	d, h
      0008E5 21r03r00              2398 	ld	hl, #_count
      0008E8 7B                    2399 	ld	a, e
      0008E9 22                    2400 	ld	(hl+), a
      0008EA 72                    2401 	ld	(hl), d
                                   2402 ;geometry_boy.c:294: for (render_row = 0; render_row < 18; render_row++)
      0008EB 21r01r00              2403 	ld	hl, #_render_row
      0008EE 34                    2404 	inc	(hl)
      0008EF 7E                    2405 	ld	a, (hl)
      0008F0 D6 12                 2406 	sub	a, #0x12
      0008F2 38 A9                 2407 	jr	C, 00104$
                                   2408 ;geometry_boy.c:301: }
      0008F4 C9                    2409 	ret
                                   2410 ;geometry_boy.c:303: void init_background(char *map, uint16_t map_width)
                                   2411 ;	---------------------------------
                                   2412 ; Function init_background
                                   2413 ; ---------------------------------
      0008F5                       2414 _init_background::
                                   2415 ;geometry_boy.c:306: count = 0;
      0008F5 AF                    2416 	xor	a, a
      0008F6 21r03r00              2417 	ld	hl, #_count
      0008F9 22                    2418 	ld	(hl+), a
      0008FA 77                    2419 	ld	(hl), a
                                   2420 ;geometry_boy.c:307: for (render_row = 0; render_row < 18; render_row++)
      0008FB 21r01r00              2421 	ld	hl, #_render_row
      0008FE 36 00                 2422 	ld	(hl), #0x00
      000900                       2423 00102$:
                                   2424 ;geometry_boy.c:309: set_bkg_tiles(0, render_row, 32, 1, map + count);
      000900 F8 02                 2425 	ldhl	sp,#2
      000902 2A                    2426 	ld	a, (hl+)
      000903 5F                    2427 	ld	e, a
      000904 56                    2428 	ld	d, (hl)
      000905 21r03r00              2429 	ld	hl, #_count
      000908 2A                    2430 	ld	a,	(hl+)
      000909 66                    2431 	ld	h, (hl)
      00090A 6F                    2432 	ld	l, a
      00090B 19                    2433 	add	hl, de
      00090C E5                    2434 	push	hl
      00090D 21 20 01              2435 	ld	hl, #0x120
      000910 E5                    2436 	push	hl
      000911 FAr01r00              2437 	ld	a, (#_render_row)
      000914 67                    2438 	ld	h, a
      000915 2E 00                 2439 	ld	l, #0x00
      000917 E5                    2440 	push	hl
      000918 CDr00r00              2441 	call	_set_bkg_tiles
      00091B E8 06                 2442 	add	sp, #6
                                   2443 ;geometry_boy.c:310: count += map_width;
      00091D 21r03r00              2444 	ld	hl, #_count
      000920 2A                    2445 	ld	a, (hl+)
      000921 5F                    2446 	ld	e, a
      000922 56                    2447 	ld	d, (hl)
      000923 F8 04                 2448 	ldhl	sp,	#4
      000925 2A                    2449 	ld	a,	(hl+)
      000926 66                    2450 	ld	h, (hl)
      000927 6F                    2451 	ld	l, a
      000928 19                    2452 	add	hl, de
      000929 5D                    2453 	ld	e, l
      00092A 54                    2454 	ld	d, h
      00092B 21r03r00              2455 	ld	hl, #_count
      00092E 7B                    2456 	ld	a, e
      00092F 22                    2457 	ld	(hl+), a
      000930 72                    2458 	ld	(hl), d
                                   2459 ;geometry_boy.c:307: for (render_row = 0; render_row < 18; render_row++)
      000931 21r01r00              2460 	ld	hl, #_render_row
      000934 34                    2461 	inc	(hl)
      000935 7E                    2462 	ld	a, (hl)
      000936 D6 12                 2463 	sub	a, #0x12
      000938 38 C6                 2464 	jr	C, 00102$
                                   2465 ;geometry_boy.c:312: }
      00093A C9                    2466 	ret
                                   2467 ;geometry_boy.c:383: void collide(int8_t vel_y)
                                   2468 ;	---------------------------------
                                   2469 ; Function collide
                                   2470 ; ---------------------------------
      00093B                       2471 _collide::
      00093B E8 E2                 2472 	add	sp, #-30
                                   2473 ;geometry_boy.c:388: for (uint8_t i = 0; i < 4; i++)
      00093D F8 20                 2474 	ldhl	sp,	#32
      00093F 5E                    2475 	ld	e, (hl)
      000940 AF                    2476 	xor	a, a
      000941 57                    2477 	ld	d, a
      000942 96                    2478 	sub	a, (hl)
      000943 CB 7B                 2479 	bit	7, e
      000945 28 07                 2480 	jr	Z, 01014$
      000947 CB 7A                 2481 	bit	7, d
      000949 20 08                 2482 	jr	NZ, 01015$
      00094B BF                    2483 	cp	a, a
      00094C 18 05                 2484 	jr	01015$
      00094E                       2485 01014$:
      00094E CB 7A                 2486 	bit	7, d
      000950 28 01                 2487 	jr	Z, 01015$
      000952 37                    2488 	scf
      000953                       2489 01015$:
      000953 3E 00                 2490 	ld	a, #0x00
      000955 17                    2491 	rla
      000956 F8 00                 2492 	ldhl	sp,	#0
      000958 77                    2493 	ld	(hl), a
      000959 F8 20                 2494 	ldhl	sp,	#32
      00095B 7E                    2495 	ld	a, (hl)
      00095C 07                    2496 	rlca
      00095D E6 01                 2497 	and	a,#0x01
      00095F F8 01                 2498 	ldhl	sp,	#1
      000961 32                    2499 	ld	(hl-), a
      000962 2A                    2500 	ld	a, (hl+)
      000963 23                    2501 	inc	hl
      000964 32                    2502 	ld	(hl-), a
      000965 2A                    2503 	ld	a, (hl+)
      000966 23                    2504 	inc	hl
      000967 77                    2505 	ld	(hl), a
      000968 F8 1D                 2506 	ldhl	sp,	#29
      00096A 36 00                 2507 	ld	(hl), #0x00
      00096C                       2508 00221$:
                                   2509 ;geometry_boy.c:390: tile_x = (player_x + (PLAYER_WIDTH - 1) * (i % 2));
      00096C FAr03r00              2510 	ld	a, (#_player_x)
      00096F F8 1C                 2511 	ldhl	sp,	#28
      000971 77                    2512 	ld	(hl), a
                                   2513 ;geometry_boy.c:391: tile_y = (player_y + (PLAYER_WIDTH - 1) * (i < 2));
      000972 FAr02r00              2514 	ld	a, (#_player_y)
      000975 F8 19                 2515 	ldhl	sp,	#25
      000977 77                    2516 	ld	(hl), a
                                   2517 ;geometry_boy.c:355: x_px_to_tile_ind(x_px + background_x_shift),
      000978 FAr0Br00              2518 	ld	a, (#_background_x_shift)
      00097B F8 1A                 2519 	ldhl	sp,	#26
      00097D 77                    2520 	ld	(hl), a
                                   2521 ;geometry_boy.c:388: for (uint8_t i = 0; i < 4; i++)
      00097E F8 1D                 2522 	ldhl	sp,	#29
                                   2523 ;geometry_boy.c:390: tile_x = (player_x + (PLAYER_WIDTH - 1) * (i % 2));
      000980 7E                    2524 	ld	a,(hl)
      000981 FE 04                 2525 	cp	a,#0x04
      000983 D2r69r14              2526 	jp	NC,00169$
      000986 2B                    2527 	dec	hl
      000987 2B                    2528 	dec	hl
      000988 E6 01                 2529 	and	a, #0x01
      00098A 77                    2530 	ld	(hl), a
      00098B 4F                    2531 	ld	c, a
      00098C 87                    2532 	add	a, a
      00098D 81                    2533 	add	a, c
      00098E 87                    2534 	add	a, a
      00098F 81                    2535 	add	a, c
      000990 F8 1C                 2536 	ldhl	sp,	#28
      000992 86                    2537 	add	a, (hl)
                                   2538 ;geometry_boy.c:391: tile_y = (player_y + (PLAYER_WIDTH - 1) * (i < 2));
      000993 22                    2539 	ld	(hl+), a
      000994 7E                    2540 	ld	a, (hl)
      000995 D6 02                 2541 	sub	a, #0x02
      000997 3E 00                 2542 	ld	a, #0x00
      000999 17                    2543 	rla
      00099A 4F                    2544 	ld	c, a
      00099B 87                    2545 	add	a, a
      00099C 81                    2546 	add	a, c
      00099D 87                    2547 	add	a, a
      00099E 81                    2548 	add	a, c
      00099F F8 1B                 2549 	ldhl	sp,	#27
      0009A1 77                    2550 	ld	(hl), a
      0009A2 3A                    2551 	ld	a, (hl-)
      0009A3 2B                    2552 	dec	hl
      0009A4 86                    2553 	add	a, (hl)
      0009A5 23                    2554 	inc	hl
      0009A6 23                    2555 	inc	hl
                                   2556 ;geometry_boy.c:349: return (y_px - YOFF) >> 3;
      0009A7 77                    2557 	ld	(hl), a
      0009A8 F8 16                 2558 	ldhl	sp,	#22
      0009AA 22                    2559 	ld	(hl+), a
      0009AB AF                    2560 	xor	a, a
      0009AC 32                    2561 	ld	(hl-), a
      0009AD 2A                    2562 	ld	a, (hl+)
      0009AE 5F                    2563 	ld	e, a
      0009AF 56                    2564 	ld	d, (hl)
      0009B0 21 10 00              2565 	ld	hl, #0x0010
      0009B3 7B                    2566 	ld	a, e
      0009B4 95                    2567 	sub	a, l
      0009B5 5F                    2568 	ld	e, a
      0009B6 7A                    2569 	ld	a, d
      0009B7 9C                    2570 	sbc	a, h
      0009B8 F8 19                 2571 	ldhl	sp,	#25
      0009BA 32                    2572 	ld	(hl-), a
      0009BB 73                    2573 	ld	(hl), e
      0009BC 7E                    2574 	ld	a, (hl)
      0009BD F8 15                 2575 	ldhl	sp,	#21
      0009BF 77                    2576 	ld	(hl), a
      0009C0 F8 19                 2577 	ldhl	sp,	#25
      0009C2 7E                    2578 	ld	a, (hl)
      0009C3 F8 16                 2579 	ldhl	sp,	#22
      0009C5 77                    2580 	ld	(hl), a
      0009C6 CB 2E                 2581 	sra	(hl)
      0009C8 2B                    2582 	dec	hl
      0009C9 CB 1E                 2583 	rr	(hl)
      0009CB 23                    2584 	inc	hl
      0009CC CB 2E                 2585 	sra	(hl)
      0009CE 2B                    2586 	dec	hl
      0009CF CB 1E                 2587 	rr	(hl)
      0009D1 23                    2588 	inc	hl
      0009D2 CB 2E                 2589 	sra	(hl)
      0009D4 2B                    2590 	dec	hl
      0009D5 CB 1E                 2591 	rr	(hl)
      0009D7 7E                    2592 	ld	a, (hl)
      0009D8 F8 18                 2593 	ldhl	sp,	#24
      0009DA 77                    2594 	ld	(hl), a
                                   2595 ;geometry_boy.c:355: x_px_to_tile_ind(x_px + background_x_shift),
      0009DB F8 1C                 2596 	ldhl	sp,	#28
      0009DD 3A                    2597 	ld	a, (hl-)
      0009DE 2B                    2598 	dec	hl
      0009DF 86                    2599 	add	a, (hl)
                                   2600 ;geometry_boy.c:344: return (x_px - XOFF) >> 3; // >> 3 is the same as /8
      0009E0 77                    2601 	ld	(hl), a
      0009E1 F8 16                 2602 	ldhl	sp,	#22
      0009E3 22                    2603 	ld	(hl+), a
      0009E4 AF                    2604 	xor	a, a
      0009E5 32                    2605 	ld	(hl-), a
      0009E6 2A                    2606 	ld	a, (hl+)
      0009E7 5F                    2607 	ld	e, a
      0009E8 56                    2608 	ld	d, (hl)
      0009E9 21 08 00              2609 	ld	hl, #0x0008
      0009EC 7B                    2610 	ld	a, e
      0009ED 95                    2611 	sub	a, l
      0009EE 5F                    2612 	ld	e, a
      0009EF 7A                    2613 	ld	a, d
      0009F0 9C                    2614 	sbc	a, h
      0009F1 F8 1A                 2615 	ldhl	sp,	#26
      0009F3 32                    2616 	ld	(hl-), a
      0009F4 7B                    2617 	ld	a, e
      0009F5 22                    2618 	ld	(hl+), a
      0009F6 CB 2E                 2619 	sra	(hl)
      0009F8 2B                    2620 	dec	hl
      0009F9 CB 1E                 2621 	rr	(hl)
      0009FB 23                    2622 	inc	hl
      0009FC CB 2E                 2623 	sra	(hl)
      0009FE 2B                    2624 	dec	hl
      0009FF CB 1E                 2625 	rr	(hl)
      000A01 23                    2626 	inc	hl
      000A02 CB 2E                 2627 	sra	(hl)
      000A04 2B                    2628 	dec	hl
      000A05 CB 1E                 2629 	rr	(hl)
                                   2630 ;geometry_boy.c:355: x_px_to_tile_ind(x_px + background_x_shift),
      000A07 3A                    2631 	ld	a, (hl-)
      000A08 66                    2632 	ld	h, (hl)
                                   2633 ;	spillPairReg hl
                                   2634 ;	spillPairReg hl
      000A09 E5                    2635 	push	hl
      000A0A 33                    2636 	inc	sp
      000A0B F5                    2637 	push	af
      000A0C 33                    2638 	inc	sp
      000A0D CDr00r00              2639 	call	_get_bkg_tile_xy
      000A10 E1                    2640 	pop	hl
      000A11 F8 04                 2641 	ldhl	sp,	#4
      000A13 73                    2642 	ld	(hl), e
                                   2643 ;geometry_boy.c:393: tile_x = tile_x & 0xF8; // divide by 8 then multiply by 8
      000A14 F8 1C                 2644 	ldhl	sp,	#28
      000A16 7E                    2645 	ld	a, (hl)
      000A17 E6 F8                 2646 	and	a, #0xf8
                                   2647 ;geometry_boy.c:394: tile_y = tile_y & 0xF8;
      000A19 32                    2648 	ld	(hl-), a
      000A1A 3A                    2649 	ld	a, (hl-)
      000A1B E6 F8                 2650 	and	a, #0xf8
                                   2651 ;geometry_boy.c:400: rect_collision_with_player(tile_x, tile_x + 7, tile_y + 7, tile_y + 7) ||
      000A1D 77                    2652 	ld	(hl), a
      000A1E F8 05                 2653 	ldhl	sp,	#5
      000A20 77                    2654 	ld	(hl), a
      000A21 F8 1C                 2655 	ldhl	sp,	#28
      000A23 7E                    2656 	ld	a, (hl)
      000A24 F8 19                 2657 	ldhl	sp,	#25
      000A26 77                    2658 	ld	(hl), a
                                   2659 ;geometry_boy.c:378: player_x + PLAYER_WIDTH - 1 >= x_left &&
      000A27 FAr03r00              2660 	ld	a, (#_player_x)
      000A2A F8 06                 2661 	ldhl	sp,	#6
      000A2C 22                    2662 	ld	(hl+), a
      000A2D 36 00                 2663 	ld	(hl), #0x00
      000A2F F8 1C                 2664 	ldhl	sp,	#28
      000A31 3A                    2665 	ld	a, (hl-)
      000A32 22                    2666 	ld	(hl+), a
      000A33 36 00                 2667 	ld	(hl), #0x00
                                   2668 ;geometry_boy.c:380: player_y + PLAYER_WIDTH - 1 >= y_top);
      000A35 FAr02r00              2669 	ld	a, (#_player_y)
      000A38 F8 17                 2670 	ldhl	sp,	#23
      000A3A 22                    2671 	ld	(hl+), a
      000A3B 36 00                 2672 	ld	(hl), #0x00
                                   2673 ;geometry_boy.c:400: rect_collision_with_player(tile_x, tile_x + 7, tile_y + 7, tile_y + 7) ||
      000A3D F8 05                 2674 	ldhl	sp,	#5
      000A3F 7E                    2675 	ld	a, (hl)
      000A40 C6 07                 2676 	add	a, #0x07
      000A42 F8 08                 2677 	ldhl	sp,	#8
      000A44 77                    2678 	ld	(hl), a
      000A45 F8 19                 2679 	ldhl	sp,	#25
      000A47 7E                    2680 	ld	a, (hl)
      000A48 C6 07                 2681 	add	a, #0x07
      000A4A F8 09                 2682 	ldhl	sp,	#9
                                   2683 ;geometry_boy.c:378: player_x + PLAYER_WIDTH - 1 >= x_left &&
      000A4C 32                    2684 	ld	(hl-), a
      000A4D 2B                    2685 	dec	hl
      000A4E 2B                    2686 	dec	hl
      000A4F 2A                    2687 	ld	a, (hl+)
      000A50 5F                    2688 	ld	e, a
      000A51 56                    2689 	ld	d, (hl)
      000A52 21 07 00              2690 	ld	hl, #0x0007
      000A55 19                    2691 	add	hl, de
      000A56 E5                    2692 	push	hl
      000A57 7D                    2693 	ld	a, l
      000A58 F8 0C                 2694 	ldhl	sp,	#12
      000A5A 77                    2695 	ld	(hl), a
      000A5B E1                    2696 	pop	hl
      000A5C 7C                    2697 	ld	a, h
      000A5D F8 0B                 2698 	ldhl	sp,	#11
      000A5F 77                    2699 	ld	(hl), a
                                   2700 ;geometry_boy.c:380: player_y + PLAYER_WIDTH - 1 >= y_top);
      000A60 F8 17                 2701 	ldhl	sp,#23
      000A62 2A                    2702 	ld	a, (hl+)
      000A63 5F                    2703 	ld	e, a
      000A64 56                    2704 	ld	d, (hl)
      000A65 21 07 00              2705 	ld	hl, #0x0007
      000A68 19                    2706 	add	hl, de
      000A69 E5                    2707 	push	hl
      000A6A 7D                    2708 	ld	a, l
      000A6B F8 0E                 2709 	ldhl	sp,	#14
      000A6D 77                    2710 	ld	(hl), a
      000A6E E1                    2711 	pop	hl
      000A6F 7C                    2712 	ld	a, h
      000A70 F8 0D                 2713 	ldhl	sp,	#13
      000A72 77                    2714 	ld	(hl), a
                                   2715 ;geometry_boy.c:401: rect_collision_with_player(tile_x + 1, tile_x + 6, tile_y + 6, tile_y + 6) ||
      000A73 F8 05                 2716 	ldhl	sp,	#5
      000A75 7E                    2717 	ld	a, (hl)
      000A76 C6 06                 2718 	add	a, #0x06
      000A78 F8 0E                 2719 	ldhl	sp,	#14
      000A7A 77                    2720 	ld	(hl), a
      000A7B F8 19                 2721 	ldhl	sp,	#25
      000A7D 7E                    2722 	ld	a, (hl)
      000A7E C6 06                 2723 	add	a, #0x06
      000A80 F8 0F                 2724 	ldhl	sp,	#15
      000A82 77                    2725 	ld	(hl), a
      000A83 F8 19                 2726 	ldhl	sp,	#25
      000A85 7E                    2727 	ld	a, (hl)
      000A86 3C                    2728 	inc	a
      000A87 F8 10                 2729 	ldhl	sp,	#16
      000A89 77                    2730 	ld	(hl), a
                                   2731 ;geometry_boy.c:402: rect_collision_with_player(tile_x +2, tile_x + 5, tile_y + 5, tile_y + 5) ||
      000A8A F8 05                 2732 	ldhl	sp,	#5
      000A8C 7E                    2733 	ld	a, (hl)
      000A8D C6 05                 2734 	add	a, #0x05
      000A8F F8 11                 2735 	ldhl	sp,	#17
      000A91 77                    2736 	ld	(hl), a
      000A92 F8 19                 2737 	ldhl	sp,	#25
      000A94 7E                    2738 	ld	a, (hl)
      000A95 C6 05                 2739 	add	a, #0x05
      000A97 F8 12                 2740 	ldhl	sp,	#18
      000A99 77                    2741 	ld	(hl), a
      000A9A F8 19                 2742 	ldhl	sp,	#25
      000A9C 7E                    2743 	ld	a, (hl)
      000A9D C6 02                 2744 	add	a, #0x02
      000A9F F8 13                 2745 	ldhl	sp,	#19
      000AA1 77                    2746 	ld	(hl), a
                                   2747 ;geometry_boy.c:403: rect_collision_with_player(tile_x + 3, tile_x + 4, tile_y +4, tile_y + 4)
      000AA2 F8 05                 2748 	ldhl	sp,	#5
      000AA4 7E                    2749 	ld	a, (hl)
      000AA5 C6 04                 2750 	add	a, #0x04
      000AA7 F8 14                 2751 	ldhl	sp,	#20
      000AA9 77                    2752 	ld	(hl), a
      000AAA F8 19                 2753 	ldhl	sp,	#25
      000AAC 7E                    2754 	ld	a, (hl)
      000AAD C6 04                 2755 	add	a, #0x04
      000AAF F8 15                 2756 	ldhl	sp,	#21
      000AB1 77                    2757 	ld	(hl), a
      000AB2 F8 19                 2758 	ldhl	sp,	#25
      000AB4 7E                    2759 	ld	a, (hl)
      000AB5 C6 03                 2760 	add	a, #0x03
      000AB7 F8 16                 2761 	ldhl	sp,	#22
      000AB9 77                    2762 	ld	(hl), a
                                   2763 ;geometry_boy.c:407: player_x = (player_x / 8) * 8;
      000ABA F8 07                 2764 	ldhl	sp,	#7
      000ABC 7E                    2765 	ld	a, (hl)
      000ABD 07                    2766 	rlca
      000ABE E6 01                 2767 	and	a,#0x01
      000AC0 F8 17                 2768 	ldhl	sp,	#23
      000AC2 77                    2769 	ld	(hl), a
                                   2770 ;geometry_boy.c:378: player_x + PLAYER_WIDTH - 1 >= x_left &&
      000AC3 F8 0A                 2771 	ldhl	sp,	#10
      000AC5 5D                    2772 	ld	e, l
      000AC6 54                    2773 	ld	d, h
      000AC7 F8 1B                 2774 	ldhl	sp,	#27
      000AC9 1A                    2775 	ld	a, (de)
      000ACA 13                    2776 	inc	de
      000ACB 96                    2777 	sub	a, (hl)
      000ACC 23                    2778 	inc	hl
      000ACD 1A                    2779 	ld	a, (de)
      000ACE 9E                    2780 	sbc	a, (hl)
      000ACF 1A                    2781 	ld	a, (de)
      000AD0 57                    2782 	ld	d, a
      000AD1 CB 7E                 2783 	bit	7, (hl)
      000AD3 28 07                 2784 	jr	Z, 01016$
      000AD5 CB 7A                 2785 	bit	7, d
      000AD7 20 08                 2786 	jr	NZ, 01017$
      000AD9 BF                    2787 	cp	a, a
      000ADA 18 05                 2788 	jr	01017$
      000ADC                       2789 01016$:
      000ADC CB 7A                 2790 	bit	7, d
      000ADE 28 01                 2791 	jr	Z, 01017$
      000AE0 37                    2792 	scf
      000AE1                       2793 01017$:
      000AE1 3E 00                 2794 	ld	a, #0x00
      000AE3 17                    2795 	rla
      000AE4 F8 18                 2796 	ldhl	sp,	#24
      000AE6 77                    2797 	ld	(hl), a
                                   2798 ;geometry_boy.c:396: if (tile == SMALL_SPIKE_TILE)
      000AE7 F8 04                 2799 	ldhl	sp,	#4
      000AE9 7E                    2800 	ld	a, (hl)
      000AEA D6 05                 2801 	sub	a, #0x05
      000AEC C2rFEr0C              2802 	jp	NZ,00167$
                                   2803 ;geometry_boy.c:400: rect_collision_with_player(tile_x, tile_x + 7, tile_y + 7, tile_y + 7) ||
      000AEF F8 08                 2804 	ldhl	sp,	#8
      000AF1 7E                    2805 	ld	a, (hl)
      000AF2 F8 1C                 2806 	ldhl	sp,	#28
      000AF4 77                    2807 	ld	(hl), a
      000AF5 F8 09                 2808 	ldhl	sp,	#9
      000AF7 3A                    2809 	ld	a, (hl-)
      000AF8 4F                    2810 	ld	c, a
      000AF9 7E                    2811 	ld	a, (hl)
      000AFA F8 1B                 2812 	ldhl	sp,	#27
      000AFC 77                    2813 	ld	(hl), a
                                   2814 ;geometry_boy.c:377: player_x <= x_right &&
      000AFD 79                    2815 	ld	a, c
      000AFE 21r03r00              2816 	ld	hl, #_player_x
      000B01 96                    2817 	sub	a, (hl)
      000B02 38 2E                 2818 	jr	C, 00225$
                                   2819 ;geometry_boy.c:378: player_x + PLAYER_WIDTH - 1 >= x_left &&
      000B04 F8 18                 2820 	ldhl	sp,	#24
      000B06 CB 46                 2821 	bit	0, (hl)
      000B08 20 28                 2822 	jr	NZ, 00225$
                                   2823 ;geometry_boy.c:379: player_y <= y_bot &&
      000B0A F8 1C                 2824 	ldhl	sp,	#28
      000B0C 7E                    2825 	ld	a, (hl)
      000B0D 21r02r00              2826 	ld	hl, #_player_y
      000B10 96                    2827 	sub	a, (hl)
      000B11 38 1F                 2828 	jr	C, 00225$
                                   2829 ;geometry_boy.c:380: player_y + PLAYER_WIDTH - 1 >= y_top);
      000B13 F8 1B                 2830 	ldhl	sp,	#27
      000B15 4E                    2831 	ld	c, (hl)
      000B16 06 00                 2832 	ld	b, #0x00
      000B18 F8 0C                 2833 	ldhl	sp,	#12
      000B1A 2A                    2834 	ld	a, (hl+)
      000B1B 91                    2835 	sub	a, c
      000B1C 7E                    2836 	ld	a, (hl)
      000B1D 98                    2837 	sbc	a, b
      000B1E 56                    2838 	ld	d, (hl)
      000B1F 78                    2839 	ld	a, b
      000B20 CB 7F                 2840 	bit	7,a
      000B22 28 07                 2841 	jr	Z, 01020$
      000B24 CB 7A                 2842 	bit	7, d
      000B26 20 08                 2843 	jr	NZ, 01021$
      000B28 BF                    2844 	cp	a, a
      000B29 18 05                 2845 	jr	01021$
      000B2B                       2846 01020$:
      000B2B CB 7A                 2847 	bit	7, d
      000B2D 28 01                 2848 	jr	Z, 01021$
      000B2F 37                    2849 	scf
      000B30                       2850 01021$:
      000B30 30 06                 2851 	jr	NC, 00226$
      000B32                       2852 00225$:
      000B32 F8 1C                 2853 	ldhl	sp,	#28
      000B34 36 00                 2854 	ld	(hl), #0x00
      000B36 18 04                 2855 	jr	00227$
      000B38                       2856 00226$:
      000B38 F8 1C                 2857 	ldhl	sp,	#28
      000B3A 36 01                 2858 	ld	(hl), #0x01
      000B3C                       2859 00227$:
      000B3C F8 1C                 2860 	ldhl	sp,	#28
      000B3E 7E                    2861 	ld	a, (hl)
                                   2862 ;geometry_boy.c:400: rect_collision_with_player(tile_x, tile_x + 7, tile_y + 7, tile_y + 7) ||
      000B3F B7                    2863 	or	a, a
      000B40 C2rC9r0C              2864 	jp	NZ, 00101$
                                   2865 ;geometry_boy.c:401: rect_collision_with_player(tile_x + 1, tile_x + 6, tile_y + 6, tile_y + 6) ||
      000B43 F8 0E                 2866 	ldhl	sp,	#14
      000B45 7E                    2867 	ld	a, (hl)
      000B46 F8 1B                 2868 	ldhl	sp,	#27
      000B48 77                    2869 	ld	(hl), a
      000B49 F8 0F                 2870 	ldhl	sp,	#15
      000B4B 7E                    2871 	ld	a, (hl)
      000B4C F8 1C                 2872 	ldhl	sp,	#28
      000B4E 77                    2873 	ld	(hl), a
      000B4F F8 10                 2874 	ldhl	sp,	#16
      000B51 7E                    2875 	ld	a, (hl)
      000B52 F8 1A                 2876 	ldhl	sp,	#26
      000B54 77                    2877 	ld	(hl), a
      000B55 F8 0E                 2878 	ldhl	sp,	#14
      000B57 7E                    2879 	ld	a, (hl)
      000B58 F8 19                 2880 	ldhl	sp,	#25
      000B5A 77                    2881 	ld	(hl), a
                                   2882 ;geometry_boy.c:377: player_x <= x_right &&
      000B5B F8 1C                 2883 	ldhl	sp,	#28
      000B5D 7E                    2884 	ld	a, (hl)
      000B5E 21r03r00              2885 	ld	hl, #_player_x
      000B61 96                    2886 	sub	a, (hl)
      000B62 38 50                 2887 	jr	C, 00234$
                                   2888 ;geometry_boy.c:378: player_x + PLAYER_WIDTH - 1 >= x_left &&
      000B64 F8 1A                 2889 	ldhl	sp,	#26
      000B66 7E                    2890 	ld	a, (hl)
      000B67 F8 0F                 2891 	ldhl	sp,	#15
      000B69 22                    2892 	ld	(hl+), a
      000B6A 36 00                 2893 	ld	(hl), #0x00
      000B6C F8 0A                 2894 	ldhl	sp,	#10
      000B6E 5D                    2895 	ld	e, l
      000B6F 54                    2896 	ld	d, h
      000B70 F8 0F                 2897 	ldhl	sp,	#15
      000B72 1A                    2898 	ld	a, (de)
      000B73 13                    2899 	inc	de
      000B74 96                    2900 	sub	a, (hl)
      000B75 23                    2901 	inc	hl
      000B76 1A                    2902 	ld	a, (de)
      000B77 9E                    2903 	sbc	a, (hl)
      000B78 1A                    2904 	ld	a, (de)
      000B79 57                    2905 	ld	d, a
      000B7A CB 7E                 2906 	bit	7, (hl)
      000B7C 28 07                 2907 	jr	Z, 01022$
      000B7E CB 7A                 2908 	bit	7, d
      000B80 20 08                 2909 	jr	NZ, 01023$
      000B82 BF                    2910 	cp	a, a
      000B83 18 05                 2911 	jr	01023$
      000B85                       2912 01022$:
      000B85 CB 7A                 2913 	bit	7, d
      000B87 28 01                 2914 	jr	Z, 01023$
      000B89 37                    2915 	scf
      000B8A                       2916 01023$:
      000B8A 38 28                 2917 	jr	C, 00234$
                                   2918 ;geometry_boy.c:379: player_y <= y_bot &&
      000B8C F8 1B                 2919 	ldhl	sp,	#27
      000B8E 7E                    2920 	ld	a, (hl)
      000B8F 21r02r00              2921 	ld	hl, #_player_y
      000B92 96                    2922 	sub	a, (hl)
      000B93 38 1F                 2923 	jr	C, 00234$
                                   2924 ;geometry_boy.c:380: player_y + PLAYER_WIDTH - 1 >= y_top);
      000B95 F8 19                 2925 	ldhl	sp,	#25
      000B97 4E                    2926 	ld	c, (hl)
      000B98 06 00                 2927 	ld	b, #0x00
      000B9A F8 0C                 2928 	ldhl	sp,	#12
      000B9C 2A                    2929 	ld	a, (hl+)
      000B9D 91                    2930 	sub	a, c
      000B9E 7E                    2931 	ld	a, (hl)
      000B9F 98                    2932 	sbc	a, b
      000BA0 56                    2933 	ld	d, (hl)
      000BA1 78                    2934 	ld	a, b
      000BA2 CB 7F                 2935 	bit	7,a
      000BA4 28 07                 2936 	jr	Z, 01024$
      000BA6 CB 7A                 2937 	bit	7, d
      000BA8 20 08                 2938 	jr	NZ, 01025$
      000BAA BF                    2939 	cp	a, a
      000BAB 18 05                 2940 	jr	01025$
      000BAD                       2941 01024$:
      000BAD CB 7A                 2942 	bit	7, d
      000BAF 28 01                 2943 	jr	Z, 01025$
      000BB1 37                    2944 	scf
      000BB2                       2945 01025$:
      000BB2 30 06                 2946 	jr	NC, 00235$
      000BB4                       2947 00234$:
      000BB4 F8 1C                 2948 	ldhl	sp,	#28
      000BB6 36 00                 2949 	ld	(hl), #0x00
      000BB8 18 04                 2950 	jr	00236$
      000BBA                       2951 00235$:
      000BBA F8 1C                 2952 	ldhl	sp,	#28
      000BBC 36 01                 2953 	ld	(hl), #0x01
      000BBE                       2954 00236$:
      000BBE F8 1C                 2955 	ldhl	sp,	#28
      000BC0 7E                    2956 	ld	a, (hl)
                                   2957 ;geometry_boy.c:401: rect_collision_with_player(tile_x + 1, tile_x + 6, tile_y + 6, tile_y + 6) ||
      000BC1 B7                    2958 	or	a, a
      000BC2 C2rC9r0C              2959 	jp	NZ, 00101$
                                   2960 ;geometry_boy.c:402: rect_collision_with_player(tile_x +2, tile_x + 5, tile_y + 5, tile_y + 5) ||
      000BC5 F8 11                 2961 	ldhl	sp,	#17
      000BC7 7E                    2962 	ld	a, (hl)
      000BC8 F8 1B                 2963 	ldhl	sp,	#27
      000BCA 77                    2964 	ld	(hl), a
      000BCB F8 12                 2965 	ldhl	sp,	#18
      000BCD 7E                    2966 	ld	a, (hl)
      000BCE F8 1C                 2967 	ldhl	sp,	#28
      000BD0 77                    2968 	ld	(hl), a
      000BD1 F8 13                 2969 	ldhl	sp,	#19
      000BD3 7E                    2970 	ld	a, (hl)
      000BD4 F8 1A                 2971 	ldhl	sp,	#26
      000BD6 77                    2972 	ld	(hl), a
      000BD7 F8 11                 2973 	ldhl	sp,	#17
      000BD9 7E                    2974 	ld	a, (hl)
      000BDA F8 19                 2975 	ldhl	sp,	#25
      000BDC 77                    2976 	ld	(hl), a
                                   2977 ;geometry_boy.c:377: player_x <= x_right &&
      000BDD F8 1C                 2978 	ldhl	sp,	#28
      000BDF 7E                    2979 	ld	a, (hl)
      000BE0 21r03r00              2980 	ld	hl, #_player_x
      000BE3 96                    2981 	sub	a, (hl)
      000BE4 38 50                 2982 	jr	C, 00243$
                                   2983 ;geometry_boy.c:378: player_x + PLAYER_WIDTH - 1 >= x_left &&
      000BE6 F8 1A                 2984 	ldhl	sp,	#26
      000BE8 7E                    2985 	ld	a, (hl)
      000BE9 F8 12                 2986 	ldhl	sp,	#18
      000BEB 22                    2987 	ld	(hl+), a
      000BEC 36 00                 2988 	ld	(hl), #0x00
      000BEE F8 0A                 2989 	ldhl	sp,	#10
      000BF0 5D                    2990 	ld	e, l
      000BF1 54                    2991 	ld	d, h
      000BF2 F8 12                 2992 	ldhl	sp,	#18
      000BF4 1A                    2993 	ld	a, (de)
      000BF5 13                    2994 	inc	de
      000BF6 96                    2995 	sub	a, (hl)
      000BF7 23                    2996 	inc	hl
      000BF8 1A                    2997 	ld	a, (de)
      000BF9 9E                    2998 	sbc	a, (hl)
      000BFA 1A                    2999 	ld	a, (de)
      000BFB 57                    3000 	ld	d, a
      000BFC CB 7E                 3001 	bit	7, (hl)
      000BFE 28 07                 3002 	jr	Z, 01026$
      000C00 CB 7A                 3003 	bit	7, d
      000C02 20 08                 3004 	jr	NZ, 01027$
      000C04 BF                    3005 	cp	a, a
      000C05 18 05                 3006 	jr	01027$
      000C07                       3007 01026$:
      000C07 CB 7A                 3008 	bit	7, d
      000C09 28 01                 3009 	jr	Z, 01027$
      000C0B 37                    3010 	scf
      000C0C                       3011 01027$:
      000C0C 38 28                 3012 	jr	C, 00243$
                                   3013 ;geometry_boy.c:379: player_y <= y_bot &&
      000C0E F8 1B                 3014 	ldhl	sp,	#27
      000C10 7E                    3015 	ld	a, (hl)
      000C11 21r02r00              3016 	ld	hl, #_player_y
      000C14 96                    3017 	sub	a, (hl)
      000C15 38 1F                 3018 	jr	C, 00243$
                                   3019 ;geometry_boy.c:380: player_y + PLAYER_WIDTH - 1 >= y_top);
      000C17 F8 19                 3020 	ldhl	sp,	#25
      000C19 4E                    3021 	ld	c, (hl)
      000C1A 06 00                 3022 	ld	b, #0x00
      000C1C F8 0C                 3023 	ldhl	sp,	#12
      000C1E 2A                    3024 	ld	a, (hl+)
      000C1F 91                    3025 	sub	a, c
      000C20 7E                    3026 	ld	a, (hl)
      000C21 98                    3027 	sbc	a, b
      000C22 56                    3028 	ld	d, (hl)
      000C23 78                    3029 	ld	a, b
      000C24 CB 7F                 3030 	bit	7,a
      000C26 28 07                 3031 	jr	Z, 01028$
      000C28 CB 7A                 3032 	bit	7, d
      000C2A 20 08                 3033 	jr	NZ, 01029$
      000C2C BF                    3034 	cp	a, a
      000C2D 18 05                 3035 	jr	01029$
      000C2F                       3036 01028$:
      000C2F CB 7A                 3037 	bit	7, d
      000C31 28 01                 3038 	jr	Z, 01029$
      000C33 37                    3039 	scf
      000C34                       3040 01029$:
      000C34 30 06                 3041 	jr	NC, 00244$
      000C36                       3042 00243$:
      000C36 F8 1C                 3043 	ldhl	sp,	#28
      000C38 36 00                 3044 	ld	(hl), #0x00
      000C3A 18 04                 3045 	jr	00245$
      000C3C                       3046 00244$:
      000C3C F8 1C                 3047 	ldhl	sp,	#28
      000C3E 36 01                 3048 	ld	(hl), #0x01
      000C40                       3049 00245$:
      000C40 F8 1C                 3050 	ldhl	sp,	#28
      000C42 7E                    3051 	ld	a, (hl)
                                   3052 ;geometry_boy.c:402: rect_collision_with_player(tile_x +2, tile_x + 5, tile_y + 5, tile_y + 5) ||
      000C43 B7                    3053 	or	a, a
      000C44 C2rC9r0C              3054 	jp	NZ, 00101$
                                   3055 ;geometry_boy.c:403: rect_collision_with_player(tile_x + 3, tile_x + 4, tile_y +4, tile_y + 4)
      000C47 F8 14                 3056 	ldhl	sp,	#20
      000C49 7E                    3057 	ld	a, (hl)
      000C4A F8 1B                 3058 	ldhl	sp,	#27
      000C4C 77                    3059 	ld	(hl), a
      000C4D F8 15                 3060 	ldhl	sp,	#21
      000C4F 7E                    3061 	ld	a, (hl)
      000C50 F8 1C                 3062 	ldhl	sp,	#28
      000C52 77                    3063 	ld	(hl), a
      000C53 F8 16                 3064 	ldhl	sp,	#22
      000C55 7E                    3065 	ld	a, (hl)
      000C56 F8 1A                 3066 	ldhl	sp,	#26
      000C58 77                    3067 	ld	(hl), a
      000C59 F8 14                 3068 	ldhl	sp,	#20
      000C5B 7E                    3069 	ld	a, (hl)
      000C5C F8 19                 3070 	ldhl	sp,	#25
      000C5E 77                    3071 	ld	(hl), a
                                   3072 ;geometry_boy.c:377: player_x <= x_right &&
      000C5F F8 1C                 3073 	ldhl	sp,	#28
      000C61 7E                    3074 	ld	a, (hl)
      000C62 21r03r00              3075 	ld	hl, #_player_x
      000C65 96                    3076 	sub	a, (hl)
      000C66 38 50                 3077 	jr	C, 00252$
                                   3078 ;geometry_boy.c:378: player_x + PLAYER_WIDTH - 1 >= x_left &&
      000C68 F8 1A                 3079 	ldhl	sp,	#26
      000C6A 7E                    3080 	ld	a, (hl)
      000C6B F8 15                 3081 	ldhl	sp,	#21
      000C6D 22                    3082 	ld	(hl+), a
      000C6E 36 00                 3083 	ld	(hl), #0x00
      000C70 F8 0A                 3084 	ldhl	sp,	#10
      000C72 5D                    3085 	ld	e, l
      000C73 54                    3086 	ld	d, h
      000C74 F8 15                 3087 	ldhl	sp,	#21
      000C76 1A                    3088 	ld	a, (de)
      000C77 13                    3089 	inc	de
      000C78 96                    3090 	sub	a, (hl)
      000C79 23                    3091 	inc	hl
      000C7A 1A                    3092 	ld	a, (de)
      000C7B 9E                    3093 	sbc	a, (hl)
      000C7C 1A                    3094 	ld	a, (de)
      000C7D 57                    3095 	ld	d, a
      000C7E CB 7E                 3096 	bit	7, (hl)
      000C80 28 07                 3097 	jr	Z, 01030$
      000C82 CB 7A                 3098 	bit	7, d
      000C84 20 08                 3099 	jr	NZ, 01031$
      000C86 BF                    3100 	cp	a, a
      000C87 18 05                 3101 	jr	01031$
      000C89                       3102 01030$:
      000C89 CB 7A                 3103 	bit	7, d
      000C8B 28 01                 3104 	jr	Z, 01031$
      000C8D 37                    3105 	scf
      000C8E                       3106 01031$:
      000C8E 38 28                 3107 	jr	C, 00252$
                                   3108 ;geometry_boy.c:379: player_y <= y_bot &&
      000C90 F8 1B                 3109 	ldhl	sp,	#27
      000C92 7E                    3110 	ld	a, (hl)
      000C93 21r02r00              3111 	ld	hl, #_player_y
      000C96 96                    3112 	sub	a, (hl)
      000C97 38 1F                 3113 	jr	C, 00252$
                                   3114 ;geometry_boy.c:380: player_y + PLAYER_WIDTH - 1 >= y_top);
      000C99 F8 19                 3115 	ldhl	sp,	#25
      000C9B 4E                    3116 	ld	c, (hl)
      000C9C 06 00                 3117 	ld	b, #0x00
      000C9E F8 0C                 3118 	ldhl	sp,	#12
      000CA0 2A                    3119 	ld	a, (hl+)
      000CA1 91                    3120 	sub	a, c
      000CA2 7E                    3121 	ld	a, (hl)
      000CA3 98                    3122 	sbc	a, b
      000CA4 56                    3123 	ld	d, (hl)
      000CA5 78                    3124 	ld	a, b
      000CA6 CB 7F                 3125 	bit	7,a
      000CA8 28 07                 3126 	jr	Z, 01032$
      000CAA CB 7A                 3127 	bit	7, d
      000CAC 20 08                 3128 	jr	NZ, 01033$
      000CAE BF                    3129 	cp	a, a
      000CAF 18 05                 3130 	jr	01033$
      000CB1                       3131 01032$:
      000CB1 CB 7A                 3132 	bit	7, d
      000CB3 28 01                 3133 	jr	Z, 01033$
      000CB5 37                    3134 	scf
      000CB6                       3135 01033$:
      000CB6 30 06                 3136 	jr	NC, 00253$
      000CB8                       3137 00252$:
      000CB8 F8 1C                 3138 	ldhl	sp,	#28
      000CBA 36 00                 3139 	ld	(hl), #0x00
      000CBC 18 04                 3140 	jr	00254$
      000CBE                       3141 00253$:
      000CBE F8 1C                 3142 	ldhl	sp,	#28
      000CC0 36 01                 3143 	ld	(hl), #0x01
      000CC2                       3144 00254$:
      000CC2 F8 1C                 3145 	ldhl	sp,	#28
      000CC4 7E                    3146 	ld	a, (hl)
                                   3147 ;geometry_boy.c:403: rect_collision_with_player(tile_x + 3, tile_x + 4, tile_y +4, tile_y + 4)
      000CC5 B7                    3148 	or	a, a
      000CC6 CAr63r14              3149 	jp	Z, 00222$
      000CC9                       3150 00101$:
                                   3151 ;geometry_boy.c:405: player_dx = 0;
      000CC9 21r01r00              3152 	ld	hl, #_player_dx
      000CCC 36 00                 3153 	ld	(hl), #0x00
                                   3154 ;geometry_boy.c:406: player_dy = 0;
      000CCE 21r00r00              3155 	ld	hl, #_player_dy
      000CD1 36 00                 3156 	ld	(hl), #0x00
                                   3157 ;geometry_boy.c:407: player_x = (player_x / 8) * 8;
      000CD3 F8 06                 3158 	ldhl	sp,	#6
      000CD5 2A                    3159 	ld	a, (hl+)
      000CD6 4F                    3160 	ld	c, a
      000CD7 46                    3161 	ld	b, (hl)
      000CD8 F8 17                 3162 	ldhl	sp,	#23
      000CDA 7E                    3163 	ld	a, (hl)
      000CDB B7                    3164 	or	a, a
      000CDC 28 05                 3165 	jr	Z, 00261$
      000CDE F8 0A                 3166 	ldhl	sp,	#10
      000CE0 2A                    3167 	ld	a, (hl+)
      000CE1 4F                    3168 	ld	c, a
      000CE2 46                    3169 	ld	b, (hl)
      000CE3                       3170 00261$:
      000CE3 CB 28                 3171 	sra	b
      000CE5 CB 19                 3172 	rr	c
      000CE7 CB 28                 3173 	sra	b
      000CE9 CB 19                 3174 	rr	c
      000CEB CB 28                 3175 	sra	b
      000CED CB 19                 3176 	rr	c
      000CEF 79                    3177 	ld	a, c
      000CF0 87                    3178 	add	a, a
      000CF1 87                    3179 	add	a, a
      000CF2 87                    3180 	add	a, a
      000CF3 EAr03r00              3181 	ld	(#_player_x),a
                                   3182 ;geometry_boy.c:408: lose = 1;
      000CF6 21r07r00              3183 	ld	hl, #_lose
      000CF9 36 01                 3184 	ld	(hl), #0x01
      000CFB C3r63r14              3185 	jp	00222$
      000CFE                       3186 00167$:
                                   3187 ;geometry_boy.c:349: return (y_px - YOFF) >> 3;
      000CFE F8 1A                 3188 	ldhl	sp,	#26
      000D00 4E                    3189 	ld	c, (hl)
      000D01 06 00                 3190 	ld	b, #0x00
                                   3191 ;geometry_boy.c:417: rect_collision_with_player(tile_x +2, tile_x + 5, tile_y + 2, tile_y + 3) ||
      000D03 F8 05                 3192 	ldhl	sp,	#5
      000D05 7E                    3193 	ld	a, (hl)
      000D06 C6 03                 3194 	add	a, #0x03
      000D08 F8 19                 3195 	ldhl	sp,	#25
      000D0A 77                    3196 	ld	(hl), a
      000D0B F8 05                 3197 	ldhl	sp,	#5
      000D0D 7E                    3198 	ld	a, (hl)
      000D0E C6 02                 3199 	add	a, #0x02
      000D10 F8 1A                 3200 	ldhl	sp,	#26
      000D12 77                    3201 	ld	(hl), a
                                   3202 ;geometry_boy.c:418: rect_collision_with_player(tile_x + 3, tile_x + 4, tile_y, tile_y + 1)
      000D13 F8 05                 3203 	ldhl	sp,	#5
      000D15 7E                    3204 	ld	a, (hl)
      000D16 3C                    3205 	inc	a
      000D17 F8 1B                 3206 	ldhl	sp,	#27
      000D19 77                    3207 	ld	(hl), a
                                   3208 ;geometry_boy.c:380: player_y + PLAYER_WIDTH - 1 >= y_top);
      000D1A F8 0C                 3209 	ldhl	sp,	#12
      000D1C 2A                    3210 	ld	a, (hl+)
      000D1D 91                    3211 	sub	a, c
      000D1E 7E                    3212 	ld	a, (hl)
      000D1F 98                    3213 	sbc	a, b
      000D20 56                    3214 	ld	d, (hl)
      000D21 78                    3215 	ld	a, b
      000D22 CB 7F                 3216 	bit	7,a
      000D24 28 07                 3217 	jr	Z, 01034$
      000D26 CB 7A                 3218 	bit	7, d
      000D28 20 08                 3219 	jr	NZ, 01035$
      000D2A BF                    3220 	cp	a, a
      000D2B 18 05                 3221 	jr	01035$
      000D2D                       3222 01034$:
      000D2D CB 7A                 3223 	bit	7, d
      000D2F 28 01                 3224 	jr	Z, 01035$
      000D31 37                    3225 	scf
      000D32                       3226 01035$:
      000D32 3E 00                 3227 	ld	a, #0x00
      000D34 17                    3228 	rla
      000D35 F8 1C                 3229 	ldhl	sp,	#28
      000D37 77                    3230 	ld	(hl), a
                                   3231 ;geometry_boy.c:412: else if (tile == BIG_SPIKE_TILE){
      000D38 F8 04                 3232 	ldhl	sp,	#4
      000D3A 7E                    3233 	ld	a, (hl)
      000D3B D6 04                 3234 	sub	a, #0x04
      000D3D C2rC2r0E              3235 	jp	NZ,00164$
                                   3236 ;geometry_boy.c:415: rect_collision_with_player(tile_x, tile_x + 7, tile_y + 6, tile_y + 7) ||
      000D40 F8 0E                 3237 	ldhl	sp,	#14
      000D42 4E                    3238 	ld	c, (hl)
      000D43 F8 09                 3239 	ldhl	sp,	#9
                                   3240 ;geometry_boy.c:377: player_x <= x_right &&
      000D45 7E                    3241 	ld	a, (hl)
      000D46 21r03r00              3242 	ld	hl, #_player_x
      000D49 96                    3243 	sub	a, (hl)
      000D4A 38 2B                 3244 	jr	C, 00262$
                                   3245 ;geometry_boy.c:378: player_x + PLAYER_WIDTH - 1 >= x_left &&
      000D4C F8 18                 3246 	ldhl	sp,	#24
      000D4E CB 46                 3247 	bit	0, (hl)
      000D50 20 25                 3248 	jr	NZ, 00262$
                                   3249 ;geometry_boy.c:379: player_y <= y_bot &&
      000D52 F8 08                 3250 	ldhl	sp,	#8
      000D54 7E                    3251 	ld	a, (hl)
      000D55 21r02r00              3252 	ld	hl, #_player_y
      000D58 96                    3253 	sub	a, (hl)
      000D59 38 1C                 3254 	jr	C, 00262$
                                   3255 ;geometry_boy.c:380: player_y + PLAYER_WIDTH - 1 >= y_top);
      000D5B 06 00                 3256 	ld	b, #0x00
      000D5D F8 0C                 3257 	ldhl	sp,	#12
      000D5F 2A                    3258 	ld	a, (hl+)
      000D60 91                    3259 	sub	a, c
      000D61 7E                    3260 	ld	a, (hl)
      000D62 98                    3261 	sbc	a, b
      000D63 56                    3262 	ld	d, (hl)
      000D64 78                    3263 	ld	a, b
      000D65 CB 7F                 3264 	bit	7,a
      000D67 28 07                 3265 	jr	Z, 01038$
      000D69 CB 7A                 3266 	bit	7, d
      000D6B 20 08                 3267 	jr	NZ, 01039$
      000D6D BF                    3268 	cp	a, a
      000D6E 18 05                 3269 	jr	01039$
      000D70                       3270 01038$:
      000D70 CB 7A                 3271 	bit	7, d
      000D72 28 01                 3272 	jr	Z, 01039$
      000D74 37                    3273 	scf
      000D75                       3274 01039$:
      000D75 30 03                 3275 	jr	NC, 00263$
      000D77                       3276 00262$:
      000D77 AF                    3277 	xor	a, a
      000D78 18 02                 3278 	jr	00264$
      000D7A                       3279 00263$:
      000D7A 3E 01                 3280 	ld	a, #0x01
      000D7C                       3281 00264$:
                                   3282 ;geometry_boy.c:415: rect_collision_with_player(tile_x, tile_x + 7, tile_y + 6, tile_y + 7) ||
      000D7C B7                    3283 	or	a, a
      000D7D C2r77r0E              3284 	jp	NZ, 00106$
                                   3285 ;geometry_boy.c:416: rect_collision_with_player(tile_x + 1, tile_x + 6, tile_y + 4, tile_y + 5) ||
      000D80 F8 11                 3286 	ldhl	sp,	#17
      000D82 7E                    3287 	ld	a, (hl)
      000D83 F8 18                 3288 	ldhl	sp,	#24
      000D85 77                    3289 	ld	(hl), a
      000D86 F8 0F                 3290 	ldhl	sp,	#15
      000D88 2A                    3291 	ld	a, (hl+)
      000D89 47                    3292 	ld	b, a
      000D8A 4E                    3293 	ld	c, (hl)
                                   3294 ;geometry_boy.c:377: player_x <= x_right &&
      000D8B 78                    3295 	ld	a, b
      000D8C 21r03r00              3296 	ld	hl, #_player_x
      000D8F 96                    3297 	sub	a, (hl)
      000D90 38 44                 3298 	jr	C, 00271$
                                   3299 ;geometry_boy.c:378: player_x + PLAYER_WIDTH - 1 >= x_left &&
      000D92 06 00                 3300 	ld	b, #0x00
      000D94 F8 0A                 3301 	ldhl	sp,	#10
      000D96 2A                    3302 	ld	a, (hl+)
      000D97 91                    3303 	sub	a, c
      000D98 7E                    3304 	ld	a, (hl)
      000D99 98                    3305 	sbc	a, b
      000D9A 56                    3306 	ld	d, (hl)
      000D9B 78                    3307 	ld	a, b
      000D9C CB 7F                 3308 	bit	7,a
      000D9E 28 07                 3309 	jr	Z, 01040$
      000DA0 CB 7A                 3310 	bit	7, d
      000DA2 20 08                 3311 	jr	NZ, 01041$
      000DA4 BF                    3312 	cp	a, a
      000DA5 18 05                 3313 	jr	01041$
      000DA7                       3314 01040$:
      000DA7 CB 7A                 3315 	bit	7, d
      000DA9 28 01                 3316 	jr	Z, 01041$
      000DAB 37                    3317 	scf
      000DAC                       3318 01041$:
      000DAC 38 28                 3319 	jr	C, 00271$
                                   3320 ;geometry_boy.c:379: player_y <= y_bot &&
      000DAE F8 18                 3321 	ldhl	sp,	#24
      000DB0 7E                    3322 	ld	a, (hl)
      000DB1 21r02r00              3323 	ld	hl, #_player_y
      000DB4 96                    3324 	sub	a, (hl)
      000DB5 38 1F                 3325 	jr	C, 00271$
                                   3326 ;geometry_boy.c:380: player_y + PLAYER_WIDTH - 1 >= y_top);
      000DB7 F8 14                 3327 	ldhl	sp,	#20
      000DB9 4E                    3328 	ld	c, (hl)
      000DBA 06 00                 3329 	ld	b, #0x00
      000DBC F8 0C                 3330 	ldhl	sp,	#12
      000DBE 2A                    3331 	ld	a, (hl+)
      000DBF 91                    3332 	sub	a, c
      000DC0 7E                    3333 	ld	a, (hl)
      000DC1 98                    3334 	sbc	a, b
      000DC2 56                    3335 	ld	d, (hl)
      000DC3 78                    3336 	ld	a, b
      000DC4 CB 7F                 3337 	bit	7,a
      000DC6 28 07                 3338 	jr	Z, 01042$
      000DC8 CB 7A                 3339 	bit	7, d
      000DCA 20 08                 3340 	jr	NZ, 01043$
      000DCC BF                    3341 	cp	a, a
      000DCD 18 05                 3342 	jr	01043$
      000DCF                       3343 01042$:
      000DCF CB 7A                 3344 	bit	7, d
      000DD1 28 01                 3345 	jr	Z, 01043$
      000DD3 37                    3346 	scf
      000DD4                       3347 01043$:
      000DD4 30 03                 3348 	jr	NC, 00272$
      000DD6                       3349 00271$:
      000DD6 AF                    3350 	xor	a, a
      000DD7 18 02                 3351 	jr	00273$
      000DD9                       3352 00272$:
      000DD9 3E 01                 3353 	ld	a, #0x01
      000DDB                       3354 00273$:
                                   3355 ;geometry_boy.c:416: rect_collision_with_player(tile_x + 1, tile_x + 6, tile_y + 4, tile_y + 5) ||
      000DDB B7                    3356 	or	a, a
      000DDC C2r77r0E              3357 	jp	NZ, 00106$
                                   3358 ;geometry_boy.c:417: rect_collision_with_player(tile_x +2, tile_x + 5, tile_y + 2, tile_y + 3) ||
      000DDF F8 12                 3359 	ldhl	sp,	#18
      000DE1 2A                    3360 	ld	a, (hl+)
      000DE2 47                    3361 	ld	b, a
      000DE3 4E                    3362 	ld	c, (hl)
                                   3363 ;geometry_boy.c:377: player_x <= x_right &&
      000DE4 78                    3364 	ld	a, b
      000DE5 21r03r00              3365 	ld	hl, #_player_x
      000DE8 96                    3366 	sub	a, (hl)
      000DE9 38 44                 3367 	jr	C, 00280$
                                   3368 ;geometry_boy.c:378: player_x + PLAYER_WIDTH - 1 >= x_left &&
      000DEB 06 00                 3369 	ld	b, #0x00
      000DED F8 0A                 3370 	ldhl	sp,	#10
      000DEF 2A                    3371 	ld	a, (hl+)
      000DF0 91                    3372 	sub	a, c
      000DF1 7E                    3373 	ld	a, (hl)
      000DF2 98                    3374 	sbc	a, b
      000DF3 56                    3375 	ld	d, (hl)
      000DF4 78                    3376 	ld	a, b
      000DF5 CB 7F                 3377 	bit	7,a
      000DF7 28 07                 3378 	jr	Z, 01044$
      000DF9 CB 7A                 3379 	bit	7, d
      000DFB 20 08                 3380 	jr	NZ, 01045$
      000DFD BF                    3381 	cp	a, a
      000DFE 18 05                 3382 	jr	01045$
      000E00                       3383 01044$:
      000E00 CB 7A                 3384 	bit	7, d
      000E02 28 01                 3385 	jr	Z, 01045$
      000E04 37                    3386 	scf
      000E05                       3387 01045$:
      000E05 38 28                 3388 	jr	C, 00280$
                                   3389 ;geometry_boy.c:379: player_y <= y_bot &&
      000E07 F8 19                 3390 	ldhl	sp,	#25
      000E09 7E                    3391 	ld	a, (hl)
      000E0A 21r02r00              3392 	ld	hl, #_player_y
      000E0D 96                    3393 	sub	a, (hl)
      000E0E 38 1F                 3394 	jr	C, 00280$
                                   3395 ;geometry_boy.c:380: player_y + PLAYER_WIDTH - 1 >= y_top);
      000E10 F8 1A                 3396 	ldhl	sp,	#26
      000E12 4E                    3397 	ld	c, (hl)
      000E13 06 00                 3398 	ld	b, #0x00
      000E15 F8 0C                 3399 	ldhl	sp,	#12
      000E17 2A                    3400 	ld	a, (hl+)
      000E18 91                    3401 	sub	a, c
      000E19 7E                    3402 	ld	a, (hl)
      000E1A 98                    3403 	sbc	a, b
      000E1B 56                    3404 	ld	d, (hl)
      000E1C 78                    3405 	ld	a, b
      000E1D CB 7F                 3406 	bit	7,a
      000E1F 28 07                 3407 	jr	Z, 01046$
      000E21 CB 7A                 3408 	bit	7, d
      000E23 20 08                 3409 	jr	NZ, 01047$
      000E25 BF                    3410 	cp	a, a
      000E26 18 05                 3411 	jr	01047$
      000E28                       3412 01046$:
      000E28 CB 7A                 3413 	bit	7, d
      000E2A 28 01                 3414 	jr	Z, 01047$
      000E2C 37                    3415 	scf
      000E2D                       3416 01047$:
      000E2D 30 03                 3417 	jr	NC, 00281$
      000E2F                       3418 00280$:
      000E2F AF                    3419 	xor	a, a
      000E30 18 02                 3420 	jr	00282$
      000E32                       3421 00281$:
      000E32 3E 01                 3422 	ld	a, #0x01
      000E34                       3423 00282$:
                                   3424 ;geometry_boy.c:417: rect_collision_with_player(tile_x +2, tile_x + 5, tile_y + 2, tile_y + 3) ||
      000E34 B7                    3425 	or	a, a
      000E35 20 40                 3426 	jr	NZ, 00106$
                                   3427 ;geometry_boy.c:418: rect_collision_with_player(tile_x + 3, tile_x + 4, tile_y, tile_y + 1)
      000E37 F8 15                 3428 	ldhl	sp,	#21
      000E39 2A                    3429 	ld	a, (hl+)
      000E3A 47                    3430 	ld	b, a
      000E3B 4E                    3431 	ld	c, (hl)
                                   3432 ;geometry_boy.c:377: player_x <= x_right &&
      000E3C 78                    3433 	ld	a, b
      000E3D 21r03r00              3434 	ld	hl, #_player_x
      000E40 96                    3435 	sub	a, (hl)
      000E41 38 2B                 3436 	jr	C, 00289$
                                   3437 ;geometry_boy.c:378: player_x + PLAYER_WIDTH - 1 >= x_left &&
      000E43 06 00                 3438 	ld	b, #0x00
      000E45 F8 0A                 3439 	ldhl	sp,	#10
      000E47 2A                    3440 	ld	a, (hl+)
      000E48 91                    3441 	sub	a, c
      000E49 7E                    3442 	ld	a, (hl)
      000E4A 98                    3443 	sbc	a, b
      000E4B 56                    3444 	ld	d, (hl)
      000E4C 78                    3445 	ld	a, b
      000E4D CB 7F                 3446 	bit	7,a
      000E4F 28 07                 3447 	jr	Z, 01048$
      000E51 CB 7A                 3448 	bit	7, d
      000E53 20 08                 3449 	jr	NZ, 01049$
      000E55 BF                    3450 	cp	a, a
      000E56 18 05                 3451 	jr	01049$
      000E58                       3452 01048$:
      000E58 CB 7A                 3453 	bit	7, d
      000E5A 28 01                 3454 	jr	Z, 01049$
      000E5C 37                    3455 	scf
      000E5D                       3456 01049$:
      000E5D 38 0F                 3457 	jr	C, 00289$
                                   3458 ;geometry_boy.c:379: player_y <= y_bot &&
      000E5F F8 1B                 3459 	ldhl	sp,	#27
      000E61 7E                    3460 	ld	a, (hl)
      000E62 21r02r00              3461 	ld	hl, #_player_y
      000E65 96                    3462 	sub	a, (hl)
      000E66 38 06                 3463 	jr	C, 00289$
                                   3464 ;geometry_boy.c:380: player_y + PLAYER_WIDTH - 1 >= y_top);
      000E68 F8 1C                 3465 	ldhl	sp,	#28
      000E6A CB 46                 3466 	bit	0, (hl)
      000E6C 28 03                 3467 	jr	Z, 00290$
      000E6E                       3468 00289$:
      000E6E AF                    3469 	xor	a, a
      000E6F 18 02                 3470 	jr	00291$
      000E71                       3471 00290$:
      000E71 3E 01                 3472 	ld	a, #0x01
      000E73                       3473 00291$:
                                   3474 ;geometry_boy.c:418: rect_collision_with_player(tile_x + 3, tile_x + 4, tile_y, tile_y + 1)
      000E73 B7                    3475 	or	a, a
      000E74 CAr63r14              3476 	jp	Z, 00222$
      000E77                       3477 00106$:
                                   3478 ;geometry_boy.c:420: player_dx = 0;
      000E77 21r01r00              3479 	ld	hl, #_player_dx
      000E7A 36 00                 3480 	ld	(hl), #0x00
                                   3481 ;geometry_boy.c:421: player_dy = 0;
      000E7C 21r00r00              3482 	ld	hl, #_player_dy
      000E7F 36 00                 3483 	ld	(hl), #0x00
                                   3484 ;geometry_boy.c:422: player_x = (player_x / 8) * 8;
      000E81 F8 06                 3485 	ldhl	sp,	#6
      000E83 7E                    3486 	ld	a, (hl)
      000E84 F8 1B                 3487 	ldhl	sp,	#27
      000E86 77                    3488 	ld	(hl), a
      000E87 F8 07                 3489 	ldhl	sp,	#7
      000E89 7E                    3490 	ld	a, (hl)
      000E8A F8 1C                 3491 	ldhl	sp,	#28
      000E8C 77                    3492 	ld	(hl), a
      000E8D F8 17                 3493 	ldhl	sp,	#23
      000E8F 7E                    3494 	ld	a, (hl)
      000E90 B7                    3495 	or	a, a
      000E91 28 0C                 3496 	jr	Z, 00298$
      000E93 F8 0A                 3497 	ldhl	sp,	#10
      000E95 7E                    3498 	ld	a, (hl)
      000E96 F8 1B                 3499 	ldhl	sp,	#27
      000E98 77                    3500 	ld	(hl), a
      000E99 F8 0B                 3501 	ldhl	sp,	#11
      000E9B 7E                    3502 	ld	a, (hl)
      000E9C F8 1C                 3503 	ldhl	sp,	#28
      000E9E 77                    3504 	ld	(hl), a
      000E9F                       3505 00298$:
      000E9F F8 1C                 3506 	ldhl	sp,	#28
      000EA1 CB 2E                 3507 	sra	(hl)
      000EA3 2B                    3508 	dec	hl
      000EA4 CB 1E                 3509 	rr	(hl)
      000EA6 23                    3510 	inc	hl
      000EA7 CB 2E                 3511 	sra	(hl)
      000EA9 2B                    3512 	dec	hl
      000EAA CB 1E                 3513 	rr	(hl)
      000EAC 23                    3514 	inc	hl
      000EAD CB 2E                 3515 	sra	(hl)
      000EAF 2B                    3516 	dec	hl
      000EB0 CB 1E                 3517 	rr	(hl)
      000EB2 2A                    3518 	ld	a, (hl+)
      000EB3 77                    3519 	ld	(hl), a
      000EB4 87                    3520 	add	a, a
      000EB5 87                    3521 	add	a, a
      000EB6 87                    3522 	add	a, a
      000EB7 EAr03r00              3523 	ld	(#_player_x),a
                                   3524 ;geometry_boy.c:423: lose = 1;
      000EBA 21r07r00              3525 	ld	hl, #_lose
      000EBD 36 01                 3526 	ld	(hl), #0x01
      000EBF C3r63r14              3527 	jp	00222$
      000EC2                       3528 00164$:
                                   3529 ;geometry_boy.c:427: else if (tile == INVERTED_SPIKE_TILE){
      000EC2 F8 04                 3530 	ldhl	sp,	#4
      000EC4 7E                    3531 	ld	a, (hl)
      000EC5 D6 0A                 3532 	sub	a, #0x0a
      000EC7 C2r94r10              3533 	jp	NZ,00161$
                                   3534 ;geometry_boy.c:430: rect_collision_with_player(tile_x, tile_x + 7, tile_y, tile_y + 1) ||
      000ECA F8 1B                 3535 	ldhl	sp,	#27
      000ECC 4E                    3536 	ld	c, (hl)
      000ECD F8 09                 3537 	ldhl	sp,	#9
                                   3538 ;geometry_boy.c:377: player_x <= x_right &&
      000ECF 7E                    3539 	ld	a, (hl)
      000ED0 21r03r00              3540 	ld	hl, #_player_x
      000ED3 96                    3541 	sub	a, (hl)
      000ED4 38 13                 3542 	jr	C, 00299$
                                   3543 ;geometry_boy.c:378: player_x + PLAYER_WIDTH - 1 >= x_left &&
      000ED6 F8 18                 3544 	ldhl	sp,	#24
      000ED8 CB 46                 3545 	bit	0, (hl)
      000EDA 20 0D                 3546 	jr	NZ, 00299$
                                   3547 ;geometry_boy.c:379: player_y <= y_bot &&
      000EDC 79                    3548 	ld	a, c
      000EDD 21r02r00              3549 	ld	hl, #_player_y
      000EE0 96                    3550 	sub	a, (hl)
      000EE1 38 06                 3551 	jr	C, 00299$
                                   3552 ;geometry_boy.c:380: player_y + PLAYER_WIDTH - 1 >= y_top);
      000EE3 F8 1C                 3553 	ldhl	sp,	#28
      000EE5 CB 46                 3554 	bit	0, (hl)
      000EE7 28 04                 3555 	jr	Z, 00300$
      000EE9                       3556 00299$:
      000EE9 0E 00                 3557 	ld	c, #0x00
      000EEB 18 02                 3558 	jr	00301$
      000EED                       3559 00300$:
      000EED 0E 01                 3560 	ld	c, #0x01
      000EEF                       3561 00301$:
      000EEF 79                    3562 	ld	a, c
                                   3563 ;geometry_boy.c:430: rect_collision_with_player(tile_x, tile_x + 7, tile_y, tile_y + 1) ||
      000EF0 B7                    3564 	or	a, a
      000EF1 C2r49r10              3565 	jp	NZ, 00111$
                                   3566 ;geometry_boy.c:431: rect_collision_with_player(tile_x + 1, tile_x + 6, tile_y + 2, tile_y + 3) ||
      000EF4 F8 19                 3567 	ldhl	sp,	#25
      000EF6 7E                    3568 	ld	a, (hl)
      000EF7 F8 1C                 3569 	ldhl	sp,	#28
      000EF9 32                    3570 	ld	(hl-), a
      000EFA 2B                    3571 	dec	hl
      000EFB 2A                    3572 	ld	a, (hl+)
      000EFC 77                    3573 	ld	(hl), a
      000EFD F8 0F                 3574 	ldhl	sp,	#15
      000EFF 2A                    3575 	ld	a, (hl+)
      000F00 4F                    3576 	ld	c, a
      000F01 7E                    3577 	ld	a, (hl)
      000F02 F8 1A                 3578 	ldhl	sp,	#26
      000F04 77                    3579 	ld	(hl), a
                                   3580 ;geometry_boy.c:377: player_x <= x_right &&
      000F05 79                    3581 	ld	a, c
      000F06 21r03r00              3582 	ld	hl, #_player_x
      000F09 96                    3583 	sub	a, (hl)
      000F0A 38 47                 3584 	jr	C, 00308$
                                   3585 ;geometry_boy.c:378: player_x + PLAYER_WIDTH - 1 >= x_left &&
      000F0C F8 1A                 3586 	ldhl	sp,	#26
      000F0E 4E                    3587 	ld	c, (hl)
      000F0F 06 00                 3588 	ld	b, #0x00
      000F11 F8 0A                 3589 	ldhl	sp,	#10
      000F13 2A                    3590 	ld	a, (hl+)
      000F14 91                    3591 	sub	a, c
      000F15 7E                    3592 	ld	a, (hl)
      000F16 98                    3593 	sbc	a, b
      000F17 56                    3594 	ld	d, (hl)
      000F18 78                    3595 	ld	a, b
      000F19 CB 7F                 3596 	bit	7,a
      000F1B 28 07                 3597 	jr	Z, 01052$
      000F1D CB 7A                 3598 	bit	7, d
      000F1F 20 08                 3599 	jr	NZ, 01053$
      000F21 BF                    3600 	cp	a, a
      000F22 18 05                 3601 	jr	01053$
      000F24                       3602 01052$:
      000F24 CB 7A                 3603 	bit	7, d
      000F26 28 01                 3604 	jr	Z, 01053$
      000F28 37                    3605 	scf
      000F29                       3606 01053$:
      000F29 38 28                 3607 	jr	C, 00308$
                                   3608 ;geometry_boy.c:379: player_y <= y_bot &&
      000F2B F8 1C                 3609 	ldhl	sp,	#28
      000F2D 7E                    3610 	ld	a, (hl)
      000F2E 21r02r00              3611 	ld	hl, #_player_y
      000F31 96                    3612 	sub	a, (hl)
      000F32 38 1F                 3613 	jr	C, 00308$
                                   3614 ;geometry_boy.c:380: player_y + PLAYER_WIDTH - 1 >= y_top);
      000F34 F8 1B                 3615 	ldhl	sp,	#27
      000F36 4E                    3616 	ld	c, (hl)
      000F37 06 00                 3617 	ld	b, #0x00
      000F39 F8 0C                 3618 	ldhl	sp,	#12
      000F3B 2A                    3619 	ld	a, (hl+)
      000F3C 91                    3620 	sub	a, c
      000F3D 7E                    3621 	ld	a, (hl)
      000F3E 98                    3622 	sbc	a, b
      000F3F 56                    3623 	ld	d, (hl)
      000F40 78                    3624 	ld	a, b
      000F41 CB 7F                 3625 	bit	7,a
      000F43 28 07                 3626 	jr	Z, 01054$
      000F45 CB 7A                 3627 	bit	7, d
      000F47 20 08                 3628 	jr	NZ, 01055$
      000F49 BF                    3629 	cp	a, a
      000F4A 18 05                 3630 	jr	01055$
      000F4C                       3631 01054$:
      000F4C CB 7A                 3632 	bit	7, d
      000F4E 28 01                 3633 	jr	Z, 01055$
      000F50 37                    3634 	scf
      000F51                       3635 01055$:
      000F51 30 06                 3636 	jr	NC, 00309$
      000F53                       3637 00308$:
      000F53 F8 1C                 3638 	ldhl	sp,	#28
      000F55 36 00                 3639 	ld	(hl), #0x00
      000F57 18 04                 3640 	jr	00310$
      000F59                       3641 00309$:
      000F59 F8 1C                 3642 	ldhl	sp,	#28
      000F5B 36 01                 3643 	ld	(hl), #0x01
      000F5D                       3644 00310$:
      000F5D F8 1C                 3645 	ldhl	sp,	#28
      000F5F 7E                    3646 	ld	a, (hl)
                                   3647 ;geometry_boy.c:431: rect_collision_with_player(tile_x + 1, tile_x + 6, tile_y + 2, tile_y + 3) ||
      000F60 B7                    3648 	or	a, a
      000F61 C2r49r10              3649 	jp	NZ, 00111$
                                   3650 ;geometry_boy.c:432: rect_collision_with_player(tile_x +2, tile_x + 5, tile_y + 4, tile_y + 5) ||
      000F64 F8 11                 3651 	ldhl	sp,	#17
      000F66 7E                    3652 	ld	a, (hl)
      000F67 F8 1C                 3653 	ldhl	sp,	#28
      000F69 77                    3654 	ld	(hl), a
      000F6A F8 14                 3655 	ldhl	sp,	#20
      000F6C 7E                    3656 	ld	a, (hl)
      000F6D F8 1B                 3657 	ldhl	sp,	#27
      000F6F 77                    3658 	ld	(hl), a
      000F70 F8 12                 3659 	ldhl	sp,	#18
      000F72 2A                    3660 	ld	a, (hl+)
      000F73 4F                    3661 	ld	c, a
      000F74 7E                    3662 	ld	a, (hl)
      000F75 F8 1A                 3663 	ldhl	sp,	#26
      000F77 77                    3664 	ld	(hl), a
                                   3665 ;geometry_boy.c:377: player_x <= x_right &&
      000F78 79                    3666 	ld	a, c
      000F79 21r03r00              3667 	ld	hl, #_player_x
      000F7C 96                    3668 	sub	a, (hl)
      000F7D 38 47                 3669 	jr	C, 00317$
                                   3670 ;geometry_boy.c:378: player_x + PLAYER_WIDTH - 1 >= x_left &&
      000F7F F8 1A                 3671 	ldhl	sp,	#26
      000F81 4E                    3672 	ld	c, (hl)
      000F82 06 00                 3673 	ld	b, #0x00
      000F84 F8 0A                 3674 	ldhl	sp,	#10
      000F86 2A                    3675 	ld	a, (hl+)
      000F87 91                    3676 	sub	a, c
      000F88 7E                    3677 	ld	a, (hl)
      000F89 98                    3678 	sbc	a, b
      000F8A 56                    3679 	ld	d, (hl)
      000F8B 78                    3680 	ld	a, b
      000F8C CB 7F                 3681 	bit	7,a
      000F8E 28 07                 3682 	jr	Z, 01056$
      000F90 CB 7A                 3683 	bit	7, d
      000F92 20 08                 3684 	jr	NZ, 01057$
      000F94 BF                    3685 	cp	a, a
      000F95 18 05                 3686 	jr	01057$
      000F97                       3687 01056$:
      000F97 CB 7A                 3688 	bit	7, d
      000F99 28 01                 3689 	jr	Z, 01057$
      000F9B 37                    3690 	scf
      000F9C                       3691 01057$:
      000F9C 38 28                 3692 	jr	C, 00317$
                                   3693 ;geometry_boy.c:379: player_y <= y_bot &&
      000F9E F8 1C                 3694 	ldhl	sp,	#28
      000FA0 7E                    3695 	ld	a, (hl)
      000FA1 21r02r00              3696 	ld	hl, #_player_y
      000FA4 96                    3697 	sub	a, (hl)
      000FA5 38 1F                 3698 	jr	C, 00317$
                                   3699 ;geometry_boy.c:380: player_y + PLAYER_WIDTH - 1 >= y_top);
      000FA7 F8 1B                 3700 	ldhl	sp,	#27
      000FA9 4E                    3701 	ld	c, (hl)
      000FAA 06 00                 3702 	ld	b, #0x00
      000FAC F8 0C                 3703 	ldhl	sp,	#12
      000FAE 2A                    3704 	ld	a, (hl+)
      000FAF 91                    3705 	sub	a, c
      000FB0 7E                    3706 	ld	a, (hl)
      000FB1 98                    3707 	sbc	a, b
      000FB2 56                    3708 	ld	d, (hl)
      000FB3 78                    3709 	ld	a, b
      000FB4 CB 7F                 3710 	bit	7,a
      000FB6 28 07                 3711 	jr	Z, 01058$
      000FB8 CB 7A                 3712 	bit	7, d
      000FBA 20 08                 3713 	jr	NZ, 01059$
      000FBC BF                    3714 	cp	a, a
      000FBD 18 05                 3715 	jr	01059$
      000FBF                       3716 01058$:
      000FBF CB 7A                 3717 	bit	7, d
      000FC1 28 01                 3718 	jr	Z, 01059$
      000FC3 37                    3719 	scf
      000FC4                       3720 01059$:
      000FC4 30 06                 3721 	jr	NC, 00318$
      000FC6                       3722 00317$:
      000FC6 F8 1C                 3723 	ldhl	sp,	#28
      000FC8 36 00                 3724 	ld	(hl), #0x00
      000FCA 18 04                 3725 	jr	00319$
      000FCC                       3726 00318$:
      000FCC F8 1C                 3727 	ldhl	sp,	#28
      000FCE 36 01                 3728 	ld	(hl), #0x01
      000FD0                       3729 00319$:
      000FD0 F8 1C                 3730 	ldhl	sp,	#28
      000FD2 7E                    3731 	ld	a, (hl)
                                   3732 ;geometry_boy.c:432: rect_collision_with_player(tile_x +2, tile_x + 5, tile_y + 4, tile_y + 5) ||
      000FD3 B7                    3733 	or	a, a
      000FD4 20 73                 3734 	jr	NZ, 00111$
                                   3735 ;geometry_boy.c:433: rect_collision_with_player(tile_x + 3, tile_x + 4, tile_y + 6, tile_y + 7)
      000FD6 F8 08                 3736 	ldhl	sp,	#8
      000FD8 7E                    3737 	ld	a, (hl)
      000FD9 F8 1C                 3738 	ldhl	sp,	#28
      000FDB 77                    3739 	ld	(hl), a
      000FDC F8 0E                 3740 	ldhl	sp,	#14
      000FDE 7E                    3741 	ld	a, (hl)
      000FDF F8 1B                 3742 	ldhl	sp,	#27
      000FE1 77                    3743 	ld	(hl), a
      000FE2 F8 15                 3744 	ldhl	sp,	#21
      000FE4 2A                    3745 	ld	a, (hl+)
      000FE5 4F                    3746 	ld	c, a
      000FE6 7E                    3747 	ld	a, (hl)
      000FE7 F8 1A                 3748 	ldhl	sp,	#26
      000FE9 77                    3749 	ld	(hl), a
                                   3750 ;geometry_boy.c:377: player_x <= x_right &&
      000FEA 79                    3751 	ld	a, c
      000FEB 21r03r00              3752 	ld	hl, #_player_x
      000FEE 96                    3753 	sub	a, (hl)
      000FEF 38 47                 3754 	jr	C, 00326$
                                   3755 ;geometry_boy.c:378: player_x + PLAYER_WIDTH - 1 >= x_left &&
      000FF1 F8 1A                 3756 	ldhl	sp,	#26
      000FF3 4E                    3757 	ld	c, (hl)
      000FF4 06 00                 3758 	ld	b, #0x00
      000FF6 F8 0A                 3759 	ldhl	sp,	#10
      000FF8 2A                    3760 	ld	a, (hl+)
      000FF9 91                    3761 	sub	a, c
      000FFA 7E                    3762 	ld	a, (hl)
      000FFB 98                    3763 	sbc	a, b
      000FFC 56                    3764 	ld	d, (hl)
      000FFD 78                    3765 	ld	a, b
      000FFE CB 7F                 3766 	bit	7,a
      001000 28 07                 3767 	jr	Z, 01060$
      001002 CB 7A                 3768 	bit	7, d
      001004 20 08                 3769 	jr	NZ, 01061$
      001006 BF                    3770 	cp	a, a
      001007 18 05                 3771 	jr	01061$
      001009                       3772 01060$:
      001009 CB 7A                 3773 	bit	7, d
      00100B 28 01                 3774 	jr	Z, 01061$
      00100D 37                    3775 	scf
      00100E                       3776 01061$:
      00100E 38 28                 3777 	jr	C, 00326$
                                   3778 ;geometry_boy.c:379: player_y <= y_bot &&
      001010 F8 1C                 3779 	ldhl	sp,	#28
      001012 7E                    3780 	ld	a, (hl)
      001013 21r02r00              3781 	ld	hl, #_player_y
      001016 96                    3782 	sub	a, (hl)
      001017 38 1F                 3783 	jr	C, 00326$
                                   3784 ;geometry_boy.c:380: player_y + PLAYER_WIDTH - 1 >= y_top);
      001019 F8 1B                 3785 	ldhl	sp,	#27
      00101B 4E                    3786 	ld	c, (hl)
      00101C 06 00                 3787 	ld	b, #0x00
      00101E F8 0C                 3788 	ldhl	sp,	#12
      001020 2A                    3789 	ld	a, (hl+)
      001021 91                    3790 	sub	a, c
      001022 7E                    3791 	ld	a, (hl)
      001023 98                    3792 	sbc	a, b
      001024 56                    3793 	ld	d, (hl)
      001025 78                    3794 	ld	a, b
      001026 CB 7F                 3795 	bit	7,a
      001028 28 07                 3796 	jr	Z, 01062$
      00102A CB 7A                 3797 	bit	7, d
      00102C 20 08                 3798 	jr	NZ, 01063$
      00102E BF                    3799 	cp	a, a
      00102F 18 05                 3800 	jr	01063$
      001031                       3801 01062$:
      001031 CB 7A                 3802 	bit	7, d
      001033 28 01                 3803 	jr	Z, 01063$
      001035 37                    3804 	scf
      001036                       3805 01063$:
      001036 30 06                 3806 	jr	NC, 00327$
      001038                       3807 00326$:
      001038 F8 1C                 3808 	ldhl	sp,	#28
      00103A 36 00                 3809 	ld	(hl), #0x00
      00103C 18 04                 3810 	jr	00328$
      00103E                       3811 00327$:
      00103E F8 1C                 3812 	ldhl	sp,	#28
      001040 36 01                 3813 	ld	(hl), #0x01
      001042                       3814 00328$:
      001042 F8 1C                 3815 	ldhl	sp,	#28
      001044 7E                    3816 	ld	a, (hl)
                                   3817 ;geometry_boy.c:433: rect_collision_with_player(tile_x + 3, tile_x + 4, tile_y + 6, tile_y + 7)
      001045 B7                    3818 	or	a, a
      001046 CAr63r14              3819 	jp	Z, 00222$
      001049                       3820 00111$:
                                   3821 ;geometry_boy.c:435: player_dx = 0;
      001049 21r01r00              3822 	ld	hl, #_player_dx
      00104C 36 00                 3823 	ld	(hl), #0x00
                                   3824 ;geometry_boy.c:436: player_dy = 0;
      00104E 21r00r00              3825 	ld	hl, #_player_dy
      001051 36 00                 3826 	ld	(hl), #0x00
                                   3827 ;geometry_boy.c:437: player_x = (player_x / 8) * 8;
      001053 F8 06                 3828 	ldhl	sp,	#6
      001055 7E                    3829 	ld	a, (hl)
      001056 F8 1B                 3830 	ldhl	sp,	#27
      001058 77                    3831 	ld	(hl), a
      001059 F8 07                 3832 	ldhl	sp,	#7
      00105B 7E                    3833 	ld	a, (hl)
      00105C F8 1C                 3834 	ldhl	sp,	#28
      00105E 77                    3835 	ld	(hl), a
      00105F F8 17                 3836 	ldhl	sp,	#23
      001061 7E                    3837 	ld	a, (hl)
      001062 B7                    3838 	or	a, a
      001063 28 0C                 3839 	jr	Z, 00335$
      001065 F8 0A                 3840 	ldhl	sp,	#10
      001067 7E                    3841 	ld	a, (hl)
      001068 F8 1B                 3842 	ldhl	sp,	#27
      00106A 77                    3843 	ld	(hl), a
      00106B F8 0B                 3844 	ldhl	sp,	#11
      00106D 7E                    3845 	ld	a, (hl)
      00106E F8 1C                 3846 	ldhl	sp,	#28
      001070 77                    3847 	ld	(hl), a
      001071                       3848 00335$:
      001071 F8 1C                 3849 	ldhl	sp,	#28
      001073 CB 2E                 3850 	sra	(hl)
      001075 2B                    3851 	dec	hl
      001076 CB 1E                 3852 	rr	(hl)
      001078 23                    3853 	inc	hl
      001079 CB 2E                 3854 	sra	(hl)
      00107B 2B                    3855 	dec	hl
      00107C CB 1E                 3856 	rr	(hl)
      00107E 23                    3857 	inc	hl
      00107F CB 2E                 3858 	sra	(hl)
      001081 2B                    3859 	dec	hl
      001082 CB 1E                 3860 	rr	(hl)
      001084 2A                    3861 	ld	a, (hl+)
      001085 77                    3862 	ld	(hl), a
      001086 87                    3863 	add	a, a
      001087 87                    3864 	add	a, a
      001088 87                    3865 	add	a, a
      001089 EAr03r00              3866 	ld	(#_player_x),a
                                   3867 ;geometry_boy.c:438: lose = 1;
      00108C 21r07r00              3868 	ld	hl, #_lose
      00108F 36 01                 3869 	ld	(hl), #0x01
      001091 C3r63r14              3870 	jp	00222$
      001094                       3871 00161$:
                                   3872 ;geometry_boy.c:442: else if (tile == BACK_SPIKE_TILE){
      001094 F8 04                 3873 	ldhl	sp,	#4
      001096 7E                    3874 	ld	a, (hl)
      001097 D6 0C                 3875 	sub	a, #0x0c
      001099 C2r4Br12              3876 	jp	NZ,00158$
                                   3877 ;geometry_boy.c:445: rect_collision_with_player(tile_x, tile_x + 1, tile_y + 3, tile_y + 4) ||
      00109C F8 10                 3878 	ldhl	sp,	#16
                                   3879 ;geometry_boy.c:377: player_x <= x_right &&
      00109E 7E                    3880 	ld	a, (hl)
      00109F 21r03r00              3881 	ld	hl, #_player_x
      0010A2 96                    3882 	sub	a, (hl)
      0010A3 38 2E                 3883 	jr	C, 00336$
                                   3884 ;geometry_boy.c:378: player_x + PLAYER_WIDTH - 1 >= x_left &&
      0010A5 F8 18                 3885 	ldhl	sp,	#24
      0010A7 CB 46                 3886 	bit	0, (hl)
      0010A9 20 28                 3887 	jr	NZ, 00336$
                                   3888 ;geometry_boy.c:379: player_y <= y_bot &&
      0010AB F8 14                 3889 	ldhl	sp,	#20
      0010AD 7E                    3890 	ld	a, (hl)
      0010AE 21r02r00              3891 	ld	hl, #_player_y
      0010B1 96                    3892 	sub	a, (hl)
      0010B2 38 1F                 3893 	jr	C, 00336$
                                   3894 ;geometry_boy.c:380: player_y + PLAYER_WIDTH - 1 >= y_top);
      0010B4 F8 19                 3895 	ldhl	sp,	#25
      0010B6 4E                    3896 	ld	c, (hl)
      0010B7 06 00                 3897 	ld	b, #0x00
      0010B9 F8 0C                 3898 	ldhl	sp,	#12
      0010BB 2A                    3899 	ld	a, (hl+)
      0010BC 91                    3900 	sub	a, c
      0010BD 7E                    3901 	ld	a, (hl)
      0010BE 98                    3902 	sbc	a, b
      0010BF 56                    3903 	ld	d, (hl)
      0010C0 78                    3904 	ld	a, b
      0010C1 CB 7F                 3905 	bit	7,a
      0010C3 28 07                 3906 	jr	Z, 01066$
      0010C5 CB 7A                 3907 	bit	7, d
      0010C7 20 08                 3908 	jr	NZ, 01067$
      0010C9 BF                    3909 	cp	a, a
      0010CA 18 05                 3910 	jr	01067$
      0010CC                       3911 01066$:
      0010CC CB 7A                 3912 	bit	7, d
      0010CE 28 01                 3913 	jr	Z, 01067$
      0010D0 37                    3914 	scf
      0010D1                       3915 01067$:
      0010D1 30 03                 3916 	jr	NC, 00337$
      0010D3                       3917 00336$:
      0010D3 AF                    3918 	xor	a, a
      0010D4 18 02                 3919 	jr	00338$
      0010D6                       3920 00337$:
      0010D6 3E 01                 3921 	ld	a, #0x01
      0010D8                       3922 00338$:
                                   3923 ;geometry_boy.c:445: rect_collision_with_player(tile_x, tile_x + 1, tile_y + 3, tile_y + 4) ||
      0010D8 B7                    3924 	or	a, a
      0010D9 C2r00r12              3925 	jp	NZ, 00116$
                                   3926 ;geometry_boy.c:446: rect_collision_with_player(tile_x + 2, tile_x + 3, tile_y + 2, tile_y + 5) ||
      0010DC F8 11                 3927 	ldhl	sp,	#17
      0010DE 7E                    3928 	ld	a, (hl)
      0010DF F8 19                 3929 	ldhl	sp,	#25
      0010E1 77                    3930 	ld	(hl), a
      0010E2 F8 16                 3931 	ldhl	sp,	#22
      0010E4 4E                    3932 	ld	c, (hl)
      0010E5 F8 13                 3933 	ldhl	sp,	#19
      0010E7 7E                    3934 	ld	a, (hl)
      0010E8 F8 18                 3935 	ldhl	sp,	#24
      0010EA 77                    3936 	ld	(hl), a
                                   3937 ;geometry_boy.c:377: player_x <= x_right &&
      0010EB 79                    3938 	ld	a, c
      0010EC 21r03r00              3939 	ld	hl, #_player_x
      0010EF 96                    3940 	sub	a, (hl)
      0010F0 38 47                 3941 	jr	C, 00345$
                                   3942 ;geometry_boy.c:378: player_x + PLAYER_WIDTH - 1 >= x_left &&
      0010F2 F8 18                 3943 	ldhl	sp,	#24
      0010F4 4E                    3944 	ld	c, (hl)
      0010F5 06 00                 3945 	ld	b, #0x00
      0010F7 F8 0A                 3946 	ldhl	sp,	#10
      0010F9 2A                    3947 	ld	a, (hl+)
      0010FA 91                    3948 	sub	a, c
      0010FB 7E                    3949 	ld	a, (hl)
      0010FC 98                    3950 	sbc	a, b
      0010FD 56                    3951 	ld	d, (hl)
      0010FE 78                    3952 	ld	a, b
      0010FF CB 7F                 3953 	bit	7,a
      001101 28 07                 3954 	jr	Z, 01068$
      001103 CB 7A                 3955 	bit	7, d
      001105 20 08                 3956 	jr	NZ, 01069$
      001107 BF                    3957 	cp	a, a
      001108 18 05                 3958 	jr	01069$
      00110A                       3959 01068$:
      00110A CB 7A                 3960 	bit	7, d
      00110C 28 01                 3961 	jr	Z, 01069$
      00110E 37                    3962 	scf
      00110F                       3963 01069$:
      00110F 38 28                 3964 	jr	C, 00345$
                                   3965 ;geometry_boy.c:379: player_y <= y_bot &&
      001111 F8 19                 3966 	ldhl	sp,	#25
      001113 7E                    3967 	ld	a, (hl)
      001114 21r02r00              3968 	ld	hl, #_player_y
      001117 96                    3969 	sub	a, (hl)
      001118 38 1F                 3970 	jr	C, 00345$
                                   3971 ;geometry_boy.c:380: player_y + PLAYER_WIDTH - 1 >= y_top);
      00111A F8 1A                 3972 	ldhl	sp,	#26
      00111C 4E                    3973 	ld	c, (hl)
      00111D 06 00                 3974 	ld	b, #0x00
      00111F F8 0C                 3975 	ldhl	sp,	#12
      001121 2A                    3976 	ld	a, (hl+)
      001122 91                    3977 	sub	a, c
      001123 7E                    3978 	ld	a, (hl)
      001124 98                    3979 	sbc	a, b
      001125 56                    3980 	ld	d, (hl)
      001126 78                    3981 	ld	a, b
      001127 CB 7F                 3982 	bit	7,a
      001129 28 07                 3983 	jr	Z, 01070$
      00112B CB 7A                 3984 	bit	7, d
      00112D 20 08                 3985 	jr	NZ, 01071$
      00112F BF                    3986 	cp	a, a
      001130 18 05                 3987 	jr	01071$
      001132                       3988 01070$:
      001132 CB 7A                 3989 	bit	7, d
      001134 28 01                 3990 	jr	Z, 01071$
      001136 37                    3991 	scf
      001137                       3992 01071$:
      001137 30 06                 3993 	jr	NC, 00346$
      001139                       3994 00345$:
      001139 F8 1A                 3995 	ldhl	sp,	#26
      00113B 36 00                 3996 	ld	(hl), #0x00
      00113D 18 04                 3997 	jr	00347$
      00113F                       3998 00346$:
      00113F F8 1A                 3999 	ldhl	sp,	#26
      001141 36 01                 4000 	ld	(hl), #0x01
      001143                       4001 00347$:
      001143 F8 1A                 4002 	ldhl	sp,	#26
      001145 7E                    4003 	ld	a, (hl)
                                   4004 ;geometry_boy.c:446: rect_collision_with_player(tile_x + 2, tile_x + 3, tile_y + 2, tile_y + 5) ||
      001146 B7                    4005 	or	a, a
      001147 C2r00r12              4006 	jp	NZ, 00116$
                                   4007 ;geometry_boy.c:447: rect_collision_with_player(tile_x +4, tile_x + 5, tile_y + 1, tile_y + 6) ||
      00114A F8 0E                 4008 	ldhl	sp,	#14
      00114C 7E                    4009 	ld	a, (hl)
      00114D F8 1A                 4010 	ldhl	sp,	#26
      00114F 77                    4011 	ld	(hl), a
      001150 F8 12                 4012 	ldhl	sp,	#18
      001152 4E                    4013 	ld	c, (hl)
      001153 F8 15                 4014 	ldhl	sp,	#21
      001155 7E                    4015 	ld	a, (hl)
      001156 F8 19                 4016 	ldhl	sp,	#25
      001158 77                    4017 	ld	(hl), a
                                   4018 ;geometry_boy.c:377: player_x <= x_right &&
      001159 79                    4019 	ld	a, c
      00115A 21r03r00              4020 	ld	hl, #_player_x
      00115D 96                    4021 	sub	a, (hl)
      00115E 38 47                 4022 	jr	C, 00354$
                                   4023 ;geometry_boy.c:378: player_x + PLAYER_WIDTH - 1 >= x_left &&
      001160 F8 19                 4024 	ldhl	sp,	#25
      001162 4E                    4025 	ld	c, (hl)
      001163 06 00                 4026 	ld	b, #0x00
      001165 F8 0A                 4027 	ldhl	sp,	#10
      001167 2A                    4028 	ld	a, (hl+)
      001168 91                    4029 	sub	a, c
      001169 7E                    4030 	ld	a, (hl)
      00116A 98                    4031 	sbc	a, b
      00116B 56                    4032 	ld	d, (hl)
      00116C 78                    4033 	ld	a, b
      00116D CB 7F                 4034 	bit	7,a
      00116F 28 07                 4035 	jr	Z, 01072$
      001171 CB 7A                 4036 	bit	7, d
      001173 20 08                 4037 	jr	NZ, 01073$
      001175 BF                    4038 	cp	a, a
      001176 18 05                 4039 	jr	01073$
      001178                       4040 01072$:
      001178 CB 7A                 4041 	bit	7, d
      00117A 28 01                 4042 	jr	Z, 01073$
      00117C 37                    4043 	scf
      00117D                       4044 01073$:
      00117D 38 28                 4045 	jr	C, 00354$
                                   4046 ;geometry_boy.c:379: player_y <= y_bot &&
      00117F F8 1A                 4047 	ldhl	sp,	#26
      001181 7E                    4048 	ld	a, (hl)
      001182 21r02r00              4049 	ld	hl, #_player_y
      001185 96                    4050 	sub	a, (hl)
      001186 38 1F                 4051 	jr	C, 00354$
                                   4052 ;geometry_boy.c:380: player_y + PLAYER_WIDTH - 1 >= y_top);
      001188 F8 1B                 4053 	ldhl	sp,	#27
      00118A 4E                    4054 	ld	c, (hl)
      00118B 06 00                 4055 	ld	b, #0x00
      00118D F8 0C                 4056 	ldhl	sp,	#12
      00118F 2A                    4057 	ld	a, (hl+)
      001190 91                    4058 	sub	a, c
      001191 7E                    4059 	ld	a, (hl)
      001192 98                    4060 	sbc	a, b
      001193 56                    4061 	ld	d, (hl)
      001194 78                    4062 	ld	a, b
      001195 CB 7F                 4063 	bit	7,a
      001197 28 07                 4064 	jr	Z, 01074$
      001199 CB 7A                 4065 	bit	7, d
      00119B 20 08                 4066 	jr	NZ, 01075$
      00119D BF                    4067 	cp	a, a
      00119E 18 05                 4068 	jr	01075$
      0011A0                       4069 01074$:
      0011A0 CB 7A                 4070 	bit	7, d
      0011A2 28 01                 4071 	jr	Z, 01075$
      0011A4 37                    4072 	scf
      0011A5                       4073 01075$:
      0011A5 30 06                 4074 	jr	NC, 00355$
      0011A7                       4075 00354$:
      0011A7 F8 1B                 4076 	ldhl	sp,	#27
      0011A9 36 00                 4077 	ld	(hl), #0x00
      0011AB 18 04                 4078 	jr	00356$
      0011AD                       4079 00355$:
      0011AD F8 1B                 4080 	ldhl	sp,	#27
      0011AF 36 01                 4081 	ld	(hl), #0x01
      0011B1                       4082 00356$:
      0011B1 F8 1B                 4083 	ldhl	sp,	#27
      0011B3 7E                    4084 	ld	a, (hl)
                                   4085 ;geometry_boy.c:447: rect_collision_with_player(tile_x +4, tile_x + 5, tile_y + 1, tile_y + 6) ||
      0011B4 B7                    4086 	or	a, a
      0011B5 20 49                 4087 	jr	NZ, 00116$
                                   4088 ;geometry_boy.c:448: rect_collision_with_player(tile_x + 6, tile_x + 7, tile_y, tile_y + 7)
      0011B7 F8 08                 4089 	ldhl	sp,	#8
      0011B9 7E                    4090 	ld	a, (hl)
      0011BA F8 1B                 4091 	ldhl	sp,	#27
      0011BC 77                    4092 	ld	(hl), a
      0011BD F8 09                 4093 	ldhl	sp,	#9
      0011BF 46                    4094 	ld	b, (hl)
      0011C0 F8 0F                 4095 	ldhl	sp,	#15
      0011C2 4E                    4096 	ld	c, (hl)
                                   4097 ;geometry_boy.c:377: player_x <= x_right &&
      0011C3 78                    4098 	ld	a, b
      0011C4 21r03r00              4099 	ld	hl, #_player_x
      0011C7 96                    4100 	sub	a, (hl)
      0011C8 38 2B                 4101 	jr	C, 00363$
                                   4102 ;geometry_boy.c:378: player_x + PLAYER_WIDTH - 1 >= x_left &&
      0011CA 06 00                 4103 	ld	b, #0x00
      0011CC F8 0A                 4104 	ldhl	sp,	#10
      0011CE 2A                    4105 	ld	a, (hl+)
      0011CF 91                    4106 	sub	a, c
      0011D0 7E                    4107 	ld	a, (hl)
      0011D1 98                    4108 	sbc	a, b
      0011D2 56                    4109 	ld	d, (hl)
      0011D3 78                    4110 	ld	a, b
      0011D4 CB 7F                 4111 	bit	7,a
      0011D6 28 07                 4112 	jr	Z, 01076$
      0011D8 CB 7A                 4113 	bit	7, d
      0011DA 20 08                 4114 	jr	NZ, 01077$
      0011DC BF                    4115 	cp	a, a
      0011DD 18 05                 4116 	jr	01077$
      0011DF                       4117 01076$:
      0011DF CB 7A                 4118 	bit	7, d
      0011E1 28 01                 4119 	jr	Z, 01077$
      0011E3 37                    4120 	scf
      0011E4                       4121 01077$:
      0011E4 38 0F                 4122 	jr	C, 00363$
                                   4123 ;geometry_boy.c:379: player_y <= y_bot &&
      0011E6 F8 1B                 4124 	ldhl	sp,	#27
      0011E8 7E                    4125 	ld	a, (hl)
      0011E9 21r02r00              4126 	ld	hl, #_player_y
      0011EC 96                    4127 	sub	a, (hl)
      0011ED 38 06                 4128 	jr	C, 00363$
                                   4129 ;geometry_boy.c:380: player_y + PLAYER_WIDTH - 1 >= y_top);
      0011EF F8 1C                 4130 	ldhl	sp,	#28
      0011F1 CB 46                 4131 	bit	0, (hl)
      0011F3 28 04                 4132 	jr	Z, 00364$
      0011F5                       4133 00363$:
      0011F5 0E 00                 4134 	ld	c, #0x00
      0011F7 18 02                 4135 	jr	00365$
      0011F9                       4136 00364$:
      0011F9 0E 01                 4137 	ld	c, #0x01
      0011FB                       4138 00365$:
      0011FB 79                    4139 	ld	a, c
                                   4140 ;geometry_boy.c:448: rect_collision_with_player(tile_x + 6, tile_x + 7, tile_y, tile_y + 7)
      0011FC B7                    4141 	or	a, a
      0011FD CAr63r14              4142 	jp	Z, 00222$
      001200                       4143 00116$:
                                   4144 ;geometry_boy.c:450: player_dx = 0;
      001200 21r01r00              4145 	ld	hl, #_player_dx
      001203 36 00                 4146 	ld	(hl), #0x00
                                   4147 ;geometry_boy.c:451: player_dy = 0;
      001205 21r00r00              4148 	ld	hl, #_player_dy
      001208 36 00                 4149 	ld	(hl), #0x00
                                   4150 ;geometry_boy.c:452: player_x = (player_x / 8) * 8;
      00120A F8 06                 4151 	ldhl	sp,	#6
      00120C 7E                    4152 	ld	a, (hl)
      00120D F8 1B                 4153 	ldhl	sp,	#27
      00120F 77                    4154 	ld	(hl), a
      001210 F8 07                 4155 	ldhl	sp,	#7
      001212 7E                    4156 	ld	a, (hl)
      001213 F8 1C                 4157 	ldhl	sp,	#28
      001215 77                    4158 	ld	(hl), a
      001216 F8 17                 4159 	ldhl	sp,	#23
      001218 7E                    4160 	ld	a, (hl)
      001219 B7                    4161 	or	a, a
      00121A 28 0C                 4162 	jr	Z, 00372$
      00121C F8 0A                 4163 	ldhl	sp,	#10
      00121E 7E                    4164 	ld	a, (hl)
      00121F F8 1B                 4165 	ldhl	sp,	#27
      001221 77                    4166 	ld	(hl), a
      001222 F8 0B                 4167 	ldhl	sp,	#11
      001224 7E                    4168 	ld	a, (hl)
      001225 F8 1C                 4169 	ldhl	sp,	#28
      001227 77                    4170 	ld	(hl), a
      001228                       4171 00372$:
      001228 F8 1C                 4172 	ldhl	sp,	#28
      00122A CB 2E                 4173 	sra	(hl)
      00122C 2B                    4174 	dec	hl
      00122D CB 1E                 4175 	rr	(hl)
      00122F 23                    4176 	inc	hl
      001230 CB 2E                 4177 	sra	(hl)
      001232 2B                    4178 	dec	hl
      001233 CB 1E                 4179 	rr	(hl)
      001235 23                    4180 	inc	hl
      001236 CB 2E                 4181 	sra	(hl)
      001238 2B                    4182 	dec	hl
      001239 CB 1E                 4183 	rr	(hl)
      00123B 2A                    4184 	ld	a, (hl+)
      00123C 77                    4185 	ld	(hl), a
      00123D 87                    4186 	add	a, a
      00123E 87                    4187 	add	a, a
      00123F 87                    4188 	add	a, a
      001240 EAr03r00              4189 	ld	(#_player_x),a
                                   4190 ;geometry_boy.c:453: lose = 1;
      001243 21r07r00              4191 	ld	hl, #_lose
      001246 36 01                 4192 	ld	(hl), #0x01
      001248 C3r63r14              4193 	jp	00222$
      00124B                       4194 00158$:
                                   4195 ;geometry_boy.c:467: player_y = (player_y & 0xF8) + 8; //(player_y / 8) * 8 + 8;
      00124B FAr02r00              4196 	ld	a, (#_player_y)
                                   4197 ;geometry_boy.c:474: player_x = player_x & 0xF8; //(player_x / 8) * 8;
      00124E 21r03r00              4198 	ld	hl, #_player_x
      001251 4E                    4199 	ld	c, (hl)
                                   4200 ;geometry_boy.c:467: player_y = (player_y & 0xF8) + 8; //(player_y / 8) * 8 + 8;
      001252 E6 F8                 4201 	and	a, #0xf8
                                   4202 ;geometry_boy.c:474: player_x = player_x & 0xF8; //(player_x / 8) * 8;
      001254 F5                    4203 	push	af
      001255 79                    4204 	ld	a, c
      001256 E6 F8                 4205 	and	a, #0xf8
      001258 F8 1D                 4206 	ldhl	sp,	#29
                                   4207 ;geometry_boy.c:467: player_y = (player_y & 0xF8) + 8; //(player_y / 8) * 8 + 8;
      00125A 22                    4208 	ld	(hl+), a
      00125B F1                    4209 	pop	af
      00125C C6 08                 4210 	add	a, #0x08
      00125E 77                    4211 	ld	(hl), a
                                   4212 ;geometry_boy.c:457: else if (tile == BLACK_TILE)
      00125F F8 04                 4213 	ldhl	sp,	#4
      001261 7E                    4214 	ld	a, (hl)
      001262 D6 03                 4215 	sub	a, #0x03
      001264 20 41                 4216 	jr	NZ, 00155$
                                   4217 ;geometry_boy.c:459: if (vel_y > 0)
      001266 F8 00                 4218 	ldhl	sp,	#0
      001268 7E                    4219 	ld	a, (hl)
      001269 B7                    4220 	or	a, a
      00126A 28 14                 4221 	jr	Z, 00125$
                                   4222 ;geometry_boy.c:461: player_y = player_y & 0xF8; //(player_y / 8) * 8;
      00126C 21r02r00              4223 	ld	hl, #_player_y
      00126F 7E                    4224 	ld	a, (hl)
      001270 E6 F8                 4225 	and	a, #0xf8
      001272 77                    4226 	ld	(hl), a
                                   4227 ;geometry_boy.c:462: player_dy = 0;
      001273 21r00r00              4228 	ld	hl, #_player_dy
      001276 36 00                 4229 	ld	(hl), #0x00
                                   4230 ;geometry_boy.c:463: on_ground = 1;
      001278 21r05r00              4231 	ld	hl, #_on_ground
      00127B 36 01                 4232 	ld	(hl), #0x01
      00127D C3r63r14              4233 	jp	00222$
      001280                       4234 00125$:
                                   4235 ;geometry_boy.c:465: else if (vel_y < 0)
      001280 F8 01                 4236 	ldhl	sp,	#1
      001282 7E                    4237 	ld	a, (hl)
      001283 B7                    4238 	or	a, a
      001284 28 09                 4239 	jr	Z, 00122$
                                   4240 ;geometry_boy.c:467: player_y = (player_y & 0xF8) + 8; //(player_y / 8) * 8 + 8;
      001286 F8 1C                 4241 	ldhl	sp,	#28
      001288 7E                    4242 	ld	a, (hl)
      001289 EAr02r00              4243 	ld	(#_player_y),a
      00128C C3r63r14              4244 	jp	00222$
      00128F                       4245 00122$:
                                   4246 ;geometry_boy.c:472: player_dx = 0;
      00128F 21r01r00              4247 	ld	hl, #_player_dx
      001292 36 00                 4248 	ld	(hl), #0x00
                                   4249 ;geometry_boy.c:473: player_dy = 0;
      001294 21r00r00              4250 	ld	hl, #_player_dy
      001297 36 00                 4251 	ld	(hl), #0x00
                                   4252 ;geometry_boy.c:474: player_x = player_x & 0xF8; //(player_x / 8) * 8;
      001299 F8 1B                 4253 	ldhl	sp,	#27
      00129B 7E                    4254 	ld	a, (hl)
      00129C EAr03r00              4255 	ld	(#_player_x),a
                                   4256 ;geometry_boy.c:475: lose = 1;
      00129F 21r07r00              4257 	ld	hl, #_lose
      0012A2 36 01                 4258 	ld	(hl), #0x01
      0012A4 C3r63r14              4259 	jp	00222$
      0012A7                       4260 00155$:
                                   4261 ;geometry_boy.c:479: else if (tile == HALF_BLOCK_TILE)
      0012A7 F8 04                 4262 	ldhl	sp,	#4
      0012A9 7E                    4263 	ld	a, (hl)
      0012AA D6 08                 4264 	sub	a, #0x08
      0012AC C2r48r13              4265 	jp	NZ,00152$
                                   4266 ;geometry_boy.c:481: if (rect_collision_with_player(tile_x, tile_x + 7, tile_y + 4, tile_y + 7))
      0012AF F8 08                 4267 	ldhl	sp,	#8
      0012B1 7E                    4268 	ld	a, (hl)
      0012B2 F8 1A                 4269 	ldhl	sp,	#26
      0012B4 77                    4270 	ld	(hl), a
      0012B5 F8 14                 4271 	ldhl	sp,	#20
      0012B7 7E                    4272 	ld	a, (hl)
      0012B8 F8 19                 4273 	ldhl	sp,	#25
      0012BA 77                    4274 	ld	(hl), a
      0012BB F8 09                 4275 	ldhl	sp,	#9
                                   4276 ;geometry_boy.c:377: player_x <= x_right &&
      0012BD 7E                    4277 	ld	a, (hl)
      0012BE 21r03r00              4278 	ld	hl, #_player_x
      0012C1 96                    4279 	sub	a, (hl)
      0012C2 38 37                 4280 	jr	C, 00373$
                                   4281 ;geometry_boy.c:378: player_x + PLAYER_WIDTH - 1 >= x_left &&
      0012C4 F8 18                 4282 	ldhl	sp,	#24
      0012C6 CB 46                 4283 	bit	0, (hl)
      0012C8 20 31                 4284 	jr	NZ, 00373$
                                   4285 ;geometry_boy.c:379: player_y <= y_bot &&
      0012CA 23                    4286 	inc	hl
      0012CB 23                    4287 	inc	hl
      0012CC 7E                    4288 	ld	a, (hl)
      0012CD 21r02r00              4289 	ld	hl, #_player_y
      0012D0 96                    4290 	sub	a, (hl)
      0012D1 38 28                 4291 	jr	C, 00373$
                                   4292 ;geometry_boy.c:380: player_y + PLAYER_WIDTH - 1 >= y_top);
      0012D3 F8 19                 4293 	ldhl	sp,	#25
      0012D5 7E                    4294 	ld	a, (hl)
      0012D6 F8 16                 4295 	ldhl	sp,	#22
      0012D8 22                    4296 	ld	(hl+), a
      0012D9 36 00                 4297 	ld	(hl), #0x00
      0012DB F8 0C                 4298 	ldhl	sp,	#12
      0012DD 5D                    4299 	ld	e, l
      0012DE 54                    4300 	ld	d, h
      0012DF F8 16                 4301 	ldhl	sp,	#22
      0012E1 1A                    4302 	ld	a, (de)
      0012E2 13                    4303 	inc	de
      0012E3 96                    4304 	sub	a, (hl)
      0012E4 23                    4305 	inc	hl
      0012E5 1A                    4306 	ld	a, (de)
      0012E6 9E                    4307 	sbc	a, (hl)
      0012E7 1A                    4308 	ld	a, (de)
      0012E8 57                    4309 	ld	d, a
      0012E9 CB 7E                 4310 	bit	7, (hl)
      0012EB 28 07                 4311 	jr	Z, 01082$
      0012ED CB 7A                 4312 	bit	7, d
      0012EF 20 08                 4313 	jr	NZ, 01083$
      0012F1 BF                    4314 	cp	a, a
      0012F2 18 05                 4315 	jr	01083$
      0012F4                       4316 01082$:
      0012F4 CB 7A                 4317 	bit	7, d
      0012F6 28 01                 4318 	jr	Z, 01083$
      0012F8 37                    4319 	scf
      0012F9                       4320 01083$:
      0012F9 30 04                 4321 	jr	NC, 00374$
      0012FB                       4322 00373$:
      0012FB 0E 00                 4323 	ld	c, #0x00
      0012FD 18 02                 4324 	jr	00375$
      0012FF                       4325 00374$:
      0012FF 0E 01                 4326 	ld	c, #0x01
      001301                       4327 00375$:
      001301 79                    4328 	ld	a, c
                                   4329 ;geometry_boy.c:481: if (rect_collision_with_player(tile_x, tile_x + 7, tile_y + 4, tile_y + 7))
      001302 B7                    4330 	or	a, a
      001303 CAr63r14              4331 	jp	Z, 00222$
                                   4332 ;geometry_boy.c:483: if (vel_y > 0)
      001306 F8 02                 4333 	ldhl	sp,	#2
      001308 7E                    4334 	ld	a, (hl)
      001309 B7                    4335 	or	a, a
      00130A 28 15                 4336 	jr	Z, 00131$
                                   4337 ;geometry_boy.c:485: player_y = tile_y - 4;
      00130C F8 05                 4338 	ldhl	sp,	#5
      00130E 7E                    4339 	ld	a, (hl)
      00130F C6 FC                 4340 	add	a, #0xfc
      001311 EAr02r00              4341 	ld	(#_player_y),a
                                   4342 ;geometry_boy.c:486: player_dy = 0;
      001314 21r00r00              4343 	ld	hl, #_player_dy
      001317 36 00                 4344 	ld	(hl), #0x00
                                   4345 ;geometry_boy.c:487: on_ground = 1;
      001319 21r05r00              4346 	ld	hl, #_on_ground
      00131C 36 01                 4347 	ld	(hl), #0x01
      00131E C3r63r14              4348 	jp	00222$
      001321                       4349 00131$:
                                   4350 ;geometry_boy.c:489: else if (vel_y < 0)
      001321 F8 03                 4351 	ldhl	sp,	#3
      001323 7E                    4352 	ld	a, (hl)
      001324 B7                    4353 	or	a, a
      001325 28 09                 4354 	jr	Z, 00128$
                                   4355 ;geometry_boy.c:491: player_y = (player_y & 0xF8) + 8; //(player_y / 8) * 8 + 8;
      001327 F8 1C                 4356 	ldhl	sp,	#28
      001329 7E                    4357 	ld	a, (hl)
      00132A EAr02r00              4358 	ld	(#_player_y),a
      00132D C3r63r14              4359 	jp	00222$
      001330                       4360 00128$:
                                   4361 ;geometry_boy.c:496: player_dx = 0;
      001330 21r01r00              4362 	ld	hl, #_player_dx
      001333 36 00                 4363 	ld	(hl), #0x00
                                   4364 ;geometry_boy.c:497: player_dy = 0;
      001335 21r00r00              4365 	ld	hl, #_player_dy
      001338 36 00                 4366 	ld	(hl), #0x00
                                   4367 ;geometry_boy.c:498: player_x = player_x & 0xF8; //(player_x / 8) * 8;
      00133A F8 1B                 4368 	ldhl	sp,	#27
      00133C 7E                    4369 	ld	a, (hl)
      00133D EAr03r00              4370 	ld	(#_player_x),a
                                   4371 ;geometry_boy.c:499: lose = 1;
      001340 21r07r00              4372 	ld	hl, #_lose
      001343 36 01                 4373 	ld	(hl), #0x01
      001345 C3r63r14              4374 	jp	00222$
      001348                       4375 00152$:
                                   4376 ;geometry_boy.c:504: else if (tile == JUMP_TILE_TILE)
      001348 F8 04                 4377 	ldhl	sp,	#4
      00134A 7E                    4378 	ld	a, (hl)
      00134B D6 07                 4379 	sub	a, #0x07
      00134D 20 5D                 4380 	jr	NZ, 00149$
                                   4381 ;geometry_boy.c:506: if (rect_collision_with_player(tile_x, tile_x + 7, tile_y + 6, tile_y + 7) && vel_y == 0)
      00134F F8 08                 4382 	ldhl	sp,	#8
      001351 7E                    4383 	ld	a, (hl)
      001352 F8 1C                 4384 	ldhl	sp,	#28
      001354 77                    4385 	ld	(hl), a
      001355 F8 0E                 4386 	ldhl	sp,	#14
      001357 7E                    4387 	ld	a, (hl)
      001358 F8 1B                 4388 	ldhl	sp,	#27
      00135A 77                    4389 	ld	(hl), a
      00135B F8 09                 4390 	ldhl	sp,	#9
                                   4391 ;geometry_boy.c:377: player_x <= x_right &&
      00135D 7E                    4392 	ld	a, (hl)
      00135E 21r03r00              4393 	ld	hl, #_player_x
      001361 96                    4394 	sub	a, (hl)
      001362 38 2E                 4395 	jr	C, 00382$
                                   4396 ;geometry_boy.c:378: player_x + PLAYER_WIDTH - 1 >= x_left &&
      001364 F8 18                 4397 	ldhl	sp,	#24
      001366 CB 46                 4398 	bit	0, (hl)
      001368 20 28                 4399 	jr	NZ, 00382$
                                   4400 ;geometry_boy.c:379: player_y <= y_bot &&
      00136A F8 1C                 4401 	ldhl	sp,	#28
      00136C 7E                    4402 	ld	a, (hl)
      00136D 21r02r00              4403 	ld	hl, #_player_y
      001370 96                    4404 	sub	a, (hl)
      001371 38 1F                 4405 	jr	C, 00382$
                                   4406 ;geometry_boy.c:380: player_y + PLAYER_WIDTH - 1 >= y_top);
      001373 F8 1B                 4407 	ldhl	sp,	#27
      001375 4E                    4408 	ld	c, (hl)
      001376 06 00                 4409 	ld	b, #0x00
      001378 F8 0C                 4410 	ldhl	sp,	#12
      00137A 2A                    4411 	ld	a, (hl+)
      00137B 91                    4412 	sub	a, c
      00137C 7E                    4413 	ld	a, (hl)
      00137D 98                    4414 	sbc	a, b
      00137E 56                    4415 	ld	d, (hl)
      00137F 78                    4416 	ld	a, b
      001380 CB 7F                 4417 	bit	7,a
      001382 28 07                 4418 	jr	Z, 01086$
      001384 CB 7A                 4419 	bit	7, d
      001386 20 08                 4420 	jr	NZ, 01087$
      001388 BF                    4421 	cp	a, a
      001389 18 05                 4422 	jr	01087$
      00138B                       4423 01086$:
      00138B CB 7A                 4424 	bit	7, d
      00138D 28 01                 4425 	jr	Z, 01087$
      00138F 37                    4426 	scf
      001390                       4427 01087$:
      001390 30 04                 4428 	jr	NC, 00383$
      001392                       4429 00382$:
      001392 0E 00                 4430 	ld	c, #0x00
      001394 18 02                 4431 	jr	00384$
      001396                       4432 00383$:
      001396 0E 01                 4433 	ld	c, #0x01
      001398                       4434 00384$:
      001398 79                    4435 	ld	a, c
                                   4436 ;geometry_boy.c:506: if (rect_collision_with_player(tile_x, tile_x + 7, tile_y + 6, tile_y + 7) && vel_y == 0)
      001399 B7                    4437 	or	a, a
      00139A CAr63r14              4438 	jp	Z, 00222$
      00139D F8 20                 4439 	ldhl	sp,	#32
      00139F 7E                    4440 	ld	a, (hl)
      0013A0 B7                    4441 	or	a, a
      0013A1 C2r63r14              4442 	jp	NZ, 00222$
                                   4443 ;geometry_boy.c:508: player_dy = -PLAYER_SUPER_JUMP_VEL;
      0013A4 21r00r00              4444 	ld	hl, #_player_dy
      0013A7 36 F7                 4445 	ld	(hl), #0xf7
      0013A9 C3r63r14              4446 	jp	00222$
      0013AC                       4447 00149$:
                                   4448 ;geometry_boy.c:511: else if (tile == JUMP_CIRCLE_TILE) // jump circle , hitbox is 4x4 square in center
      0013AC F8 04                 4449 	ldhl	sp,	#4
      0013AE 7E                    4450 	ld	a, (hl)
      0013AF D6 06                 4451 	sub	a, #0x06
      0013B1 20 77                 4452 	jr	NZ, 00146$
                                   4453 ;geometry_boy.c:513: if (jpad == J_UP && vel_y == 0)
      0013B3 FAr09r00              4454 	ld	a, (#_jpad)
      0013B6 D6 04                 4455 	sub	a, #0x04
      0013B8 C2r63r14              4456 	jp	NZ,00222$
      0013BB F8 20                 4457 	ldhl	sp,	#32
      0013BD 7E                    4458 	ld	a, (hl)
      0013BE B7                    4459 	or	a, a
      0013BF C2r63r14              4460 	jp	NZ, 00222$
                                   4461 ;geometry_boy.c:515: if (rect_collision_with_player(tile_x + 2, tile_x + 5, tile_y + 2, tile_y + 5))
      0013C2 F8 11                 4462 	ldhl	sp,	#17
      0013C4 7E                    4463 	ld	a, (hl)
      0013C5 F8 1C                 4464 	ldhl	sp,	#28
      0013C7 32                    4465 	ld	(hl-), a
      0013C8 2B                    4466 	dec	hl
      0013C9 2A                    4467 	ld	a, (hl+)
      0013CA 77                    4468 	ld	(hl), a
      0013CB F8 12                 4469 	ldhl	sp,	#18
      0013CD 2A                    4470 	ld	a, (hl+)
      0013CE 47                    4471 	ld	b, a
      0013CF 4E                    4472 	ld	c, (hl)
                                   4473 ;geometry_boy.c:377: player_x <= x_right &&
      0013D0 78                    4474 	ld	a, b
      0013D1 21r03r00              4475 	ld	hl, #_player_x
      0013D4 96                    4476 	sub	a, (hl)
      0013D5 38 44                 4477 	jr	C, 00391$
                                   4478 ;geometry_boy.c:378: player_x + PLAYER_WIDTH - 1 >= x_left &&
      0013D7 06 00                 4479 	ld	b, #0x00
      0013D9 F8 0A                 4480 	ldhl	sp,	#10
      0013DB 2A                    4481 	ld	a, (hl+)
      0013DC 91                    4482 	sub	a, c
      0013DD 7E                    4483 	ld	a, (hl)
      0013DE 98                    4484 	sbc	a, b
      0013DF 56                    4485 	ld	d, (hl)
      0013E0 78                    4486 	ld	a, b
      0013E1 CB 7F                 4487 	bit	7,a
      0013E3 28 07                 4488 	jr	Z, 01092$
      0013E5 CB 7A                 4489 	bit	7, d
      0013E7 20 08                 4490 	jr	NZ, 01093$
      0013E9 BF                    4491 	cp	a, a
      0013EA 18 05                 4492 	jr	01093$
      0013EC                       4493 01092$:
      0013EC CB 7A                 4494 	bit	7, d
      0013EE 28 01                 4495 	jr	Z, 01093$
      0013F0 37                    4496 	scf
      0013F1                       4497 01093$:
      0013F1 38 28                 4498 	jr	C, 00391$
                                   4499 ;geometry_boy.c:379: player_y <= y_bot &&
      0013F3 F8 1C                 4500 	ldhl	sp,	#28
      0013F5 7E                    4501 	ld	a, (hl)
      0013F6 21r02r00              4502 	ld	hl, #_player_y
      0013F9 96                    4503 	sub	a, (hl)
      0013FA 38 1F                 4504 	jr	C, 00391$
                                   4505 ;geometry_boy.c:380: player_y + PLAYER_WIDTH - 1 >= y_top);
      0013FC F8 1B                 4506 	ldhl	sp,	#27
      0013FE 4E                    4507 	ld	c, (hl)
      0013FF 06 00                 4508 	ld	b, #0x00
      001401 F8 0C                 4509 	ldhl	sp,	#12
      001403 2A                    4510 	ld	a, (hl+)
      001404 91                    4511 	sub	a, c
      001405 7E                    4512 	ld	a, (hl)
      001406 98                    4513 	sbc	a, b
      001407 56                    4514 	ld	d, (hl)
      001408 78                    4515 	ld	a, b
      001409 CB 7F                 4516 	bit	7,a
      00140B 28 07                 4517 	jr	Z, 01094$
      00140D CB 7A                 4518 	bit	7, d
      00140F 20 08                 4519 	jr	NZ, 01095$
      001411 BF                    4520 	cp	a, a
      001412 18 05                 4521 	jr	01095$
      001414                       4522 01094$:
      001414 CB 7A                 4523 	bit	7, d
      001416 28 01                 4524 	jr	Z, 01095$
      001418 37                    4525 	scf
      001419                       4526 01095$:
      001419 30 03                 4527 	jr	NC, 00392$
      00141B                       4528 00391$:
      00141B AF                    4529 	xor	a, a
      00141C 18 02                 4530 	jr	00393$
      00141E                       4531 00392$:
      00141E 3E 01                 4532 	ld	a, #0x01
      001420                       4533 00393$:
                                   4534 ;geometry_boy.c:515: if (rect_collision_with_player(tile_x + 2, tile_x + 5, tile_y + 2, tile_y + 5))
      001420 B7                    4535 	or	a, a
      001421 28 40                 4536 	jr	Z, 00222$
                                   4537 ;geometry_boy.c:517: player_dy = -PLAYER_JUMP_VEL;
      001423 21r00r00              4538 	ld	hl, #_player_dy
      001426 36 FA                 4539 	ld	(hl), #0xfa
      001428 18 39                 4540 	jr	00222$
      00142A                       4541 00146$:
                                   4542 ;geometry_boy.c:521: else if (tile == WIN_TILE){
      00142A F8 04                 4543 	ldhl	sp,	#4
      00142C 7E                    4544 	ld	a, (hl)
      00142D D6 09                 4545 	sub	a, #0x09
      00142F 20 32                 4546 	jr	NZ, 00222$
                                   4547 ;geometry_boy.c:522: player_dx = 0;
      001431 21r01r00              4548 	ld	hl, #_player_dx
      001434 36 00                 4549 	ld	(hl), #0x00
                                   4550 ;geometry_boy.c:523: player_dy = 0;
      001436 21r00r00              4551 	ld	hl, #_player_dy
      001439 36 00                 4552 	ld	(hl), #0x00
                                   4553 ;geometry_boy.c:524: player_x = (player_x / 8) * 8;
      00143B F8 06                 4554 	ldhl	sp,	#6
      00143D 2A                    4555 	ld	a, (hl+)
      00143E 4F                    4556 	ld	c, a
      00143F 46                    4557 	ld	b, (hl)
      001440 F8 17                 4558 	ldhl	sp,	#23
      001442 7E                    4559 	ld	a, (hl)
      001443 B7                    4560 	or	a, a
      001444 28 05                 4561 	jr	Z, 00400$
      001446 F8 0A                 4562 	ldhl	sp,	#10
      001448 2A                    4563 	ld	a, (hl+)
      001449 4F                    4564 	ld	c, a
      00144A 46                    4565 	ld	b, (hl)
      00144B                       4566 00400$:
      00144B CB 28                 4567 	sra	b
      00144D CB 19                 4568 	rr	c
      00144F CB 28                 4569 	sra	b
      001451 CB 19                 4570 	rr	c
      001453 CB 28                 4571 	sra	b
      001455 CB 19                 4572 	rr	c
      001457 79                    4573 	ld	a, c
      001458 87                    4574 	add	a, a
      001459 87                    4575 	add	a, a
      00145A 87                    4576 	add	a, a
      00145B EAr03r00              4577 	ld	(#_player_x),a
                                   4578 ;geometry_boy.c:525: win = 1;
      00145E 21r06r00              4579 	ld	hl, #_win
      001461 36 01                 4580 	ld	(hl), #0x01
      001463                       4581 00222$:
                                   4582 ;geometry_boy.c:388: for (uint8_t i = 0; i < 4; i++)
      001463 F8 1D                 4583 	ldhl	sp,	#29
      001465 34                    4584 	inc	(hl)
      001466 C3r6Cr09              4585 	jp	00221$
      001469                       4586 00169$:
                                   4587 ;geometry_boy.c:529: if (vel_y == 0)
      001469 F8 20                 4588 	ldhl	sp,	#32
      00146B 7E                    4589 	ld	a, (hl)
      00146C B7                    4590 	or	a, a
      00146D C2rA3r17              4591 	jp	NZ, 00223$
                                   4592 ;geometry_boy.c:531: if (get_tile_by_px(player_x + PLAYER_WIDTH - 1, player_y + PLAYER_WIDTH) == BLACK_TILE || get_tile_by_px(player_x, player_y + PLAYER_WIDTH) == BLACK_TILE)
      001470 F8 19                 4593 	ldhl	sp,	#25
      001472 7E                    4594 	ld	a, (hl)
      001473 C6 08                 4595 	add	a, #0x08
      001475 4F                    4596 	ld	c, a
      001476 F8 1C                 4597 	ldhl	sp,	#28
      001478 2A                    4598 	ld	a, (hl+)
      001479 C6 07                 4599 	add	a, #0x07
      00147B 77                    4600 	ld	(hl), a
                                   4601 ;geometry_boy.c:349: return (y_px - YOFF) >> 3;
      00147C F8 18                 4602 	ldhl	sp,	#24
      00147E 79                    4603 	ld	a, c
      00147F 22                    4604 	ld	(hl+), a
      001480 AF                    4605 	xor	a, a
      001481 32                    4606 	ld	(hl-), a
      001482 2A                    4607 	ld	a, (hl+)
      001483 5F                    4608 	ld	e, a
      001484 56                    4609 	ld	d, (hl)
      001485 21 10 00              4610 	ld	hl, #0x0010
      001488 7B                    4611 	ld	a, e
      001489 95                    4612 	sub	a, l
      00148A 5F                    4613 	ld	e, a
      00148B 7A                    4614 	ld	a, d
      00148C 9C                    4615 	sbc	a, h
      00148D F8 1C                 4616 	ldhl	sp,	#28
      00148F 32                    4617 	ld	(hl-), a
      001490 7B                    4618 	ld	a, e
      001491 22                    4619 	ld	(hl+), a
      001492 CB 2E                 4620 	sra	(hl)
      001494 2B                    4621 	dec	hl
      001495 CB 1E                 4622 	rr	(hl)
      001497 23                    4623 	inc	hl
      001498 CB 2E                 4624 	sra	(hl)
      00149A 2B                    4625 	dec	hl
      00149B CB 1E                 4626 	rr	(hl)
      00149D 23                    4627 	inc	hl
      00149E CB 2E                 4628 	sra	(hl)
      0014A0 2B                    4629 	dec	hl
      0014A1 CB 1E                 4630 	rr	(hl)
      0014A3 2A                    4631 	ld	a, (hl+)
                                   4632 ;geometry_boy.c:355: x_px_to_tile_ind(x_px + background_x_shift),
      0014A4 22                    4633 	ld	(hl+), a
      0014A5 7E                    4634 	ld	a, (hl)
      0014A6 F8 1A                 4635 	ldhl	sp,	#26
      0014A8 86                    4636 	add	a, (hl)
      0014A9 F8 1D                 4637 	ldhl	sp,	#29
                                   4638 ;geometry_boy.c:344: return (x_px - XOFF) >> 3; // >> 3 is the same as /8
      0014AB 77                    4639 	ld	(hl), a
      0014AC F8 1A                 4640 	ldhl	sp,	#26
      0014AE 22                    4641 	ld	(hl+), a
      0014AF AF                    4642 	xor	a, a
      0014B0 32                    4643 	ld	(hl-), a
      0014B1 2A                    4644 	ld	a, (hl+)
      0014B2 5F                    4645 	ld	e, a
      0014B3 56                    4646 	ld	d, (hl)
      0014B4 21 08 00              4647 	ld	hl, #0x0008
      0014B7 7B                    4648 	ld	a, e
      0014B8 95                    4649 	sub	a, l
      0014B9 5F                    4650 	ld	e, a
      0014BA 7A                    4651 	ld	a, d
      0014BB 9C                    4652 	sbc	a, h
      0014BC F8 19                 4653 	ldhl	sp,	#25
      0014BE 32                    4654 	ld	(hl-), a
      0014BF 73                    4655 	ld	(hl), e
      0014C0 2A                    4656 	ld	a, (hl+)
      0014C1 23                    4657 	inc	hl
      0014C2 32                    4658 	ld	(hl-), a
      0014C3 2A                    4659 	ld	a, (hl+)
      0014C4 23                    4660 	inc	hl
      0014C5 77                    4661 	ld	(hl), a
      0014C6 CB 2E                 4662 	sra	(hl)
      0014C8 2B                    4663 	dec	hl
      0014C9 CB 1E                 4664 	rr	(hl)
      0014CB 23                    4665 	inc	hl
      0014CC CB 2E                 4666 	sra	(hl)
      0014CE 2B                    4667 	dec	hl
      0014CF CB 1E                 4668 	rr	(hl)
      0014D1 23                    4669 	inc	hl
      0014D2 CB 2E                 4670 	sra	(hl)
      0014D4 2B                    4671 	dec	hl
      0014D5 CB 1E                 4672 	rr	(hl)
      0014D7 7E                    4673 	ld	a, (hl)
      0014D8 F8 1D                 4674 	ldhl	sp,	#29
                                   4675 ;geometry_boy.c:355: x_px_to_tile_ind(x_px + background_x_shift),
      0014DA 32                    4676 	ld	(hl-), a
      0014DB 2A                    4677 	ld	a, (hl+)
      0014DC 57                    4678 	ld	d, a
      0014DD 5E                    4679 	ld	e, (hl)
      0014DE D5                    4680 	push	de
      0014DF CDr00r00              4681 	call	_get_bkg_tile_xy
      0014E2 E1                    4682 	pop	hl
      0014E3 7B                    4683 	ld	a, e
                                   4684 ;geometry_boy.c:531: if (get_tile_by_px(player_x + PLAYER_WIDTH - 1, player_y + PLAYER_WIDTH) == BLACK_TILE || get_tile_by_px(player_x, player_y + PLAYER_WIDTH) == BLACK_TILE)
      0014E4 D6 03                 4685 	sub	a, #0x03
      0014E6 CAr70r15              4686 	jp	Z,00178$
      0014E9 FAr02r00              4687 	ld	a, (#_player_y)
      0014EC C6 08                 4688 	add	a, #0x08
      0014EE 4F                    4689 	ld	c, a
      0014EF FAr03r00              4690 	ld	a, (#_player_x)
      0014F2 F8 1B                 4691 	ldhl	sp,	#27
                                   4692 ;geometry_boy.c:349: return (y_px - YOFF) >> 3;
      0014F4 32                    4693 	ld	(hl-), a
      0014F5 2B                    4694 	dec	hl
      0014F6 79                    4695 	ld	a, c
      0014F7 22                    4696 	ld	(hl+), a
      0014F8 AF                    4697 	xor	a, a
      0014F9 32                    4698 	ld	(hl-), a
      0014FA 2A                    4699 	ld	a, (hl+)
      0014FB 5F                    4700 	ld	e, a
      0014FC 56                    4701 	ld	d, (hl)
      0014FD 21 10 00              4702 	ld	hl, #0x0010
      001500 7B                    4703 	ld	a, e
      001501 95                    4704 	sub	a, l
      001502 5F                    4705 	ld	e, a
      001503 7A                    4706 	ld	a, d
      001504 9C                    4707 	sbc	a, h
      001505 F8 1D                 4708 	ldhl	sp,	#29
      001507 32                    4709 	ld	(hl-), a
      001508 73                    4710 	ld	(hl), e
      001509 7E                    4711 	ld	a, (hl)
      00150A F8 19                 4712 	ldhl	sp,	#25
      00150C 77                    4713 	ld	(hl), a
      00150D F8 1D                 4714 	ldhl	sp,	#29
      00150F 7E                    4715 	ld	a, (hl)
      001510 F8 1A                 4716 	ldhl	sp,	#26
      001512 77                    4717 	ld	(hl), a
      001513 CB 2E                 4718 	sra	(hl)
      001515 2B                    4719 	dec	hl
      001516 CB 1E                 4720 	rr	(hl)
      001518 23                    4721 	inc	hl
      001519 CB 2E                 4722 	sra	(hl)
      00151B 2B                    4723 	dec	hl
      00151C CB 1E                 4724 	rr	(hl)
      00151E 23                    4725 	inc	hl
      00151F CB 2E                 4726 	sra	(hl)
      001521 2B                    4727 	dec	hl
      001522 CB 1E                 4728 	rr	(hl)
      001524 7E                    4729 	ld	a, (hl)
      001525 F8 1C                 4730 	ldhl	sp,	#28
      001527 77                    4731 	ld	(hl), a
                                   4732 ;geometry_boy.c:355: x_px_to_tile_ind(x_px + background_x_shift),
      001528 FAr0Br00              4733 	ld	a, (#_background_x_shift)
      00152B F8 1D                 4734 	ldhl	sp,	#29
      00152D 77                    4735 	ld	(hl), a
      00152E 3A                    4736 	ld	a, (hl-)
      00152F 2B                    4737 	dec	hl
      001530 86                    4738 	add	a, (hl)
      001531 23                    4739 	inc	hl
      001532 23                    4740 	inc	hl
                                   4741 ;geometry_boy.c:344: return (x_px - XOFF) >> 3; // >> 3 is the same as /8
      001533 77                    4742 	ld	(hl), a
      001534 F8 1A                 4743 	ldhl	sp,	#26
      001536 22                    4744 	ld	(hl+), a
      001537 AF                    4745 	xor	a, a
      001538 32                    4746 	ld	(hl-), a
      001539 2A                    4747 	ld	a, (hl+)
      00153A 5F                    4748 	ld	e, a
      00153B 56                    4749 	ld	d, (hl)
      00153C 21 08 00              4750 	ld	hl, #0x0008
      00153F 7B                    4751 	ld	a, e
      001540 95                    4752 	sub	a, l
      001541 5F                    4753 	ld	e, a
      001542 7A                    4754 	ld	a, d
      001543 9C                    4755 	sbc	a, h
      001544 F8 19                 4756 	ldhl	sp,	#25
      001546 32                    4757 	ld	(hl-), a
      001547 73                    4758 	ld	(hl), e
      001548 2A                    4759 	ld	a, (hl+)
      001549 23                    4760 	inc	hl
      00154A 32                    4761 	ld	(hl-), a
      00154B 2A                    4762 	ld	a, (hl+)
      00154C 23                    4763 	inc	hl
      00154D 77                    4764 	ld	(hl), a
      00154E CB 2E                 4765 	sra	(hl)
      001550 2B                    4766 	dec	hl
      001551 CB 1E                 4767 	rr	(hl)
      001553 23                    4768 	inc	hl
      001554 CB 2E                 4769 	sra	(hl)
      001556 2B                    4770 	dec	hl
      001557 CB 1E                 4771 	rr	(hl)
      001559 23                    4772 	inc	hl
      00155A CB 2E                 4773 	sra	(hl)
      00155C 2B                    4774 	dec	hl
      00155D CB 1E                 4775 	rr	(hl)
      00155F 7E                    4776 	ld	a, (hl)
      001560 F8 1D                 4777 	ldhl	sp,	#29
                                   4778 ;geometry_boy.c:355: x_px_to_tile_ind(x_px + background_x_shift),
      001562 32                    4779 	ld	(hl-), a
      001563 2A                    4780 	ld	a, (hl+)
      001564 57                    4781 	ld	d, a
      001565 5E                    4782 	ld	e, (hl)
      001566 D5                    4783 	push	de
      001567 CDr00r00              4784 	call	_get_bkg_tile_xy
      00156A E1                    4785 	pop	hl
      00156B 7B                    4786 	ld	a, e
                                   4787 ;geometry_boy.c:531: if (get_tile_by_px(player_x + PLAYER_WIDTH - 1, player_y + PLAYER_WIDTH) == BLACK_TILE || get_tile_by_px(player_x, player_y + PLAYER_WIDTH) == BLACK_TILE)
      00156C D6 03                 4788 	sub	a, #0x03
      00156E 20 08                 4789 	jr	NZ, 00179$
      001570                       4790 00178$:
                                   4791 ;geometry_boy.c:533: on_ground = 1;
      001570 21r05r00              4792 	ld	hl, #_on_ground
      001573 36 01                 4793 	ld	(hl), #0x01
      001575 C3rA3r17              4794 	jp	00223$
      001578                       4795 00179$:
                                   4796 ;geometry_boy.c:538: if (get_tile_by_px(player_x + PLAYER_WIDTH - 1, player_y + PLAYER_WIDTH) == HALF_BLOCK_TILE || get_tile_by_px(player_x, player_y + PLAYER_WIDTH) == HALF_BLOCK_TILE)
      001578 FAr02r00              4797 	ld	a, (#_player_y)
      00157B C6 08                 4798 	add	a, #0x08
      00157D F8 1D                 4799 	ldhl	sp,	#29
      00157F 77                    4800 	ld	(hl), a
      001580 FAr03r00              4801 	ld	a, (#_player_x)
      001583 C6 07                 4802 	add	a, #0x07
      001585 F8 1B                 4803 	ldhl	sp,	#27
                                   4804 ;geometry_boy.c:349: return (y_px - YOFF) >> 3;
      001587 22                    4805 	ld	(hl+), a
      001588 23                    4806 	inc	hl
      001589 7E                    4807 	ld	a, (hl)
      00158A F8 19                 4808 	ldhl	sp,	#25
      00158C 22                    4809 	ld	(hl+), a
      00158D AF                    4810 	xor	a, a
      00158E 32                    4811 	ld	(hl-), a
      00158F 2A                    4812 	ld	a, (hl+)
      001590 5F                    4813 	ld	e, a
      001591 56                    4814 	ld	d, (hl)
      001592 21 10 00              4815 	ld	hl, #0x0010
      001595 7B                    4816 	ld	a, e
      001596 95                    4817 	sub	a, l
      001597 5F                    4818 	ld	e, a
      001598 7A                    4819 	ld	a, d
      001599 9C                    4820 	sbc	a, h
      00159A F8 1D                 4821 	ldhl	sp,	#29
      00159C 32                    4822 	ld	(hl-), a
      00159D 73                    4823 	ld	(hl), e
      00159E 7E                    4824 	ld	a, (hl)
      00159F F8 19                 4825 	ldhl	sp,	#25
      0015A1 77                    4826 	ld	(hl), a
      0015A2 F8 1D                 4827 	ldhl	sp,	#29
      0015A4 7E                    4828 	ld	a, (hl)
      0015A5 F8 1A                 4829 	ldhl	sp,	#26
      0015A7 77                    4830 	ld	(hl), a
      0015A8 CB 2E                 4831 	sra	(hl)
      0015AA 2B                    4832 	dec	hl
      0015AB CB 1E                 4833 	rr	(hl)
      0015AD 23                    4834 	inc	hl
      0015AE CB 2E                 4835 	sra	(hl)
      0015B0 2B                    4836 	dec	hl
      0015B1 CB 1E                 4837 	rr	(hl)
      0015B3 23                    4838 	inc	hl
      0015B4 CB 2E                 4839 	sra	(hl)
      0015B6 2B                    4840 	dec	hl
      0015B7 CB 1E                 4841 	rr	(hl)
      0015B9 7E                    4842 	ld	a, (hl)
      0015BA F8 1C                 4843 	ldhl	sp,	#28
      0015BC 77                    4844 	ld	(hl), a
                                   4845 ;geometry_boy.c:355: x_px_to_tile_ind(x_px + background_x_shift),
      0015BD FAr0Br00              4846 	ld	a, (#_background_x_shift)
      0015C0 F8 1D                 4847 	ldhl	sp,	#29
      0015C2 77                    4848 	ld	(hl), a
      0015C3 3A                    4849 	ld	a, (hl-)
      0015C4 2B                    4850 	dec	hl
      0015C5 86                    4851 	add	a, (hl)
      0015C6 23                    4852 	inc	hl
      0015C7 23                    4853 	inc	hl
                                   4854 ;geometry_boy.c:344: return (x_px - XOFF) >> 3; // >> 3 is the same as /8
      0015C8 77                    4855 	ld	(hl), a
      0015C9 F8 1A                 4856 	ldhl	sp,	#26
      0015CB 22                    4857 	ld	(hl+), a
      0015CC AF                    4858 	xor	a, a
      0015CD 32                    4859 	ld	(hl-), a
      0015CE 2A                    4860 	ld	a, (hl+)
      0015CF 5F                    4861 	ld	e, a
      0015D0 56                    4862 	ld	d, (hl)
      0015D1 21 08 00              4863 	ld	hl, #0x0008
      0015D4 7B                    4864 	ld	a, e
      0015D5 95                    4865 	sub	a, l
      0015D6 5F                    4866 	ld	e, a
      0015D7 7A                    4867 	ld	a, d
      0015D8 9C                    4868 	sbc	a, h
      0015D9 F8 19                 4869 	ldhl	sp,	#25
      0015DB 32                    4870 	ld	(hl-), a
      0015DC 73                    4871 	ld	(hl), e
      0015DD 2A                    4872 	ld	a, (hl+)
      0015DE 23                    4873 	inc	hl
      0015DF 32                    4874 	ld	(hl-), a
      0015E0 2A                    4875 	ld	a, (hl+)
      0015E1 23                    4876 	inc	hl
      0015E2 77                    4877 	ld	(hl), a
      0015E3 CB 2E                 4878 	sra	(hl)
      0015E5 2B                    4879 	dec	hl
      0015E6 CB 1E                 4880 	rr	(hl)
      0015E8 23                    4881 	inc	hl
      0015E9 CB 2E                 4882 	sra	(hl)
      0015EB 2B                    4883 	dec	hl
      0015EC CB 1E                 4884 	rr	(hl)
      0015EE 23                    4885 	inc	hl
      0015EF CB 2E                 4886 	sra	(hl)
      0015F1 2B                    4887 	dec	hl
      0015F2 CB 1E                 4888 	rr	(hl)
      0015F4 7E                    4889 	ld	a, (hl)
      0015F5 F8 1D                 4890 	ldhl	sp,	#29
                                   4891 ;geometry_boy.c:355: x_px_to_tile_ind(x_px + background_x_shift),
      0015F7 32                    4892 	ld	(hl-), a
      0015F8 2A                    4893 	ld	a, (hl+)
      0015F9 57                    4894 	ld	d, a
      0015FA 5E                    4895 	ld	e, (hl)
      0015FB D5                    4896 	push	de
      0015FC CDr00r00              4897 	call	_get_bkg_tile_xy
      0015FF E1                    4898 	pop	hl
      001600 7B                    4899 	ld	a, e
                                   4900 ;geometry_boy.c:538: if (get_tile_by_px(player_x + PLAYER_WIDTH - 1, player_y + PLAYER_WIDTH) == HALF_BLOCK_TILE || get_tile_by_px(player_x, player_y + PLAYER_WIDTH) == HALF_BLOCK_TILE)
      001601 D6 08                 4901 	sub	a, #0x08
      001603 CAr8Er16              4902 	jp	Z,00175$
      001606 FAr02r00              4903 	ld	a, (#_player_y)
      001609 C6 08                 4904 	add	a, #0x08
      00160B 4F                    4905 	ld	c, a
      00160C FAr03r00              4906 	ld	a, (#_player_x)
      00160F F8 1B                 4907 	ldhl	sp,	#27
                                   4908 ;geometry_boy.c:349: return (y_px - YOFF) >> 3;
      001611 32                    4909 	ld	(hl-), a
      001612 2B                    4910 	dec	hl
      001613 79                    4911 	ld	a, c
      001614 22                    4912 	ld	(hl+), a
      001615 AF                    4913 	xor	a, a
      001616 32                    4914 	ld	(hl-), a
      001617 2A                    4915 	ld	a, (hl+)
      001618 5F                    4916 	ld	e, a
      001619 56                    4917 	ld	d, (hl)
      00161A 21 10 00              4918 	ld	hl, #0x0010
      00161D 7B                    4919 	ld	a, e
      00161E 95                    4920 	sub	a, l
      00161F 5F                    4921 	ld	e, a
      001620 7A                    4922 	ld	a, d
      001621 9C                    4923 	sbc	a, h
      001622 F8 1D                 4924 	ldhl	sp,	#29
      001624 32                    4925 	ld	(hl-), a
      001625 73                    4926 	ld	(hl), e
      001626 7E                    4927 	ld	a, (hl)
      001627 F8 19                 4928 	ldhl	sp,	#25
      001629 77                    4929 	ld	(hl), a
      00162A F8 1D                 4930 	ldhl	sp,	#29
      00162C 7E                    4931 	ld	a, (hl)
      00162D F8 1A                 4932 	ldhl	sp,	#26
      00162F 77                    4933 	ld	(hl), a
      001630 CB 2E                 4934 	sra	(hl)
      001632 2B                    4935 	dec	hl
      001633 CB 1E                 4936 	rr	(hl)
      001635 23                    4937 	inc	hl
      001636 CB 2E                 4938 	sra	(hl)
      001638 2B                    4939 	dec	hl
      001639 CB 1E                 4940 	rr	(hl)
      00163B 23                    4941 	inc	hl
      00163C CB 2E                 4942 	sra	(hl)
      00163E 2B                    4943 	dec	hl
      00163F CB 1E                 4944 	rr	(hl)
      001641 7E                    4945 	ld	a, (hl)
      001642 F8 1C                 4946 	ldhl	sp,	#28
      001644 77                    4947 	ld	(hl), a
                                   4948 ;geometry_boy.c:355: x_px_to_tile_ind(x_px + background_x_shift),
      001645 FAr0Br00              4949 	ld	a, (#_background_x_shift)
      001648 F8 1D                 4950 	ldhl	sp,	#29
      00164A 77                    4951 	ld	(hl), a
      00164B 3A                    4952 	ld	a, (hl-)
      00164C 2B                    4953 	dec	hl
      00164D 86                    4954 	add	a, (hl)
      00164E 23                    4955 	inc	hl
      00164F 23                    4956 	inc	hl
                                   4957 ;geometry_boy.c:344: return (x_px - XOFF) >> 3; // >> 3 is the same as /8
      001650 77                    4958 	ld	(hl), a
      001651 F8 1A                 4959 	ldhl	sp,	#26
      001653 22                    4960 	ld	(hl+), a
      001654 AF                    4961 	xor	a, a
      001655 32                    4962 	ld	(hl-), a
      001656 2A                    4963 	ld	a, (hl+)
      001657 5F                    4964 	ld	e, a
      001658 56                    4965 	ld	d, (hl)
      001659 21 08 00              4966 	ld	hl, #0x0008
      00165C 7B                    4967 	ld	a, e
      00165D 95                    4968 	sub	a, l
      00165E 5F                    4969 	ld	e, a
      00165F 7A                    4970 	ld	a, d
      001660 9C                    4971 	sbc	a, h
      001661 F8 19                 4972 	ldhl	sp,	#25
      001663 32                    4973 	ld	(hl-), a
      001664 73                    4974 	ld	(hl), e
      001665 2A                    4975 	ld	a, (hl+)
      001666 23                    4976 	inc	hl
      001667 32                    4977 	ld	(hl-), a
      001668 2A                    4978 	ld	a, (hl+)
      001669 23                    4979 	inc	hl
      00166A 77                    4980 	ld	(hl), a
      00166B CB 2E                 4981 	sra	(hl)
      00166D 2B                    4982 	dec	hl
      00166E CB 1E                 4983 	rr	(hl)
      001670 23                    4984 	inc	hl
      001671 CB 2E                 4985 	sra	(hl)
      001673 2B                    4986 	dec	hl
      001674 CB 1E                 4987 	rr	(hl)
      001676 23                    4988 	inc	hl
      001677 CB 2E                 4989 	sra	(hl)
      001679 2B                    4990 	dec	hl
      00167A CB 1E                 4991 	rr	(hl)
      00167C 7E                    4992 	ld	a, (hl)
      00167D F8 1D                 4993 	ldhl	sp,	#29
                                   4994 ;geometry_boy.c:355: x_px_to_tile_ind(x_px + background_x_shift),
      00167F 32                    4995 	ld	(hl-), a
      001680 2A                    4996 	ld	a, (hl+)
      001681 57                    4997 	ld	d, a
      001682 5E                    4998 	ld	e, (hl)
      001683 D5                    4999 	push	de
      001684 CDr00r00              5000 	call	_get_bkg_tile_xy
      001687 E1                    5001 	pop	hl
      001688 7B                    5002 	ld	a, e
                                   5003 ;geometry_boy.c:538: if (get_tile_by_px(player_x + PLAYER_WIDTH - 1, player_y + PLAYER_WIDTH) == HALF_BLOCK_TILE || get_tile_by_px(player_x, player_y + PLAYER_WIDTH) == HALF_BLOCK_TILE)
      001689 D6 08                 5004 	sub	a, #0x08
      00168B C2rA3r17              5005 	jp	NZ,00223$
      00168E                       5006 00175$:
                                   5007 ;geometry_boy.c:540: tile_x = (player_x)&0xF8;
      00168E FAr03r00              5008 	ld	a, (#_player_x)
      001691 E6 F8                 5009 	and	a, #0xf8
      001693 5F                    5010 	ld	e, a
                                   5011 ;geometry_boy.c:541: tile_y = (player_y + PLAYER_WIDTH) & 0xF8;
      001694 FAr02r00              5012 	ld	a, (#_player_y)
      001697 C6 08                 5013 	add	a, #0x08
      001699 E6 F8                 5014 	and	a, #0xf8
                                   5015 ;geometry_boy.c:542: if (rect_collision_with_player(tile_x, tile_x + 7, tile_y + 3, tile_y + 7))
      00169B 4F                    5016 	ld	c, a
      00169C C6 07                 5017 	add	a, #0x07
      00169E F8 16                 5018 	ldhl	sp,	#22
      0016A0 77                    5019 	ld	(hl), a
      0016A1 2A                    5020 	ld	a, (hl+)
      0016A2 22                    5021 	ld	(hl+), a
      0016A3 79                    5022 	ld	a, c
      0016A4 C6 03                 5023 	add	a, #0x03
      0016A6 77                    5024 	ld	(hl), a
      0016A7 2A                    5025 	ld	a, (hl+)
      0016A8 77                    5026 	ld	(hl), a
      0016A9 7B                    5027 	ld	a, e
      0016AA C6 07                 5028 	add	a, #0x07
      0016AC 57                    5029 	ld	d, a
                                   5030 ;geometry_boy.c:378: player_x + PLAYER_WIDTH - 1 >= x_left &&
      0016AD 21r03r00              5031 	ld	hl, #_player_x
      0016B0 4E                    5032 	ld	c, (hl)
      0016B1 06 00                 5033 	ld	b, #0x00
                                   5034 ;geometry_boy.c:380: player_y + PLAYER_WIDTH - 1 >= y_top);
      0016B3 FAr02r00              5035 	ld	a, (#_player_y)
      0016B6 F8 1A                 5036 	ldhl	sp,	#26
      0016B8 22                    5037 	ld	(hl+), a
      0016B9 36 00                 5038 	ld	(hl), #0x00
                                   5039 ;geometry_boy.c:378: player_x + PLAYER_WIDTH - 1 >= x_left &&
      0016BB 21 07 00              5040 	ld	hl, #0x0007
      0016BE 09                    5041 	add	hl, bc
      0016BF 4D                    5042 	ld	c, l
      0016C0 44                    5043 	ld	b, h
                                   5044 ;geometry_boy.c:380: player_y + PLAYER_WIDTH - 1 >= y_top);
      0016C1 D5                    5045 	push	de
      0016C2 F8 1C                 5046 	ldhl	sp,#28
      0016C4 2A                    5047 	ld	a, (hl+)
      0016C5 5F                    5048 	ld	e, a
      0016C6 56                    5049 	ld	d, (hl)
      0016C7 21 07 00              5050 	ld	hl, #0x0007
      0016CA 19                    5051 	add	hl, de
      0016CB D1                    5052 	pop	de
      0016CC E5                    5053 	push	hl
      0016CD 7D                    5054 	ld	a, l
      0016CE F8 1E                 5055 	ldhl	sp,	#30
      0016D0 77                    5056 	ld	(hl), a
      0016D1 E1                    5057 	pop	hl
      0016D2 7C                    5058 	ld	a, h
      0016D3 F8 1D                 5059 	ldhl	sp,	#29
      0016D5 77                    5060 	ld	(hl), a
                                   5061 ;geometry_boy.c:377: player_x <= x_right &&
      0016D6 7A                    5062 	ld	a, d
      0016D7 21r03r00              5063 	ld	hl, #_player_x
      0016DA 96                    5064 	sub	a, (hl)
      0016DB 38 4A                 5065 	jr	C, 00401$
                                   5066 ;geometry_boy.c:378: player_x + PLAYER_WIDTH - 1 >= x_left &&
      0016DD 6B                    5067 	ld	l, e
                                   5068 ;	spillPairReg hl
                                   5069 ;	spillPairReg hl
      0016DE 26 00                 5070 	ld	h, #0x00
                                   5071 ;	spillPairReg hl
                                   5072 ;	spillPairReg hl
      0016E0 5C                    5073 	ld	e, h
      0016E1 50                    5074 	ld	d, b
      0016E2 79                    5075 	ld	a, c
      0016E3 95                    5076 	sub	a, l
      0016E4 78                    5077 	ld	a, b
      0016E5 9C                    5078 	sbc	a, h
      0016E6 CB 7B                 5079 	bit	7, e
      0016E8 28 07                 5080 	jr	Z, 01104$
      0016EA CB 7A                 5081 	bit	7, d
      0016EC 20 08                 5082 	jr	NZ, 01105$
      0016EE BF                    5083 	cp	a, a
      0016EF 18 05                 5084 	jr	01105$
      0016F1                       5085 01104$:
      0016F1 CB 7A                 5086 	bit	7, d
      0016F3 28 01                 5087 	jr	Z, 01105$
      0016F5 37                    5088 	scf
      0016F6                       5089 01105$:
      0016F6 38 2F                 5090 	jr	C, 00401$
                                   5091 ;geometry_boy.c:379: player_y <= y_bot &&
      0016F8 F8 17                 5092 	ldhl	sp,	#23
      0016FA 7E                    5093 	ld	a, (hl)
      0016FB 21r02r00              5094 	ld	hl, #_player_y
      0016FE 96                    5095 	sub	a, (hl)
      0016FF 38 26                 5096 	jr	C, 00401$
                                   5097 ;geometry_boy.c:380: player_y + PLAYER_WIDTH - 1 >= y_top);
      001701 F8 19                 5098 	ldhl	sp,	#25
      001703 2A                    5099 	ld	a, (hl+)
      001704 22                    5100 	ld	(hl+), a
      001705 36 00                 5101 	ld	(hl), #0x00
      001707 F8 1C                 5102 	ldhl	sp,	#28
      001709 5D                    5103 	ld	e, l
      00170A 54                    5104 	ld	d, h
      00170B F8 1A                 5105 	ldhl	sp,	#26
      00170D 1A                    5106 	ld	a, (de)
      00170E 13                    5107 	inc	de
      00170F 96                    5108 	sub	a, (hl)
      001710 23                    5109 	inc	hl
      001711 1A                    5110 	ld	a, (de)
      001712 9E                    5111 	sbc	a, (hl)
      001713 1A                    5112 	ld	a, (de)
      001714 57                    5113 	ld	d, a
      001715 CB 7E                 5114 	bit	7, (hl)
      001717 28 07                 5115 	jr	Z, 01106$
      001719 CB 7A                 5116 	bit	7, d
      00171B 20 08                 5117 	jr	NZ, 01107$
      00171D BF                    5118 	cp	a, a
      00171E 18 05                 5119 	jr	01107$
      001720                       5120 01106$:
      001720 CB 7A                 5121 	bit	7, d
      001722 28 01                 5122 	jr	Z, 01107$
      001724 37                    5123 	scf
      001725                       5124 01107$:
      001725 30 03                 5125 	jr	NC, 00402$
      001727                       5126 00401$:
      001727 AF                    5127 	xor	a, a
      001728 18 02                 5128 	jr	00403$
      00172A                       5129 00402$:
      00172A 3E 01                 5130 	ld	a, #0x01
      00172C                       5131 00403$:
                                   5132 ;geometry_boy.c:542: if (rect_collision_with_player(tile_x, tile_x + 7, tile_y + 3, tile_y + 7))
      00172C B7                    5133 	or	a, a
      00172D 28 07                 5134 	jr	Z, 00173$
                                   5135 ;geometry_boy.c:544: on_ground = 1;
      00172F 21r05r00              5136 	ld	hl, #_on_ground
      001732 36 01                 5137 	ld	(hl), #0x01
      001734 18 6D                 5138 	jr	00223$
      001736                       5139 00173$:
                                   5140 ;geometry_boy.c:548: tile_x = (player_x + PLAYER_WIDTH - 1) & 0xF8;
      001736 FAr03r00              5141 	ld	a, (#_player_x)
      001739 C6 07                 5142 	add	a, #0x07
      00173B E6 F8                 5143 	and	a, #0xf8
                                   5144 ;geometry_boy.c:549: if (rect_collision_with_player(tile_x, tile_x + 7, tile_y + 3, tile_y + 7))
      00173D 5F                    5145 	ld	e, a
      00173E C6 07                 5146 	add	a, #0x07
      001740 57                    5147 	ld	d, a
      001741 F8 16                 5148 	ldhl	sp,	#22
      001743 7E                    5149 	ld	a, (hl)
      001744 F8 1B                 5150 	ldhl	sp,	#27
      001746 77                    5151 	ld	(hl), a
      001747 F8 18                 5152 	ldhl	sp,	#24
      001749 2A                    5153 	ld	a, (hl+)
      00174A 23                    5154 	inc	hl
      00174B 77                    5155 	ld	(hl), a
                                   5156 ;geometry_boy.c:377: player_x <= x_right &&
      00174C 7A                    5157 	ld	a, d
      00174D 21r03r00              5158 	ld	hl, #_player_x
      001750 96                    5159 	sub	a, (hl)
      001751 38 43                 5160 	jr	C, 00410$
                                   5161 ;geometry_boy.c:378: player_x + PLAYER_WIDTH - 1 >= x_left &&
      001753 6B                    5162 	ld	l, e
                                   5163 ;	spillPairReg hl
                                   5164 ;	spillPairReg hl
      001754 26 00                 5165 	ld	h, #0x00
                                   5166 ;	spillPairReg hl
                                   5167 ;	spillPairReg hl
      001756 5C                    5168 	ld	e, h
      001757 50                    5169 	ld	d, b
      001758 79                    5170 	ld	a, c
      001759 95                    5171 	sub	a, l
      00175A 78                    5172 	ld	a, b
      00175B 9C                    5173 	sbc	a, h
      00175C CB 7B                 5174 	bit	7, e
      00175E 28 07                 5175 	jr	Z, 01108$
      001760 CB 7A                 5176 	bit	7, d
      001762 20 08                 5177 	jr	NZ, 01109$
      001764 BF                    5178 	cp	a, a
      001765 18 05                 5179 	jr	01109$
      001767                       5180 01108$:
      001767 CB 7A                 5181 	bit	7, d
      001769 28 01                 5182 	jr	Z, 01109$
      00176B 37                    5183 	scf
      00176C                       5184 01109$:
      00176C 38 28                 5185 	jr	C, 00410$
                                   5186 ;geometry_boy.c:379: player_y <= y_bot &&
      00176E F8 1B                 5187 	ldhl	sp,	#27
      001770 7E                    5188 	ld	a, (hl)
      001771 21r02r00              5189 	ld	hl, #_player_y
      001774 96                    5190 	sub	a, (hl)
      001775 38 1F                 5191 	jr	C, 00410$
                                   5192 ;geometry_boy.c:380: player_y + PLAYER_WIDTH - 1 >= y_top);
      001777 F8 1A                 5193 	ldhl	sp,	#26
      001779 2A                    5194 	ld	a, (hl+)
      00177A 23                    5195 	inc	hl
      00177B 4F                    5196 	ld	c, a
      00177C 06 00                 5197 	ld	b, #0x00
      00177E 2A                    5198 	ld	a, (hl+)
      00177F 91                    5199 	sub	a, c
      001780 7E                    5200 	ld	a, (hl)
      001781 98                    5201 	sbc	a, b
      001782 56                    5202 	ld	d, (hl)
      001783 78                    5203 	ld	a, b
      001784 CB 7F                 5204 	bit	7,a
      001786 28 07                 5205 	jr	Z, 01110$
      001788 CB 7A                 5206 	bit	7, d
      00178A 20 08                 5207 	jr	NZ, 01111$
      00178C BF                    5208 	cp	a, a
      00178D 18 05                 5209 	jr	01111$
      00178F                       5210 01110$:
      00178F CB 7A                 5211 	bit	7, d
      001791 28 01                 5212 	jr	Z, 01111$
      001793 37                    5213 	scf
      001794                       5214 01111$:
      001794 30 03                 5215 	jr	NC, 00411$
      001796                       5216 00410$:
      001796 AF                    5217 	xor	a, a
      001797 18 02                 5218 	jr	00412$
      001799                       5219 00411$:
      001799 3E 01                 5220 	ld	a, #0x01
      00179B                       5221 00412$:
                                   5222 ;geometry_boy.c:549: if (rect_collision_with_player(tile_x, tile_x + 7, tile_y + 3, tile_y + 7))
      00179B B7                    5223 	or	a, a
      00179C 28 05                 5224 	jr	Z, 00223$
                                   5225 ;geometry_boy.c:551: on_ground = 1;
      00179E 21r05r00              5226 	ld	hl, #_on_ground
      0017A1 36 01                 5227 	ld	(hl), #0x01
      0017A3                       5228 00223$:
                                   5229 ;geometry_boy.c:557: }
      0017A3 E8 1E                 5230 	add	sp, #30
      0017A5 C9                    5231 	ret
                                   5232 ;geometry_boy.c:559: void tick_player()
                                   5233 ;	---------------------------------
                                   5234 ; Function tick_player
                                   5235 ; ---------------------------------
      0017A6                       5236 _tick_player::
                                   5237 ;geometry_boy.c:561: if (jpad == J_UP)
      0017A6 FAr09r00              5238 	ld	a, (#_jpad)
      0017A9 D6 04                 5239 	sub	a, #0x04
      0017AB 20 0B                 5240 	jr	NZ, 00104$
                                   5241 ;geometry_boy.c:563: if (on_ground)
      0017AD FAr05r00              5242 	ld	a, (#_on_ground)
      0017B0 B7                    5243 	or	a, a
      0017B1 28 05                 5244 	jr	Z, 00104$
                                   5245 ;geometry_boy.c:565: player_dy = -PLAYER_JUMP_VEL;
      0017B3 21r00r00              5246 	ld	hl, #_player_dy
      0017B6 36 FA                 5247 	ld	(hl), #0xfa
      0017B8                       5248 00104$:
                                   5249 ;geometry_boy.c:568: if (!on_ground)
      0017B8 FAr05r00              5250 	ld	a, (#_on_ground)
      0017BB B7                    5251 	or	a, a
      0017BC 20 20                 5252 	jr	NZ, 00108$
                                   5253 ;geometry_boy.c:570: player_dy += GRAVITY;
      0017BE 21r00r00              5254 	ld	hl, #_player_dy
      0017C1 34                    5255 	inc	(hl)
                                   5256 ;geometry_boy.c:571: if (player_dy > MAX_FALL_SPEED)
      0017C2 5E                    5257 	ld	e, (hl)
      0017C3 3E 07                 5258 	ld	a,#0x07
      0017C5 57                    5259 	ld	d,a
      0017C6 96                    5260 	sub	a, (hl)
      0017C7 CB 7B                 5261 	bit	7, e
      0017C9 28 07                 5262 	jr	Z, 00133$
      0017CB CB 7A                 5263 	bit	7, d
      0017CD 20 08                 5264 	jr	NZ, 00134$
      0017CF BF                    5265 	cp	a, a
      0017D0 18 05                 5266 	jr	00134$
      0017D2                       5267 00133$:
      0017D2 CB 7A                 5268 	bit	7, d
      0017D4 28 01                 5269 	jr	Z, 00134$
      0017D6 37                    5270 	scf
      0017D7                       5271 00134$:
      0017D7 30 05                 5272 	jr	NC, 00108$
                                   5273 ;geometry_boy.c:572: player_dy = MAX_FALL_SPEED;
      0017D9 21r00r00              5274 	ld	hl, #_player_dy
      0017DC 36 07                 5275 	ld	(hl), #0x07
      0017DE                       5276 00108$:
                                   5277 ;geometry_boy.c:575: collide(0);
      0017DE AF                    5278 	xor	a, a
      0017DF F5                    5279 	push	af
      0017E0 33                    5280 	inc	sp
      0017E1 CDr3Br09              5281 	call	_collide
      0017E4 33                    5282 	inc	sp
                                   5283 ;geometry_boy.c:577: player_y += player_dy;
      0017E5 FAr02r00              5284 	ld	a, (#_player_y)
      0017E8 21r00r00              5285 	ld	hl, #_player_dy
      0017EB 86                    5286 	add	a, (hl)
      0017EC EAr02r00              5287 	ld	(#_player_y),a
                                   5288 ;geometry_boy.c:580: on_ground = 0;
      0017EF 21r05r00              5289 	ld	hl, #_on_ground
      0017F2 36 00                 5290 	ld	(hl), #0x00
                                   5291 ;geometry_boy.c:582: collide(player_dy);
      0017F4 FAr00r00              5292 	ld	a, (#_player_dy)
      0017F7 F5                    5293 	push	af
      0017F8 33                    5294 	inc	sp
      0017F9 CDr3Br09              5295 	call	_collide
      0017FC 33                    5296 	inc	sp
                                   5297 ;geometry_boy.c:583: }
      0017FD C9                    5298 	ret
                                   5299 ;geometry_boy.c:585: void render_player()
                                   5300 ;	---------------------------------
                                   5301 ; Function render_player
                                   5302 ; ---------------------------------
      0017FE                       5303 _render_player::
                                   5304 ;geometry_boy.c:587: move_sprite(0, player_x, player_y);
      0017FE 21r02r00              5305 	ld	hl, #_player_y
      001801 46                    5306 	ld	b, (hl)
      001802 21r03r00              5307 	ld	hl, #_player_x
      001805 4E                    5308 	ld	c, (hl)
                                   5309 ;../gbdk/include/gb/gb.h:1399: OAM_item_t * itm = &shadow_OAM[nb];
      001806 21r00r00              5310 	ld	hl, #_shadow_OAM
                                   5311 ;../gbdk/include/gb/gb.h:1400: itm->y=y, itm->x=x;
      001809 78                    5312 	ld	a, b
      00180A 22                    5313 	ld	(hl+), a
      00180B 71                    5314 	ld	(hl), c
                                   5315 ;geometry_boy.c:587: move_sprite(0, player_x, player_y);
                                   5316 ;geometry_boy.c:588: }
      00180C C9                    5317 	ret
                                   5318 ;geometry_boy.c:590: void initialize_player()
                                   5319 ;	---------------------------------
                                   5320 ; Function initialize_player
                                   5321 ; ---------------------------------
      00180D                       5322 _initialize_player::
                                   5323 ;geometry_boy.c:592: set_sprite_data(0, 1, players + (player_sprite_num << 4)); // << 4 is the same as *16
      00180D 01rACr00              5324 	ld	bc, #_players+0
      001810 21r04r00              5325 	ld	hl, #_player_sprite_num
      001813 6E                    5326 	ld	l, (hl)
                                   5327 ;	spillPairReg hl
                                   5328 ;	spillPairReg hl
      001814 26 00                 5329 	ld	h, #0x00
                                   5330 ;	spillPairReg hl
                                   5331 ;	spillPairReg hl
      001816 29                    5332 	add	hl, hl
      001817 29                    5333 	add	hl, hl
      001818 29                    5334 	add	hl, hl
      001819 29                    5335 	add	hl, hl
      00181A 09                    5336 	add	hl, bc
      00181B E5                    5337 	push	hl
      00181C AF                    5338 	xor	a, a
      00181D 3C                    5339 	inc	a
      00181E F5                    5340 	push	af
      00181F CDr00r00              5341 	call	_set_sprite_data
      001822 E8 04                 5342 	add	sp, #4
                                   5343 ;../gbdk/include/gb/gb.h:1326: shadow_OAM[nb].tile=tile;
      001824 21r02r00              5344 	ld	hl, #(_shadow_OAM + 2)
      001827 36 00                 5345 	ld	(hl), #0x00
                                   5346 ;geometry_boy.c:593: set_sprite_tile(0, 0);
                                   5347 ;geometry_boy.c:594: }
      001829 C9                    5348 	ret
                                   5349 ;geometry_boy.c:596: screen_t game()
                                   5350 ;	---------------------------------
                                   5351 ; Function game
                                   5352 ; ---------------------------------
      00182A                       5353 _game::
      00182A E8 FA                 5354 	add	sp, #-6
                                   5355 ;geometry_boy.c:598: STAT_REG |= 0x40; // enable LYC=LY interrupt
      00182C F0r00                 5356 	ldh	a, (_STAT_REG + 0)
      00182E F6 40                 5357 	or	a, #0x40
      001830 E0r00                 5358 	ldh	(_STAT_REG + 0), a
                                   5359 ;geometry_boy.c:599: LYC_REG = 16;     // the scanline on which to trigger
      001832 3E 10                 5360 	ld	a, #0x10
      001834 E0r00                 5361 	ldh	(_LYC_REG + 0), a
                                   5362 ;../gbdk/include/gb/gb.h:660: __asm__("di");
      001836 F3                    5363 	di
                                   5364 ;geometry_boy.c:601: add_LCD(lcd_interrupt_game);
      001837 11rC3r07              5365 	ld	de, #_lcd_interrupt_game
      00183A D5                    5366 	push	de
      00183B CDr00r00              5367 	call	_add_LCD
      00183E E1                    5368 	pop	hl
                                   5369 ;geometry_boy.c:602: add_VBL(vbl_interrupt_game);
      00183F 11rCAr07              5370 	ld	de, #_vbl_interrupt_game
      001842 D5                    5371 	push	de
      001843 CDr00r00              5372 	call	_add_VBL
      001846 33                    5373 	inc	sp
      001847 33                    5374 	inc	sp
                                   5375 ;../gbdk/include/gb/gb.h:644: __asm__("ei");
      001848 FB                    5376 	ei
                                   5377 ;geometry_boy.c:604: set_interrupts(LCD_IFLAG | VBL_IFLAG);
      001849 3E 03                 5378 	ld	a, #0x03
      00184B F5                    5379 	push	af
      00184C 33                    5380 	inc	sp
      00184D CDr00r00              5381 	call	_set_interrupts
      001850 33                    5382 	inc	sp
                                   5383 ;geometry_boy.c:606: wait_vbl_done();
      001851 CDr00r00              5384 	call	_wait_vbl_done
                                   5385 ;geometry_boy.c:608: initialize_player();
      001854 CDr0Dr18              5386 	call	_initialize_player
                                   5387 ;geometry_boy.c:609: render_player(); // render at initial position
      001857 CDrFEr17              5388 	call	_render_player
                                   5389 ;geometry_boy.c:610: SHOW_SPRITES;
      00185A F0r00                 5390 	ldh	a, (_LCDC_REG + 0)
      00185C F6 02                 5391 	or	a, #0x02
      00185E E0r00                 5392 	ldh	(_LCDC_REG + 0), a
                                   5393 ;geometry_boy.c:166: set_bkg_data(0, GB_TILESET_LEN, gb_tileset_v2); // load tiles into VRAM
      001860 11rBCr01              5394 	ld	de, #_gb_tileset_v2
      001863 D5                    5395 	push	de
      001864 21 00 0D              5396 	ld	hl, #0xd00
      001867 E5                    5397 	push	hl
      001868 CDr00r00              5398 	call	_set_bkg_data
      00186B E8 04                 5399 	add	sp, #4
                                   5400 ;geometry_boy.c:167: set_bkg_data(GB_TILESET_LEN, AERO_TILESET_LEN, aero + 3 * 16);
      00186D 11rBCr02              5401 	ld	de, #(_aero + 48)
      001870 D5                    5402 	push	de
      001871 21 0D 24              5403 	ld	hl, #0x240d
      001874 E5                    5404 	push	hl
      001875 CDr00r00              5405 	call	_set_bkg_data
      001878 E8 04                 5406 	add	sp, #4
                                   5407 ;geometry_boy.c:168: set_bkg_data(GB_TILESET_LEN + AERO_TILESET_LEN, 1, aero + 47 * 16); // colon
      00187A 11r7Cr05              5408 	ld	de, #(_aero + 752)
      00187D D5                    5409 	push	de
      00187E 21 31 01              5410 	ld	hl, #0x131
      001881 E5                    5411 	push	hl
      001882 CDr00r00              5412 	call	_set_bkg_data
      001885 E8 04                 5413 	add	sp, #4
                                   5414 ;geometry_boy.c:169: set_bkg_data(GB_TILESET_LEN + AERO_TILESET_LEN + 1, 1, aero + 67 * 16); // percent
      001887 11rBCr06              5415 	ld	de, #(_aero + 1072)
      00188A D5                    5416 	push	de
      00188B 21 32 01              5417 	ld	hl, #0x132
      00188E E5                    5418 	push	hl
      00188F CDr00r00              5419 	call	_set_bkg_data
      001892 E8 04                 5420 	add	sp, #4
                                   5421 ;geometry_boy.c:170: set_bkg_data(GB_TILESET_LEN + AERO_TILESET_LEN + 2, 9, progress_bar_tiles);
      001894 11r2Cr07              5422 	ld	de, #_progress_bar_tiles
      001897 D5                    5423 	push	de
      001898 21 33 09              5424 	ld	hl, #0x933
      00189B E5                    5425 	push	hl
      00189C CDr00r00              5426 	call	_set_bkg_data
      00189F E8 04                 5427 	add	sp, #4
                                   5428 ;geometry_boy.c:175: vbl_count = 0;
      0018A1 21r06r00              5429 	ld	hl, #_vbl_count
      0018A4 36 00                 5430 	ld	(hl), #0x00
                                   5431 ;geometry_boy.c:176: background_x_shift = 0;
      0018A6 AF                    5432 	xor	a, a
      0018A7 21r0Br00              5433 	ld	hl, #_background_x_shift
      0018AA 22                    5434 	ld	(hl+), a
      0018AB 77                    5435 	ld	(hl), a
                                   5436 ;geometry_boy.c:177: old_scroll_x = 0;
      0018AC AF                    5437 	xor	a, a
      0018AD 21r0Fr00              5438 	ld	hl, #_old_scroll_x
      0018B0 22                    5439 	ld	(hl+), a
      0018B1 77                    5440 	ld	(hl), a
                                   5441 ;geometry_boy.c:178: old_background_x_shift = 8 + 3;
      0018B2 21r0Dr00              5442 	ld	hl, #_old_background_x_shift
      0018B5 3E 0B                 5443 	ld	a, #0x0b
      0018B7 22                    5444 	ld	(hl+), a
      0018B8 AF                    5445 	xor	a, a
      0018B9 77                    5446 	ld	(hl), a
                                   5447 ;geometry_boy.c:179: player_y = PLAYER_START_Y;
      0018BA 21r02r00              5448 	ld	hl, #_player_y
      0018BD 36 90                 5449 	ld	(hl), #0x90
                                   5450 ;geometry_boy.c:180: player_x = PLAYER_START_X;
      0018BF 21r03r00              5451 	ld	hl, #_player_x
      0018C2 36 20                 5452 	ld	(hl), #0x20
                                   5453 ;geometry_boy.c:181: player_dx = 3;
      0018C4 21r01r00              5454 	ld	hl, #_player_dx
      0018C7 36 03                 5455 	ld	(hl), #0x03
                                   5456 ;geometry_boy.c:182: on_ground = 1;
      0018C9 21r05r00              5457 	ld	hl, #_on_ground
      0018CC 36 01                 5458 	ld	(hl), #0x01
                                   5459 ;geometry_boy.c:183: lose = 0;
      0018CE 21r07r00              5460 	ld	hl, #_lose
      0018D1 36 00                 5461 	ld	(hl), #0x00
                                   5462 ;geometry_boy.c:184: win = 0;
      0018D3 21r06r00              5463 	ld	hl, #_win
      0018D6 36 00                 5464 	ld	(hl), #0x00
                                   5465 ;geometry_boy.c:185: tick = 0;
      0018D8 21r0Ar00              5466 	ld	hl, #_tick
      0018DB 36 00                 5467 	ld	(hl), #0x00
                                   5468 ;geometry_boy.c:186: parallax_tile_ind = 0;
      0018DD 21r11r00              5469 	ld	hl, #_parallax_tile_ind
      0018E0 36 00                 5470 	ld	(hl), #0x00
                                   5471 ;geometry_boy.c:189: prev_jpad = 0;
      0018E2 21r08r00              5472 	ld	hl, #_prev_jpad
      0018E5 36 00                 5473 	ld	(hl), #0x00
                                   5474 ;geometry_boy.c:190: jpad = 0;
      0018E7 21r09r00              5475 	ld	hl, #_jpad
      0018EA 36 00                 5476 	ld	(hl), #0x00
                                   5477 ;geometry_boy.c:191: SCX_REG = 0;
      0018EC AF                    5478 	xor	a, a
      0018ED E0r00                 5479 	ldh	(_SCX_REG + 0), a
                                   5480 ;geometry_boy.c:614: current_attempts = 0;
      0018EF AF                    5481 	xor	a, a
      0018F0 21r1Dr00              5482 	ld	hl, #_current_attempts
      0018F3 22                    5483 	ld	(hl+), a
      0018F4 77                    5484 	ld	(hl), a
                                   5485 ;geometry_boy.c:206: for (render_row = 0; render_row < 3; render_row++)
      0018F5 21r01r00              5486 	ld	hl, #_render_row
      0018F8 36 00                 5487 	ld	(hl), #0x00
      0018FA                       5488 00141$:
                                   5489 ;geometry_boy.c:208: for (render_col = 0; render_col < 20; render_col++)
      0018FA 21r02r00              5490 	ld	hl, #_render_col
      0018FD 36 00                 5491 	ld	(hl), #0x00
      0018FF                       5492 00139$:
                                   5493 ;geometry_boy.c:210: set_win_tile_xy(render_col, render_row, BLACK_TILE);
      0018FF 3E 03                 5494 	ld	a, #0x03
      001901 F5                    5495 	push	af
      001902 33                    5496 	inc	sp
      001903 FAr01r00              5497 	ld	a, (#_render_row)
      001906 67                    5498 	ld	h, a
      001907 FAr02r00              5499 	ld	a, (#_render_col)
      00190A 6F                    5500 	ld	l, a
      00190B E5                    5501 	push	hl
      00190C CDr00r00              5502 	call	_set_win_tile_xy
      00190F E8 03                 5503 	add	sp, #3
                                   5504 ;geometry_boy.c:208: for (render_col = 0; render_col < 20; render_col++)
      001911 21r02r00              5505 	ld	hl, #_render_col
      001914 34                    5506 	inc	(hl)
      001915 7E                    5507 	ld	a, (hl)
      001916 D6 14                 5508 	sub	a, #0x14
      001918 38 E5                 5509 	jr	C, 00139$
                                   5510 ;geometry_boy.c:206: for (render_row = 0; render_row < 3; render_row++)
      00191A 21r01r00              5511 	ld	hl, #_render_row
      00191D 34                    5512 	inc	(hl)
      00191E 7E                    5513 	ld	a, (hl)
      00191F D6 03                 5514 	sub	a, #0x03
      001921 38 D7                 5515 	jr	C, 00141$
                                   5516 ;geometry_boy.c:213: for (render_col = 0; render_col < 7; render_col++)
      001923 21r02r00              5517 	ld	hl, #_render_col
      001926 36 00                 5518 	ld	(hl), #0x00
      001928                       5519 00143$:
                                   5520 ;geometry_boy.c:215: set_win_tile_xy(render_col, 0, LETTER_TILES + (attempts_title[render_col] - 65));
      001928 3ErBC                 5521 	ld	a, #<(_attempts_title)
      00192A 21r02r00              5522 	ld	hl, #_render_col
      00192D 86                    5523 	add	a, (hl)
      00192E 4F                    5524 	ld	c, a
      00192F 3Es07                 5525 	ld	a, #>(_attempts_title)
      001931 CE 00                 5526 	adc	a, #0x00
      001933 47                    5527 	ld	b, a
      001934 0A                    5528 	ld	a, (bc)
      001935 C6 D6                 5529 	add	a, #0xd6
      001937 F5                    5530 	push	af
      001938 33                    5531 	inc	sp
      001939 AF                    5532 	xor	a, a
      00193A F5                    5533 	push	af
      00193B 33                    5534 	inc	sp
      00193C 7E                    5535 	ld	a, (hl)
      00193D F5                    5536 	push	af
      00193E 33                    5537 	inc	sp
      00193F CDr00r00              5538 	call	_set_win_tile_xy
      001942 E8 03                 5539 	add	sp, #3
                                   5540 ;geometry_boy.c:213: for (render_col = 0; render_col < 7; render_col++)
      001944 21r02r00              5541 	ld	hl, #_render_col
      001947 34                    5542 	inc	(hl)
      001948 7E                    5543 	ld	a, (hl)
      001949 D6 07                 5544 	sub	a, #0x07
      00194B 38 DB                 5545 	jr	C, 00143$
                                   5546 ;geometry_boy.c:217: set_win_tile_xy(7, 0, COLON_TILE); // colon
      00194D 3E 31                 5547 	ld	a, #0x31
      00194F F5                    5548 	push	af
      001950 33                    5549 	inc	sp
      001951 21 07 00              5550 	ld	hl, #0x07
      001954 E5                    5551 	push	hl
      001955 CDr00r00              5552 	call	_set_win_tile_xy
      001958 E8 03                 5553 	add	sp, #3
                                   5554 ;geometry_boy.c:218: for (render_col = 8; render_col < 11; render_col++)
      00195A 21r02r00              5555 	ld	hl, #_render_col
      00195D 36 08                 5556 	ld	(hl), #0x08
      00195F                       5557 00145$:
                                   5558 ;geometry_boy.c:220: set_win_tile_xy(render_col, 0, NUMBER_TILES);
      00195F 3E 0D                 5559 	ld	a, #0x0d
      001961 F5                    5560 	push	af
      001962 33                    5561 	inc	sp
      001963 AF                    5562 	xor	a, a
      001964 F5                    5563 	push	af
      001965 33                    5564 	inc	sp
      001966 FAr02r00              5565 	ld	a, (#_render_col)
      001969 F5                    5566 	push	af
      00196A 33                    5567 	inc	sp
      00196B CDr00r00              5568 	call	_set_win_tile_xy
      00196E E8 03                 5569 	add	sp, #3
                                   5570 ;geometry_boy.c:218: for (render_col = 8; render_col < 11; render_col++)
      001970 21r02r00              5571 	ld	hl, #_render_col
      001973 34                    5572 	inc	(hl)
      001974 7E                    5573 	ld	a, (hl)
      001975 D6 0B                 5574 	sub	a, #0x0b
      001977 38 E6                 5575 	jr	C, 00145$
                                   5576 ;geometry_boy.c:222: old_px_progress_bar = 0;
      001979 AF                    5577 	xor	a, a
      00197A 21r21r00              5578 	ld	hl, #_old_px_progress_bar
      00197D 22                    5579 	ld	(hl+), a
      00197E 77                    5580 	ld	(hl), a
                                   5581 ;geometry_boy.c:223: px_progress_bar = 0;
      00197F AF                    5582 	xor	a, a
      001980 21r1Fr00              5583 	ld	hl, #_px_progress_bar
      001983 22                    5584 	ld	(hl+), a
      001984 77                    5585 	ld	(hl), a
                                   5586 ;geometry_boy.c:617: SHOW_BKG;
      001985 F0r00                 5587 	ldh	a, (_LCDC_REG + 0)
      001987 F6 01                 5588 	or	a, #0x01
      001989 E0r00                 5589 	ldh	(_LCDC_REG + 0), a
                                   5590 ;geometry_boy.c:618: DISPLAY_ON;
      00198B F0r00                 5591 	ldh	a, (_LCDC_REG + 0)
      00198D F6 80                 5592 	or	a, #0x80
      00198F E0r00                 5593 	ldh	(_LCDC_REG + 0), a
                                   5594 ;geometry_boy.c:620: SWITCH_ROM_MBC1(level_banks[level_ind]);
      001991 3Er1B                 5595 	ld	a, #<(_level_banks)
      001993 21r12r00              5596 	ld	hl, #_level_ind
      001996 86                    5597 	add	a, (hl)
      001997 4F                    5598 	ld	c, a
      001998 3Es00                 5599 	ld	a, #>(_level_banks)
      00199A CE 00                 5600 	adc	a, #0x00
      00199C 47                    5601 	ld	b, a
      00199D 0A                    5602 	ld	a, (bc)
      00199E E0r00                 5603 	ldh	(__current_bank + 0), a
      0019A0 EA 00 20              5604 	ld	(#0x2000),a
                                   5605 ;geometry_boy.c:621: init_background(level_maps[level_ind], level_widths[level_ind]);
      0019A3 21r12r00              5606 	ld	hl, #_level_ind
      0019A6 6E                    5607 	ld	l, (hl)
                                   5608 ;	spillPairReg hl
                                   5609 ;	spillPairReg hl
      0019A7 26 00                 5610 	ld	h, #0x00
                                   5611 ;	spillPairReg hl
                                   5612 ;	spillPairReg hl
      0019A9 29                    5613 	add	hl, hl
      0019AA 4D                    5614 	ld	c, l
      0019AB 44                    5615 	ld	b, h
      0019AC 21r17r00              5616 	ld	hl, #_level_widths
      0019AF 09                    5617 	add	hl, bc
      0019B0 5D                    5618 	ld	e, l
      0019B1 54                    5619 	ld	d, h
      0019B2 1A                    5620 	ld	a, (de)
      0019B3 F8 04                 5621 	ldhl	sp,	#4
      0019B5 22                    5622 	ld	(hl+), a
      0019B6 13                    5623 	inc	de
      0019B7 1A                    5624 	ld	a, (de)
      0019B8 77                    5625 	ld	(hl), a
      0019B9 21r13r00              5626 	ld	hl, #_level_maps
      0019BC 09                    5627 	add	hl, bc
      0019BD 2A                    5628 	ld	a, (hl+)
      0019BE 4F                    5629 	ld	c, a
      0019BF 46                    5630 	ld	b, (hl)
      0019C0 F8 04                 5631 	ldhl	sp,	#4
      0019C2 2A                    5632 	ld	a, (hl+)
      0019C3 5F                    5633 	ld	e, a
      0019C4 56                    5634 	ld	d, (hl)
      0019C5 D5                    5635 	push	de
      0019C6 C5                    5636 	push	bc
      0019C7 CDrF5r08              5637 	call	_init_background
      0019CA E8 04                 5638 	add	sp, #4
                                   5639 ;geometry_boy.c:622: SWITCH_ROM_MBC1(saved_bank);
      0019CC 21r05r00              5640 	ld	hl, #_saved_bank
      0019CF 7E                    5641 	ld	a, (hl)
      0019D0 E0r00                 5642 	ldh	(__current_bank + 0), a
      0019D2 11 00 20              5643 	ld	de, #0x2000
      0019D5 7E                    5644 	ld	a, (hl)
      0019D6 12                    5645 	ld	(de), a
                                   5646 ;geometry_boy.c:624: while (1)
      0019D7                       5647 00119$:
                                   5648 ;geometry_boy.c:626: if (vbl_count == 0)
      0019D7 FAr06r00              5649 	ld	a, (#_vbl_count)
      0019DA B7                    5650 	or	a, a
      0019DB 20 03                 5651 	jr	NZ, 00102$
                                   5652 ;geometry_boy.c:628: wait_vbl_done();
      0019DD CDr00r00              5653 	call	_wait_vbl_done
      0019E0                       5654 00102$:
                                   5655 ;geometry_boy.c:630: vbl_count = 0;
      0019E0 21r06r00              5656 	ld	hl, #_vbl_count
      0019E3 36 00                 5657 	ld	(hl), #0x00
                                   5658 ;geometry_boy.c:632: prev_jpad = jpad;
      0019E5 FAr09r00              5659 	ld	a, (#_jpad)
      0019E8 EAr08r00              5660 	ld	(#_prev_jpad),a
                                   5661 ;geometry_boy.c:633: jpad = joypad();
      0019EB CDr00r00              5662 	call	_joypad
      0019EE 21r09r00              5663 	ld	hl, #_jpad
      0019F1 73                    5664 	ld	(hl), e
                                   5665 ;geometry_boy.c:635: if (debounce_input(J_B, jpad, prev_jpad))
      0019F2 FAr08r00              5666 	ld	a, (#_prev_jpad)
      0019F5 21r09r00              5667 	ld	hl, #_jpad
      0019F8 4E                    5668 	ld	c, (hl)
                                   5669 ;geometry_boy.c:361: return (button == target) && !(prev_button == target);
      0019F9 D6 20                 5670 	sub	a, #0x20
      0019FB 20 05                 5671 	jr	NZ, 00151$
      0019FD 79                    5672 	ld	a, c
      0019FE D6 20                 5673 	sub	a, #0x20
      001A00 20 04                 5674 	jr	NZ, 00152$
      001A02                       5675 00151$:
      001A02 0E 00                 5676 	ld	c, #0x00
      001A04 18 02                 5677 	jr	00153$
      001A06                       5678 00152$:
      001A06 0E 01                 5679 	ld	c, #0x01
      001A08                       5680 00153$:
                                   5681 ;geometry_boy.c:635: if (debounce_input(J_B, jpad, prev_jpad))
      001A08 79                    5682 	ld	a, c
      001A09 B7                    5683 	or	a, a
      001A0A CArAAr1A              5684 	jp	Z, 00106$
                                   5685 ;geometry_boy.c:637: ENABLE_RAM_MBC1;
      001A0D 21 00 00              5686 	ld	hl, #0x0000
      001A10 36 0A                 5687 	ld	(hl), #0x0a
                                   5688 ;geometry_boy.c:638: *(attempts[level_ind]) = *(attempts[level_ind])+1;
      001A12 21r12r00              5689 	ld	hl, #_level_ind
      001A15 6E                    5690 	ld	l, (hl)
                                   5691 ;	spillPairReg hl
                                   5692 ;	spillPairReg hl
      001A16 26 00                 5693 	ld	h, #0x00
                                   5694 ;	spillPairReg hl
                                   5695 ;	spillPairReg hl
      001A18 29                    5696 	add	hl, hl
      001A19 11r07r00              5697 	ld	de, #_attempts
      001A1C 19                    5698 	add	hl, de
      001A1D 2A                    5699 	ld	a, (hl+)
      001A1E 4F                    5700 	ld	c, a
      001A1F 46                    5701 	ld	b, (hl)
      001A20 69                    5702 	ld	l, c
      001A21 60                    5703 	ld	h, b
      001A22 23                    5704 	inc	hl
      001A23 3A                    5705 	ld	a,	(hl-)
                                   5706 ;	spillPairReg hl
      001A24 5E                    5707 	ld	e, (hl)
      001A25 57                    5708 	ld	d, a
      001A26 13                    5709 	inc	de
      001A27 7B                    5710 	ld	a, e
      001A28 02                    5711 	ld	(bc), a
      001A29 03                    5712 	inc	bc
      001A2A 7A                    5713 	ld	a, d
      001A2B 02                    5714 	ld	(bc), a
                                   5715 ;geometry_boy.c:639: if (background_x_shift + player_x > *(px_progress[level_ind]))
      001A2C 21r03r00              5716 	ld	hl, #_player_x
      001A2F 4E                    5717 	ld	c, (hl)
      001A30 06 00                 5718 	ld	b, #0x00
      001A32 21r0Br00              5719 	ld	hl, #_background_x_shift
      001A35 6E                    5720 	ld	l, (hl)
                                   5721 ;	spillPairReg hl
                                   5722 ;	spillPairReg hl
      001A36 FAr0Cr00              5723 	ld	a, (_background_x_shift + 1)
      001A39 67                    5724 	ld	h, a
                                   5725 ;	spillPairReg hl
                                   5726 ;	spillPairReg hl
      001A3A 09                    5727 	add	hl, bc
      001A3B 4D                    5728 	ld	c, l
      001A3C 44                    5729 	ld	b, h
      001A3D 21r12r00              5730 	ld	hl, #_level_ind
      001A40 6E                    5731 	ld	l, (hl)
                                   5732 ;	spillPairReg hl
                                   5733 ;	spillPairReg hl
      001A41 26 00                 5734 	ld	h, #0x00
                                   5735 ;	spillPairReg hl
                                   5736 ;	spillPairReg hl
      001A43 29                    5737 	add	hl, hl
      001A44 11r0Br00              5738 	ld	de, #_px_progress
      001A47 19                    5739 	add	hl, de
      001A48 5D                    5740 	ld	e, l
      001A49 54                    5741 	ld	d, h
      001A4A 1A                    5742 	ld	a, (de)
      001A4B F8 00                 5743 	ldhl	sp,	#0
      001A4D 22                    5744 	ld	(hl+), a
      001A4E 13                    5745 	inc	de
      001A4F 1A                    5746 	ld	a, (de)
      001A50 77                    5747 	ld	(hl), a
      001A51 D1                    5748 	pop	de
      001A52 D5                    5749 	push	de
      001A53 1A                    5750 	ld	a, (de)
      001A54 F8 02                 5751 	ldhl	sp,	#2
      001A56 22                    5752 	ld	(hl+), a
      001A57 13                    5753 	inc	de
      001A58 1A                    5754 	ld	a, (de)
      001A59 22                    5755 	ld	(hl+), a
      001A5A 79                    5756 	ld	a, c
      001A5B 22                    5757 	ld	(hl+), a
      001A5C 70                    5758 	ld	(hl), b
      001A5D F8 02                 5759 	ldhl	sp,	#2
      001A5F 5D                    5760 	ld	e, l
      001A60 54                    5761 	ld	d, h
      001A61 F8 04                 5762 	ldhl	sp,	#4
      001A63 1A                    5763 	ld	a, (de)
      001A64 13                    5764 	inc	de
      001A65 96                    5765 	sub	a, (hl)
      001A66 23                    5766 	inc	hl
      001A67 1A                    5767 	ld	a, (de)
      001A68 9E                    5768 	sbc	a, (hl)
      001A69 30 09                 5769 	jr	NC, 00104$
                                   5770 ;geometry_boy.c:641: *(px_progress[level_ind]) = background_x_shift + player_x;
      001A6B D1                    5771 	pop	de
      001A6C D5                    5772 	push	de
      001A6D F8 04                 5773 	ldhl	sp,	#4
      001A6F 2A                    5774 	ld	a, (hl+)
      001A70 12                    5775 	ld	(de), a
      001A71 13                    5776 	inc	de
      001A72 7E                    5777 	ld	a, (hl)
      001A73 12                    5778 	ld	(de), a
      001A74                       5779 00104$:
                                   5780 ;geometry_boy.c:643: DISABLE_RAM_MBC1;
      001A74 21 00 00              5781 	ld	hl, #0x0000
      001A77 36 00                 5782 	ld	(hl), #0x00
                                   5783 ;../gbdk/include/gb/gb.h:660: __asm__("di");
      001A79 F3                    5784 	di
                                   5785 ;geometry_boy.c:645: remove_LCD(lcd_interrupt_game);
      001A7A 11rC3r07              5786 	ld	de, #_lcd_interrupt_game
      001A7D D5                    5787 	push	de
      001A7E CDr00r00              5788 	call	_remove_LCD
      001A81 E1                    5789 	pop	hl
                                   5790 ;geometry_boy.c:646: remove_VBL(vbl_interrupt_game);
      001A82 11rCAr07              5791 	ld	de, #_vbl_interrupt_game
      001A85 D5                    5792 	push	de
      001A86 CDr00r00              5793 	call	_remove_VBL
      001A89 33                    5794 	inc	sp
      001A8A 33                    5795 	inc	sp
                                   5796 ;../gbdk/include/gb/gb.h:644: __asm__("ei");
      001A8B FB                    5797 	ei
                                   5798 ;geometry_boy.c:648: player_x = 0;
      001A8C 21r03r00              5799 	ld	hl, #_player_x
      001A8F 36 00                 5800 	ld	(hl), #0x00
                                   5801 ;geometry_boy.c:649: player_y = 0;
      001A91 21r02r00              5802 	ld	hl, #_player_y
      001A94 36 00                 5803 	ld	(hl), #0x00
                                   5804 ;geometry_boy.c:650: render_player();
      001A96 CDrFEr17              5805 	call	_render_player
                                   5806 ;geometry_boy.c:651: HIDE_WIN;
      001A99 F0r00                 5807 	ldh	a, (_LCDC_REG + 0)
      001A9B E6 DF                 5808 	and	a, #0xdf
      001A9D E0r00                 5809 	ldh	(_LCDC_REG + 0), a
                                   5810 ;geometry_boy.c:652: HIDE_SPRITES;
      001A9F F0r00                 5811 	ldh	a, (_LCDC_REG + 0)
      001AA1 E6 FD                 5812 	and	a, #0xfd
      001AA3 E0r00                 5813 	ldh	(_LCDC_REG + 0), a
                                   5814 ;geometry_boy.c:653: return LEVEL_SELECT;
      001AA5 1E 02                 5815 	ld	e, #0x02
      001AA7 C3r20r1E              5816 	jp	00149$
      001AAA                       5817 00106$:
                                   5818 ;geometry_boy.c:656: tick_player();
      001AAA CDrA6r17              5819 	call	_tick_player
                                   5820 ;geometry_boy.c:657: render_player();
      001AAD CDrFEr17              5821 	call	_render_player
                                   5822 ;geometry_boy.c:659: SWITCH_ROM_MBC1(level_banks[level_ind]);
      001AB0 3Er1B                 5823 	ld	a, #<(_level_banks)
      001AB2 21r12r00              5824 	ld	hl, #_level_ind
      001AB5 86                    5825 	add	a, (hl)
      001AB6 4F                    5826 	ld	c, a
      001AB7 3Es00                 5827 	ld	a, #>(_level_banks)
      001AB9 CE 00                 5828 	adc	a, #0x00
      001ABB 47                    5829 	ld	b, a
      001ABC 0A                    5830 	ld	a, (bc)
      001ABD E0r00                 5831 	ldh	(__current_bank + 0), a
      001ABF EA 00 20              5832 	ld	(#0x2000),a
                                   5833 ;geometry_boy.c:660: scroll_bkg_x(player_dx, level_maps[level_ind], level_widths[level_ind]);
      001AC2 21r12r00              5834 	ld	hl, #_level_ind
      001AC5 6E                    5835 	ld	l, (hl)
                                   5836 ;	spillPairReg hl
                                   5837 ;	spillPairReg hl
      001AC6 26 00                 5838 	ld	h, #0x00
                                   5839 ;	spillPairReg hl
                                   5840 ;	spillPairReg hl
      001AC8 29                    5841 	add	hl, hl
      001AC9 4D                    5842 	ld	c, l
      001ACA 44                    5843 	ld	b, h
      001ACB 21r17r00              5844 	ld	hl, #_level_widths
      001ACE 09                    5845 	add	hl, bc
      001ACF 5D                    5846 	ld	e, l
      001AD0 54                    5847 	ld	d, h
      001AD1 1A                    5848 	ld	a, (de)
      001AD2 F8 04                 5849 	ldhl	sp,	#4
      001AD4 22                    5850 	ld	(hl+), a
      001AD5 13                    5851 	inc	de
      001AD6 1A                    5852 	ld	a, (de)
      001AD7 77                    5853 	ld	(hl), a
      001AD8 21r13r00              5854 	ld	hl, #_level_maps
      001ADB 09                    5855 	add	hl, bc
      001ADC 2A                    5856 	ld	a, (hl+)
      001ADD 4F                    5857 	ld	c, a
      001ADE 46                    5858 	ld	b, (hl)
      001ADF F8 04                 5859 	ldhl	sp,	#4
      001AE1 2A                    5860 	ld	a, (hl+)
      001AE2 5F                    5861 	ld	e, a
      001AE3 56                    5862 	ld	d, (hl)
      001AE4 D5                    5863 	push	de
      001AE5 C5                    5864 	push	bc
      001AE6 FAr01r00              5865 	ld	a, (#_player_dx)
      001AE9 F5                    5866 	push	af
      001AEA 33                    5867 	inc	sp
      001AEB CDr2Cr08              5868 	call	_scroll_bkg_x
      001AEE E8 05                 5869 	add	sp, #5
                                   5870 ;geometry_boy.c:661: SWITCH_ROM_MBC1(saved_bank);
      001AF0 21r05r00              5871 	ld	hl, #_saved_bank
      001AF3 7E                    5872 	ld	a, (hl)
      001AF4 E0r00                 5873 	ldh	(__current_bank + 0), a
      001AF6 11 00 20              5874 	ld	de, #0x2000
      001AF9 7E                    5875 	ld	a, (hl)
      001AFA 12                    5876 	ld	(de), a
                                   5877 ;geometry_boy.c:663: update_HUD_bar();
      001AFB CDr00r00              5878 	call	_update_HUD_bar
                                   5879 ;geometry_boy.c:665: if (lose)
      001AFE FAr07r00              5880 	ld	a, (#_lose)
      001B01 B7                    5881 	or	a, a
      001B02 CAr4Ar1C              5882 	jp	Z, 00114$
                                   5883 ;geometry_boy.c:667: SWITCH_ROM_MBC1(level_banks[level_ind]);
      001B05 3Er1B                 5884 	ld	a, #<(_level_banks)
      001B07 21r12r00              5885 	ld	hl, #_level_ind
      001B0A 86                    5886 	add	a, (hl)
      001B0B 4F                    5887 	ld	c, a
      001B0C 3Es00                 5888 	ld	a, #>(_level_banks)
      001B0E CE 00                 5889 	adc	a, #0x00
      001B10 47                    5890 	ld	b, a
      001B11 0A                    5891 	ld	a, (bc)
      001B12 E0r00                 5892 	ldh	(__current_bank + 0), a
      001B14 EA 00 20              5893 	ld	(#0x2000),a
                                   5894 ;geometry_boy.c:668: init_background(level_maps[level_ind], level_widths[level_ind]);
      001B17 21r12r00              5895 	ld	hl, #_level_ind
      001B1A 6E                    5896 	ld	l, (hl)
                                   5897 ;	spillPairReg hl
                                   5898 ;	spillPairReg hl
      001B1B 26 00                 5899 	ld	h, #0x00
                                   5900 ;	spillPairReg hl
                                   5901 ;	spillPairReg hl
      001B1D 29                    5902 	add	hl, hl
      001B1E 4D                    5903 	ld	c, l
      001B1F 44                    5904 	ld	b, h
      001B20 21r17r00              5905 	ld	hl, #_level_widths
      001B23 09                    5906 	add	hl, bc
      001B24 5D                    5907 	ld	e, l
      001B25 54                    5908 	ld	d, h
      001B26 1A                    5909 	ld	a, (de)
      001B27 F8 04                 5910 	ldhl	sp,	#4
      001B29 22                    5911 	ld	(hl+), a
      001B2A 13                    5912 	inc	de
      001B2B 1A                    5913 	ld	a, (de)
      001B2C 77                    5914 	ld	(hl), a
      001B2D 21r13r00              5915 	ld	hl, #_level_maps
      001B30 09                    5916 	add	hl, bc
      001B31 2A                    5917 	ld	a, (hl+)
      001B32 4F                    5918 	ld	c, a
      001B33 46                    5919 	ld	b, (hl)
      001B34 F8 04                 5920 	ldhl	sp,	#4
      001B36 2A                    5921 	ld	a, (hl+)
      001B37 5F                    5922 	ld	e, a
      001B38 56                    5923 	ld	d, (hl)
      001B39 D5                    5924 	push	de
      001B3A C5                    5925 	push	bc
      001B3B CDrF5r08              5926 	call	_init_background
      001B3E E8 04                 5927 	add	sp, #4
                                   5928 ;geometry_boy.c:669: SWITCH_ROM_MBC1(saved_bank);
      001B40 21r05r00              5929 	ld	hl, #_saved_bank
      001B43 7E                    5930 	ld	a, (hl)
      001B44 E0r00                 5931 	ldh	(__current_bank + 0), a
      001B46 11 00 20              5932 	ld	de, #0x2000
      001B49 7E                    5933 	ld	a, (hl)
      001B4A 12                    5934 	ld	(de), a
                                   5935 ;geometry_boy.c:670: ENABLE_RAM_MBC1;
      001B4B 21 00 00              5936 	ld	hl, #0x0000
      001B4E 36 0A                 5937 	ld	(hl), #0x0a
                                   5938 ;geometry_boy.c:671: *(attempts[level_ind]) = *(attempts[level_ind])+1;
      001B50 21r12r00              5939 	ld	hl, #_level_ind
      001B53 6E                    5940 	ld	l, (hl)
                                   5941 ;	spillPairReg hl
                                   5942 ;	spillPairReg hl
      001B54 26 00                 5943 	ld	h, #0x00
                                   5944 ;	spillPairReg hl
                                   5945 ;	spillPairReg hl
      001B56 29                    5946 	add	hl, hl
      001B57 11r07r00              5947 	ld	de, #_attempts
      001B5A 19                    5948 	add	hl, de
      001B5B 2A                    5949 	ld	a, (hl+)
      001B5C 4F                    5950 	ld	c, a
      001B5D 46                    5951 	ld	b, (hl)
      001B5E 69                    5952 	ld	l, c
      001B5F 60                    5953 	ld	h, b
      001B60 23                    5954 	inc	hl
      001B61 3A                    5955 	ld	a,	(hl-)
                                   5956 ;	spillPairReg hl
      001B62 5E                    5957 	ld	e, (hl)
      001B63 57                    5958 	ld	d, a
      001B64 13                    5959 	inc	de
      001B65 7B                    5960 	ld	a, e
      001B66 02                    5961 	ld	(bc), a
      001B67 03                    5962 	inc	bc
      001B68 7A                    5963 	ld	a, d
      001B69 02                    5964 	ld	(bc), a
                                   5965 ;geometry_boy.c:672: if (background_x_shift + player_x > *(px_progress[level_ind]))
      001B6A 21r03r00              5966 	ld	hl, #_player_x
      001B6D 4E                    5967 	ld	c, (hl)
      001B6E 06 00                 5968 	ld	b, #0x00
      001B70 21r0Br00              5969 	ld	hl, #_background_x_shift
      001B73 6E                    5970 	ld	l, (hl)
                                   5971 ;	spillPairReg hl
                                   5972 ;	spillPairReg hl
      001B74 FAr0Cr00              5973 	ld	a, (_background_x_shift + 1)
      001B77 67                    5974 	ld	h, a
                                   5975 ;	spillPairReg hl
                                   5976 ;	spillPairReg hl
      001B78 09                    5977 	add	hl, bc
      001B79 4D                    5978 	ld	c, l
      001B7A 44                    5979 	ld	b, h
      001B7B 21r12r00              5980 	ld	hl, #_level_ind
      001B7E 6E                    5981 	ld	l, (hl)
                                   5982 ;	spillPairReg hl
                                   5983 ;	spillPairReg hl
      001B7F 26 00                 5984 	ld	h, #0x00
                                   5985 ;	spillPairReg hl
                                   5986 ;	spillPairReg hl
      001B81 29                    5987 	add	hl, hl
      001B82 11r0Br00              5988 	ld	de, #_px_progress
      001B85 19                    5989 	add	hl, de
      001B86 5D                    5990 	ld	e, l
      001B87 54                    5991 	ld	d, h
      001B88 1A                    5992 	ld	a, (de)
      001B89 F8 04                 5993 	ldhl	sp,	#4
      001B8B 22                    5994 	ld	(hl+), a
      001B8C 13                    5995 	inc	de
      001B8D 1A                    5996 	ld	a, (de)
      001B8E 77                    5997 	ld	(hl), a
      001B8F F8 04                 5998 	ldhl	sp,#4
      001B91 2A                    5999 	ld	a, (hl+)
      001B92 5F                    6000 	ld	e, a
      001B93 56                    6001 	ld	d, (hl)
      001B94 1A                    6002 	ld	a, (de)
      001B95 6F                    6003 	ld	l, a
                                   6004 ;	spillPairReg hl
                                   6005 ;	spillPairReg hl
      001B96 13                    6006 	inc	de
      001B97 1A                    6007 	ld	a, (de)
      001B98 67                    6008 	ld	h, a
                                   6009 ;	spillPairReg hl
                                   6010 ;	spillPairReg hl
      001B99 7D                    6011 	ld	a, l
      001B9A 91                    6012 	sub	a, c
      001B9B 7C                    6013 	ld	a, h
      001B9C 98                    6014 	sbc	a, b
      001B9D 30 08                 6015 	jr	NC, 00108$
                                   6016 ;geometry_boy.c:674: *(px_progress[level_ind]) = background_x_shift + player_x;
      001B9F F8 04                 6017 	ldhl	sp,	#4
      001BA1 2A                    6018 	ld	a,	(hl+)
      001BA2 66                    6019 	ld	h, (hl)
      001BA3 6F                    6020 	ld	l, a
      001BA4 79                    6021 	ld	a, c
      001BA5 22                    6022 	ld	(hl+), a
      001BA6 70                    6023 	ld	(hl), b
      001BA7                       6024 00108$:
                                   6025 ;geometry_boy.c:676: DISABLE_RAM_MBC1;
      001BA7 21 00 00              6026 	ld	hl, #0x0000
      001BAA 36 00                 6027 	ld	(hl), #0x00
                                   6028 ;geometry_boy.c:175: vbl_count = 0;
      001BAC 21r06r00              6029 	ld	hl, #_vbl_count
      001BAF 36 00                 6030 	ld	(hl), #0x00
                                   6031 ;geometry_boy.c:176: background_x_shift = 0;
      001BB1 AF                    6032 	xor	a, a
      001BB2 21r0Br00              6033 	ld	hl, #_background_x_shift
      001BB5 22                    6034 	ld	(hl+), a
      001BB6 77                    6035 	ld	(hl), a
                                   6036 ;geometry_boy.c:177: old_scroll_x = 0;
      001BB7 AF                    6037 	xor	a, a
      001BB8 21r0Fr00              6038 	ld	hl, #_old_scroll_x
      001BBB 22                    6039 	ld	(hl+), a
      001BBC 77                    6040 	ld	(hl), a
                                   6041 ;geometry_boy.c:178: old_background_x_shift = 8 + 3;
      001BBD 21r0Dr00              6042 	ld	hl, #_old_background_x_shift
      001BC0 3E 0B                 6043 	ld	a, #0x0b
      001BC2 22                    6044 	ld	(hl+), a
      001BC3 AF                    6045 	xor	a, a
      001BC4 77                    6046 	ld	(hl), a
                                   6047 ;geometry_boy.c:179: player_y = PLAYER_START_Y;
      001BC5 21r02r00              6048 	ld	hl, #_player_y
      001BC8 36 90                 6049 	ld	(hl), #0x90
                                   6050 ;geometry_boy.c:180: player_x = PLAYER_START_X;
      001BCA 21r03r00              6051 	ld	hl, #_player_x
      001BCD 36 20                 6052 	ld	(hl), #0x20
                                   6053 ;geometry_boy.c:181: player_dx = 3;
      001BCF 21r01r00              6054 	ld	hl, #_player_dx
      001BD2 36 03                 6055 	ld	(hl), #0x03
                                   6056 ;geometry_boy.c:182: on_ground = 1;
      001BD4 21r05r00              6057 	ld	hl, #_on_ground
      001BD7 36 01                 6058 	ld	(hl), #0x01
                                   6059 ;geometry_boy.c:183: lose = 0;
      001BD9 21r07r00              6060 	ld	hl, #_lose
      001BDC 36 00                 6061 	ld	(hl), #0x00
                                   6062 ;geometry_boy.c:184: win = 0;
      001BDE 21r06r00              6063 	ld	hl, #_win
      001BE1 36 00                 6064 	ld	(hl), #0x00
                                   6065 ;geometry_boy.c:185: tick = 0;
      001BE3 21r0Ar00              6066 	ld	hl, #_tick
      001BE6 36 00                 6067 	ld	(hl), #0x00
                                   6068 ;geometry_boy.c:186: parallax_tile_ind = 0;
      001BE8 21r11r00              6069 	ld	hl, #_parallax_tile_ind
      001BEB 36 00                 6070 	ld	(hl), #0x00
                                   6071 ;geometry_boy.c:189: prev_jpad = 0;
      001BED 21r08r00              6072 	ld	hl, #_prev_jpad
      001BF0 36 00                 6073 	ld	(hl), #0x00
                                   6074 ;geometry_boy.c:190: jpad = 0;
      001BF2 21r09r00              6075 	ld	hl, #_jpad
      001BF5 36 00                 6076 	ld	(hl), #0x00
                                   6077 ;geometry_boy.c:191: SCX_REG = 0;
      001BF7 3E 00                 6078 	ld	a, #0x00
      001BF9 E0r00                 6079 	ldh	(_SCX_REG + 0), a
                                   6080 ;geometry_boy.c:678: current_attempts++;
      001BFB 21r1Dr00              6081 	ld	hl, #_current_attempts
      001BFE 34                    6082 	inc	(hl)
      001BFF 20 02                 6083 	jr	NZ, 00258$
      001C01 23                    6084 	inc	hl
      001C02 34                    6085 	inc	(hl)
      001C03                       6086 00258$:
                                   6087 ;geometry_boy.c:228: uint16_t temp = current_attempts;
      001C03 21r1Dr00              6088 	ld	hl, #_current_attempts
      001C06 4E                    6089 	ld	c, (hl)
      001C07 23                    6090 	inc	hl
      001C08 46                    6091 	ld	b, (hl)
                                   6092 ;geometry_boy.c:229: for (render_col = 10; render_col >= 8; render_col--)
      001C09 21r02r00              6093 	ld	hl, #_render_col
      001C0C 36 0A                 6094 	ld	(hl), #0x0a
      001C0E                       6095 00147$:
                                   6096 ;geometry_boy.c:231: set_win_tile_xy(render_col, 0, temp % 10 + NUMBER_TILES);
      001C0E C5                    6097 	push	bc
      001C0F 11 0A 00              6098 	ld	de, #0x000a
      001C12 D5                    6099 	push	de
      001C13 C5                    6100 	push	bc
      001C14 CDr00r00              6101 	call	__moduint
      001C17 E8 04                 6102 	add	sp, #4
      001C19 C1                    6103 	pop	bc
      001C1A 7B                    6104 	ld	a, e
      001C1B C6 0D                 6105 	add	a, #0x0d
      001C1D F5                    6106 	push	af
      001C1E 33                    6107 	inc	sp
      001C1F AF                    6108 	xor	a, a
      001C20 F5                    6109 	push	af
      001C21 33                    6110 	inc	sp
      001C22 FAr02r00              6111 	ld	a, (#_render_col)
      001C25 F5                    6112 	push	af
      001C26 33                    6113 	inc	sp
      001C27 CDr00r00              6114 	call	_set_win_tile_xy
      001C2A E8 03                 6115 	add	sp, #3
                                   6116 ;geometry_boy.c:232: temp = temp / 10;
      001C2C 11 0A 00              6117 	ld	de, #0x000a
      001C2F D5                    6118 	push	de
      001C30 C5                    6119 	push	bc
      001C31 CDr00r00              6120 	call	__divuint
      001C34 E8 04                 6121 	add	sp, #4
      001C36 4B                    6122 	ld	c, e
      001C37 42                    6123 	ld	b, d
                                   6124 ;geometry_boy.c:229: for (render_col = 10; render_col >= 8; render_col--)
      001C38 21r02r00              6125 	ld	hl, #_render_col
      001C3B 35                    6126 	dec	(hl)
      001C3C 7E                    6127 	ld	a, (hl)
      001C3D D6 08                 6128 	sub	a, #0x08
      001C3F 30 CD                 6129 	jr	NC, 00147$
                                   6130 ;geometry_boy.c:680: update_HUD_bar();
      001C41 CDr00r00              6131 	call	_update_HUD_bar
                                   6132 ;geometry_boy.c:681: wait_vbl_done();
      001C44 CDr00r00              6133 	call	_wait_vbl_done
      001C47 C3r5Er1D              6134 	jp	00115$
      001C4A                       6135 00114$:
                                   6136 ;geometry_boy.c:682: } else if (win){
      001C4A 21r06r00              6137 	ld	hl, #_win
      001C4D 7E                    6138 	ld	a, (hl)
      001C4E B7                    6139 	or	a, a
      001C4F CAr5Er1D              6140 	jp	Z, 00115$
                                   6141 ;../gbdk/include/gb/gb.h:660: __asm__("di");
      001C52 F3                    6142 	di
                                   6143 ;geometry_boy.c:684: remove_LCD(lcd_interrupt_game);
      001C53 11rC3r07              6144 	ld	de, #_lcd_interrupt_game
      001C56 D5                    6145 	push	de
      001C57 CDr00r00              6146 	call	_remove_LCD
      001C5A E1                    6147 	pop	hl
                                   6148 ;geometry_boy.c:685: remove_VBL(vbl_interrupt_game);
      001C5B 11rCAr07              6149 	ld	de, #_vbl_interrupt_game
      001C5E D5                    6150 	push	de
      001C5F CDr00r00              6151 	call	_remove_VBL
      001C62 33                    6152 	inc	sp
      001C63 33                    6153 	inc	sp
                                   6154 ;../gbdk/include/gb/gb.h:644: __asm__("ei");
      001C64 FB                    6155 	ei
                                   6156 ;geometry_boy.c:687: ENABLE_RAM_MBC1;
      001C65 21 00 00              6157 	ld	hl, #0x0000
      001C68 36 0A                 6158 	ld	(hl), #0x0a
                                   6159 ;geometry_boy.c:688: *(attempts[level_ind]) = *(attempts[level_ind])+1;
      001C6A 21r12r00              6160 	ld	hl, #_level_ind
      001C6D 6E                    6161 	ld	l, (hl)
                                   6162 ;	spillPairReg hl
                                   6163 ;	spillPairReg hl
      001C6E 26 00                 6164 	ld	h, #0x00
                                   6165 ;	spillPairReg hl
                                   6166 ;	spillPairReg hl
      001C70 29                    6167 	add	hl, hl
      001C71 11r07r00              6168 	ld	de, #_attempts
      001C74 19                    6169 	add	hl, de
      001C75 2A                    6170 	ld	a, (hl+)
      001C76 4F                    6171 	ld	c, a
      001C77 46                    6172 	ld	b, (hl)
      001C78 69                    6173 	ld	l, c
      001C79 60                    6174 	ld	h, b
      001C7A 23                    6175 	inc	hl
      001C7B 3A                    6176 	ld	a,	(hl-)
                                   6177 ;	spillPairReg hl
      001C7C 5E                    6178 	ld	e, (hl)
      001C7D 57                    6179 	ld	d, a
      001C7E 13                    6180 	inc	de
      001C7F 7B                    6181 	ld	a, e
      001C80 02                    6182 	ld	(bc), a
      001C81 03                    6183 	inc	bc
      001C82 7A                    6184 	ld	a, d
      001C83 02                    6185 	ld	(bc), a
                                   6186 ;geometry_boy.c:689: if (background_x_shift + player_x > *(px_progress[level_ind]))
      001C84 21r03r00              6187 	ld	hl, #_player_x
      001C87 4E                    6188 	ld	c, (hl)
      001C88 06 00                 6189 	ld	b, #0x00
      001C8A 21r0Br00              6190 	ld	hl, #_background_x_shift
      001C8D 6E                    6191 	ld	l, (hl)
                                   6192 ;	spillPairReg hl
                                   6193 ;	spillPairReg hl
      001C8E FAr0Cr00              6194 	ld	a, (_background_x_shift + 1)
      001C91 67                    6195 	ld	h, a
                                   6196 ;	spillPairReg hl
                                   6197 ;	spillPairReg hl
      001C92 09                    6198 	add	hl, bc
      001C93 4D                    6199 	ld	c, l
      001C94 44                    6200 	ld	b, h
      001C95 21r12r00              6201 	ld	hl, #_level_ind
      001C98 5E                    6202 	ld	e, (hl)
      001C99 16 00                 6203 	ld	d, #0x00
      001C9B CB 23                 6204 	sla	e
      001C9D CB 12                 6205 	rl	d
      001C9F F8 02                 6206 	ldhl	sp,	#2
      001CA1 7B                    6207 	ld	a, e
      001CA2 22                    6208 	ld	(hl+), a
      001CA3 72                    6209 	ld	(hl), d
      001CA4 11r0Br00              6210 	ld	de, #_px_progress
      001CA7 3A                    6211 	ld	a, (hl-)
      001CA8 6E                    6212 	ld	l, (hl)
      001CA9 67                    6213 	ld	h, a
      001CAA 19                    6214 	add	hl, de
      001CAB E5                    6215 	push	hl
      001CAC 7D                    6216 	ld	a, l
      001CAD F8 06                 6217 	ldhl	sp,	#6
      001CAF 77                    6218 	ld	(hl), a
      001CB0 E1                    6219 	pop	hl
      001CB1 7C                    6220 	ld	a, h
      001CB2 F8 05                 6221 	ldhl	sp,	#5
      001CB4 32                    6222 	ld	(hl-), a
      001CB5 2A                    6223 	ld	a, (hl+)
      001CB6 5F                    6224 	ld	e, a
      001CB7 3A                    6225 	ld	a, (hl-)
      001CB8 57                    6226 	ld	d, a
      001CB9 1A                    6227 	ld	a, (de)
      001CBA 22                    6228 	ld	(hl+), a
      001CBB 13                    6229 	inc	de
      001CBC 1A                    6230 	ld	a, (de)
      001CBD 32                    6231 	ld	(hl-), a
      001CBE 2A                    6232 	ld	a, (hl+)
      001CBF 5F                    6233 	ld	e, a
      001CC0 56                    6234 	ld	d, (hl)
      001CC1 1A                    6235 	ld	a, (de)
      001CC2 6F                    6236 	ld	l, a
                                   6237 ;	spillPairReg hl
                                   6238 ;	spillPairReg hl
      001CC3 13                    6239 	inc	de
      001CC4 1A                    6240 	ld	a, (de)
      001CC5 67                    6241 	ld	h, a
                                   6242 ;	spillPairReg hl
                                   6243 ;	spillPairReg hl
      001CC6 7D                    6244 	ld	a, l
      001CC7 91                    6245 	sub	a, c
      001CC8 7C                    6246 	ld	a, h
      001CC9 98                    6247 	sbc	a, b
      001CCA 30 21                 6248 	jr	NC, 00110$
                                   6249 ;geometry_boy.c:691: *(px_progress[level_ind]) = (level_widths[level_ind] - LEVEL_END_OFFSET) << 3;
      001CCC F8 02                 6250 	ldhl	sp,#2
      001CCE 2A                    6251 	ld	a, (hl+)
      001CCF 5F                    6252 	ld	e, a
      001CD0 56                    6253 	ld	d, (hl)
      001CD1 21r17r00              6254 	ld	hl, #_level_widths
      001CD4 19                    6255 	add	hl, de
      001CD5 2A                    6256 	ld	a, (hl+)
      001CD6 4F                    6257 	ld	c, a
      001CD7 46                    6258 	ld	b, (hl)
      001CD8 79                    6259 	ld	a, c
      001CD9 C6 EC                 6260 	add	a, #0xec
      001CDB 6F                    6261 	ld	l, a
                                   6262 ;	spillPairReg hl
                                   6263 ;	spillPairReg hl
      001CDC 78                    6264 	ld	a, b
      001CDD CE FF                 6265 	adc	a, #0xff
      001CDF 67                    6266 	ld	h, a
                                   6267 ;	spillPairReg hl
                                   6268 ;	spillPairReg hl
      001CE0 29                    6269 	add	hl, hl
      001CE1 29                    6270 	add	hl, hl
      001CE2 29                    6271 	add	hl, hl
      001CE3 4D                    6272 	ld	c, l
      001CE4 44                    6273 	ld	b, h
      001CE5 F8 04                 6274 	ldhl	sp,	#4
      001CE7 2A                    6275 	ld	a,	(hl+)
      001CE8 66                    6276 	ld	h, (hl)
      001CE9 6F                    6277 	ld	l, a
      001CEA 79                    6278 	ld	a, c
      001CEB 22                    6279 	ld	(hl+), a
      001CEC 70                    6280 	ld	(hl), b
      001CED                       6281 00110$:
                                   6282 ;geometry_boy.c:693: player_x = 0;
      001CED 21r03r00              6283 	ld	hl, #_player_x
      001CF0 36 00                 6284 	ld	(hl), #0x00
                                   6285 ;geometry_boy.c:694: player_y = 0;
      001CF2 21r02r00              6286 	ld	hl, #_player_y
      001CF5 36 00                 6287 	ld	(hl), #0x00
                                   6288 ;geometry_boy.c:695: render_player();
      001CF7 CDrFEr17              6289 	call	_render_player
                                   6290 ;geometry_boy.c:175: vbl_count = 0;
      001CFA 21r06r00              6291 	ld	hl, #_vbl_count
      001CFD 36 00                 6292 	ld	(hl), #0x00
                                   6293 ;geometry_boy.c:176: background_x_shift = 0;
      001CFF AF                    6294 	xor	a, a
      001D00 21r0Br00              6295 	ld	hl, #_background_x_shift
      001D03 22                    6296 	ld	(hl+), a
      001D04 77                    6297 	ld	(hl), a
                                   6298 ;geometry_boy.c:177: old_scroll_x = 0;
      001D05 AF                    6299 	xor	a, a
      001D06 21r0Fr00              6300 	ld	hl, #_old_scroll_x
      001D09 22                    6301 	ld	(hl+), a
      001D0A 77                    6302 	ld	(hl), a
                                   6303 ;geometry_boy.c:178: old_background_x_shift = 8 + 3;
      001D0B 21r0Dr00              6304 	ld	hl, #_old_background_x_shift
      001D0E 3E 0B                 6305 	ld	a, #0x0b
      001D10 22                    6306 	ld	(hl+), a
      001D11 AF                    6307 	xor	a, a
      001D12 77                    6308 	ld	(hl), a
                                   6309 ;geometry_boy.c:179: player_y = PLAYER_START_Y;
      001D13 21r02r00              6310 	ld	hl, #_player_y
      001D16 36 90                 6311 	ld	(hl), #0x90
                                   6312 ;geometry_boy.c:180: player_x = PLAYER_START_X;
      001D18 21r03r00              6313 	ld	hl, #_player_x
      001D1B 36 20                 6314 	ld	(hl), #0x20
                                   6315 ;geometry_boy.c:181: player_dx = 3;
      001D1D 21r01r00              6316 	ld	hl, #_player_dx
      001D20 36 03                 6317 	ld	(hl), #0x03
                                   6318 ;geometry_boy.c:182: on_ground = 1;
      001D22 21r05r00              6319 	ld	hl, #_on_ground
      001D25 36 01                 6320 	ld	(hl), #0x01
                                   6321 ;geometry_boy.c:183: lose = 0;
      001D27 21r07r00              6322 	ld	hl, #_lose
      001D2A 36 00                 6323 	ld	(hl), #0x00
                                   6324 ;geometry_boy.c:184: win = 0;
      001D2C 21r06r00              6325 	ld	hl, #_win
      001D2F 36 00                 6326 	ld	(hl), #0x00
                                   6327 ;geometry_boy.c:185: tick = 0;
      001D31 21r0Ar00              6328 	ld	hl, #_tick
      001D34 36 00                 6329 	ld	(hl), #0x00
                                   6330 ;geometry_boy.c:186: parallax_tile_ind = 0;
      001D36 21r11r00              6331 	ld	hl, #_parallax_tile_ind
      001D39 36 00                 6332 	ld	(hl), #0x00
                                   6333 ;geometry_boy.c:189: prev_jpad = 0;
      001D3B 21r08r00              6334 	ld	hl, #_prev_jpad
      001D3E 36 00                 6335 	ld	(hl), #0x00
                                   6336 ;geometry_boy.c:190: jpad = 0;
      001D40 21r09r00              6337 	ld	hl, #_jpad
      001D43 36 00                 6338 	ld	(hl), #0x00
                                   6339 ;geometry_boy.c:191: SCX_REG = 0;
      001D45 AF                    6340 	xor	a, a
      001D46 E0r00                 6341 	ldh	(_SCX_REG + 0), a
                                   6342 ;geometry_boy.c:697: DISABLE_RAM_MBC1;
      001D48 21 00 00              6343 	ld	hl, #0x0000
      001D4B 36 00                 6344 	ld	(hl), #0x00
                                   6345 ;geometry_boy.c:698: HIDE_WIN;
      001D4D F0r00                 6346 	ldh	a, (_LCDC_REG + 0)
      001D4F E6 DF                 6347 	and	a, #0xdf
      001D51 E0r00                 6348 	ldh	(_LCDC_REG + 0), a
                                   6349 ;geometry_boy.c:699: HIDE_SPRITES;
      001D53 F0r00                 6350 	ldh	a, (_LCDC_REG + 0)
      001D55 E6 FD                 6351 	and	a, #0xfd
      001D57 E0r00                 6352 	ldh	(_LCDC_REG + 0), a
                                   6353 ;geometry_boy.c:700: return LEVEL_SELECT;
      001D59 1E 02                 6354 	ld	e, #0x02
      001D5B C3r20r1E              6355 	jp	00149$
      001D5E                       6356 00115$:
                                   6357 ;geometry_boy.c:703: parallax_tile_ind += 16;
      001D5E 21r11r00              6358 	ld	hl, #_parallax_tile_ind
      001D61 7E                    6359 	ld	a, (hl)
      001D62 C6 10                 6360 	add	a, #0x10
      001D64 77                    6361 	ld	(hl), a
                                   6362 ;geometry_boy.c:704: if (parallax_tile_ind > 112)
      001D65 3E 70                 6363 	ld	a, #0x70
      001D67 96                    6364 	sub	a, (hl)
      001D68 30 02                 6365 	jr	NC, 00117$
                                   6366 ;geometry_boy.c:706: parallax_tile_ind = 0;
      001D6A 36 00                 6367 	ld	(hl), #0x00
      001D6C                       6368 00117$:
                                   6369 ;geometry_boy.c:708: SWITCH_ROM_MBC1(parallax_tileset_v2Bank);
      001D6C 3E 02                 6370 	ld	a, #0x02
      001D6E E0r00                 6371 	ldh	(__current_bank + 0), a
      001D70 21 00 20              6372 	ld	hl, #0x2000
      001D73 36 02                 6373 	ld	(hl), #0x02
                                   6374 ;geometry_boy.c:709: set_bkg_data(0, 1, parallax_tileset_v2 + parallax_tile_ind);     // load tiles into VRAM
      001D75 3Er00                 6375 	ld	a, #<(_parallax_tileset_v2)
      001D77 21r11r00              6376 	ld	hl, #_parallax_tile_ind
      001D7A 86                    6377 	add	a, (hl)
      001D7B 4F                    6378 	ld	c, a
      001D7C 3Es00                 6379 	ld	a, #>(_parallax_tileset_v2)
      001D7E CE 00                 6380 	adc	a, #0x00
      001D80 47                    6381 	ld	b, a
      001D81 C5                    6382 	push	bc
      001D82 AF                    6383 	xor	a, a
      001D83 3C                    6384 	inc	a
      001D84 F5                    6385 	push	af
      001D85 CDr00r00              6386 	call	_set_bkg_data
      001D88 E8 04                 6387 	add	sp, #4
                                   6388 ;geometry_boy.c:710: set_bkg_data(0x5, 1, small_spike_parallax + parallax_tile_ind);  // load tiles into VRAM
      001D8A 3Er00                 6389 	ld	a, #<(_small_spike_parallax)
      001D8C 21r11r00              6390 	ld	hl, #_parallax_tile_ind
      001D8F 86                    6391 	add	a, (hl)
      001D90 4F                    6392 	ld	c, a
      001D91 3Es00                 6393 	ld	a, #>(_small_spike_parallax)
      001D93 CE 00                 6394 	adc	a, #0x00
      001D95 47                    6395 	ld	b, a
      001D96 C5                    6396 	push	bc
      001D97 21 05 01              6397 	ld	hl, #0x105
      001D9A E5                    6398 	push	hl
      001D9B CDr00r00              6399 	call	_set_bkg_data
      001D9E E8 04                 6400 	add	sp, #4
                                   6401 ;geometry_boy.c:711: set_bkg_data(0x4, 1, big_spike_parallax + parallax_tile_ind);    // load tiles into VRAM
      001DA0 3Er00                 6402 	ld	a, #<(_big_spike_parallax)
      001DA2 21r11r00              6403 	ld	hl, #_parallax_tile_ind
      001DA5 86                    6404 	add	a, (hl)
      001DA6 4F                    6405 	ld	c, a
      001DA7 3Es00                 6406 	ld	a, #>(_big_spike_parallax)
      001DA9 CE 00                 6407 	adc	a, #0x00
      001DAB 47                    6408 	ld	b, a
      001DAC C5                    6409 	push	bc
      001DAD 21 04 01              6410 	ld	hl, #0x104
      001DB0 E5                    6411 	push	hl
      001DB1 CDr00r00              6412 	call	_set_bkg_data
      001DB4 E8 04                 6413 	add	sp, #4
                                   6414 ;geometry_boy.c:712: set_bkg_data(0x08, 1, half_block_parallax + parallax_tile_ind);  // load tiles into VRAM
      001DB6 3Er00                 6415 	ld	a, #<(_half_block_parallax)
      001DB8 21r11r00              6416 	ld	hl, #_parallax_tile_ind
      001DBB 86                    6417 	add	a, (hl)
      001DBC 4F                    6418 	ld	c, a
      001DBD 3Es00                 6419 	ld	a, #>(_half_block_parallax)
      001DBF CE 00                 6420 	adc	a, #0x00
      001DC1 47                    6421 	ld	b, a
      001DC2 C5                    6422 	push	bc
      001DC3 21 08 01              6423 	ld	hl, #0x108
      001DC6 E5                    6424 	push	hl
      001DC7 CDr00r00              6425 	call	_set_bkg_data
      001DCA E8 04                 6426 	add	sp, #4
                                   6427 ;geometry_boy.c:713: set_bkg_data(0x06, 1, jump_circle_parallax + parallax_tile_ind); // load tiles into VRAM
      001DCC 3Er00                 6428 	ld	a, #<(_jump_circle_parallax)
      001DCE 21r11r00              6429 	ld	hl, #_parallax_tile_ind
      001DD1 86                    6430 	add	a, (hl)
      001DD2 4F                    6431 	ld	c, a
      001DD3 3Es00                 6432 	ld	a, #>(_jump_circle_parallax)
      001DD5 CE 00                 6433 	adc	a, #0x00
      001DD7 47                    6434 	ld	b, a
      001DD8 C5                    6435 	push	bc
      001DD9 21 06 01              6436 	ld	hl, #0x106
      001DDC E5                    6437 	push	hl
      001DDD CDr00r00              6438 	call	_set_bkg_data
      001DE0 E8 04                 6439 	add	sp, #4
                                   6440 ;geometry_boy.c:714: set_bkg_data(0x07, 1, jump_tile_parallax + parallax_tile_ind);   // load tiles into VRAM
      001DE2 3Er00                 6441 	ld	a, #<(_jump_tile_parallax)
      001DE4 21r11r00              6442 	ld	hl, #_parallax_tile_ind
      001DE7 86                    6443 	add	a, (hl)
      001DE8 4F                    6444 	ld	c, a
      001DE9 3Es00                 6445 	ld	a, #>(_jump_tile_parallax)
      001DEB CE 00                 6446 	adc	a, #0x00
      001DED 47                    6447 	ld	b, a
      001DEE C5                    6448 	push	bc
      001DEF 21 07 01              6449 	ld	hl, #0x107
      001DF2 E5                    6450 	push	hl
      001DF3 CDr00r00              6451 	call	_set_bkg_data
      001DF6 E8 04                 6452 	add	sp, #4
                                   6453 ;geometry_boy.c:715: SWITCH_ROM_MBC1(saved_bank);
      001DF8 21r05r00              6454 	ld	hl, #_saved_bank
      001DFB 7E                    6455 	ld	a, (hl)
      001DFC E0r00                 6456 	ldh	(__current_bank + 0), a
      001DFE 11 00 20              6457 	ld	de, #0x2000
      001E01 7E                    6458 	ld	a, (hl)
      001E02 12                    6459 	ld	(de), a
                                   6460 ;geometry_boy.c:717: tick++;
      001E03 21r0Ar00              6461 	ld	hl, #_tick
      001E06 34                    6462 	inc	(hl)
                                   6463 ;geometry_boy.c:718: gbt_update(); // This will change to ROM bank 1. Basically play the music
      001E07 CDr00r00              6464 	call	_gbt_update
                                   6465 ;geometry_boy.c:719: delay(8);     // LOOP_DELAY
      001E0A 11 08 00              6466 	ld	de, #0x0008
      001E0D D5                    6467 	push	de
      001E0E CDr00r00              6468 	call	_delay
      001E11 E1                    6469 	pop	hl
                                   6470 ;geometry_boy.c:720: gbt_update(); // This will change to ROM bank 1. Basically play the music
      001E12 CDr00r00              6471 	call	_gbt_update
                                   6472 ;geometry_boy.c:721: delay(8);     // LOOP_DELAY
      001E15 11 08 00              6473 	ld	de, #0x0008
      001E18 D5                    6474 	push	de
      001E19 CDr00r00              6475 	call	_delay
      001E1C E1                    6476 	pop	hl
      001E1D C3rD7r19              6477 	jp	00119$
      001E20                       6478 00149$:
                                   6479 ;geometry_boy.c:723: }
      001E20 E8 06                 6480 	add	sp, #6
      001E22 C9                    6481 	ret
                                   6482 ;geometry_boy.c:752: screen_t title()
                                   6483 ;	---------------------------------
                                   6484 ; Function title
                                   6485 ; ---------------------------------
      001E23                       6486 _title::
      001E23 E8 F7                 6487 	add	sp, #-9
                                   6488 ;../gbdk/include/gb/gb.h:660: __asm__("di");
      001E25 F3                    6489 	di
                                   6490 ;geometry_boy.c:755: add_VBL(vbl_interrupt_title);
      001E26 11rFCr07              6491 	ld	de, #_vbl_interrupt_title
      001E29 D5                    6492 	push	de
      001E2A CDr00r00              6493 	call	_add_VBL
      001E2D 33                    6494 	inc	sp
      001E2E 33                    6495 	inc	sp
                                   6496 ;../gbdk/include/gb/gb.h:644: __asm__("ei");
      001E2F FB                    6497 	ei
                                   6498 ;geometry_boy.c:757: set_interrupts(VBL_IFLAG);
      001E30 3E 01                 6499 	ld	a, #0x01
      001E32 F5                    6500 	push	af
      001E33 33                    6501 	inc	sp
      001E34 CDr00r00              6502 	call	_set_interrupts
      001E37 33                    6503 	inc	sp
                                   6504 ;geometry_boy.c:758: wait_vbl_done();
      001E38 CDr00r00              6505 	call	_wait_vbl_done
                                   6506 ;geometry_boy.c:166: set_bkg_data(0, GB_TILESET_LEN, gb_tileset_v2); // load tiles into VRAM
      001E3B 11rBCr01              6507 	ld	de, #_gb_tileset_v2
      001E3E D5                    6508 	push	de
      001E3F 21 00 0D              6509 	ld	hl, #0xd00
      001E42 E5                    6510 	push	hl
      001E43 CDr00r00              6511 	call	_set_bkg_data
      001E46 E8 04                 6512 	add	sp, #4
                                   6513 ;geometry_boy.c:167: set_bkg_data(GB_TILESET_LEN, AERO_TILESET_LEN, aero + 3 * 16);
      001E48 11rBCr02              6514 	ld	de, #(_aero + 48)
      001E4B D5                    6515 	push	de
      001E4C 21 0D 24              6516 	ld	hl, #0x240d
      001E4F E5                    6517 	push	hl
      001E50 CDr00r00              6518 	call	_set_bkg_data
      001E53 E8 04                 6519 	add	sp, #4
                                   6520 ;geometry_boy.c:168: set_bkg_data(GB_TILESET_LEN + AERO_TILESET_LEN, 1, aero + 47 * 16); // colon
      001E55 11r7Cr05              6521 	ld	de, #(_aero + 752)
      001E58 D5                    6522 	push	de
      001E59 21 31 01              6523 	ld	hl, #0x131
      001E5C E5                    6524 	push	hl
      001E5D CDr00r00              6525 	call	_set_bkg_data
      001E60 E8 04                 6526 	add	sp, #4
                                   6527 ;geometry_boy.c:169: set_bkg_data(GB_TILESET_LEN + AERO_TILESET_LEN + 1, 1, aero + 67 * 16); // percent
      001E62 11rBCr06              6528 	ld	de, #(_aero + 1072)
      001E65 D5                    6529 	push	de
      001E66 21 32 01              6530 	ld	hl, #0x132
      001E69 E5                    6531 	push	hl
      001E6A CDr00r00              6532 	call	_set_bkg_data
      001E6D E8 04                 6533 	add	sp, #4
                                   6534 ;geometry_boy.c:170: set_bkg_data(GB_TILESET_LEN + AERO_TILESET_LEN + 2, 9, progress_bar_tiles);
      001E6F 11r2Cr07              6535 	ld	de, #_progress_bar_tiles
      001E72 D5                    6536 	push	de
      001E73 21 33 09              6537 	ld	hl, #0x933
      001E76 E5                    6538 	push	hl
      001E77 CDr00r00              6539 	call	_set_bkg_data
      001E7A E8 04                 6540 	add	sp, #4
                                   6541 ;geometry_boy.c:175: vbl_count = 0;
      001E7C 21r06r00              6542 	ld	hl, #_vbl_count
      001E7F 36 00                 6543 	ld	(hl), #0x00
                                   6544 ;geometry_boy.c:176: background_x_shift = 0;
      001E81 AF                    6545 	xor	a, a
      001E82 21r0Br00              6546 	ld	hl, #_background_x_shift
      001E85 22                    6547 	ld	(hl+), a
      001E86 77                    6548 	ld	(hl), a
                                   6549 ;geometry_boy.c:177: old_scroll_x = 0;
      001E87 AF                    6550 	xor	a, a
      001E88 21r0Fr00              6551 	ld	hl, #_old_scroll_x
      001E8B 22                    6552 	ld	(hl+), a
      001E8C 77                    6553 	ld	(hl), a
                                   6554 ;geometry_boy.c:178: old_background_x_shift = 8 + 3;
      001E8D 21r0Dr00              6555 	ld	hl, #_old_background_x_shift
      001E90 3E 0B                 6556 	ld	a, #0x0b
      001E92 22                    6557 	ld	(hl+), a
      001E93 AF                    6558 	xor	a, a
      001E94 77                    6559 	ld	(hl), a
                                   6560 ;geometry_boy.c:179: player_y = PLAYER_START_Y;
      001E95 21r02r00              6561 	ld	hl, #_player_y
      001E98 36 90                 6562 	ld	(hl), #0x90
                                   6563 ;geometry_boy.c:180: player_x = PLAYER_START_X;
      001E9A 21r03r00              6564 	ld	hl, #_player_x
      001E9D 36 20                 6565 	ld	(hl), #0x20
                                   6566 ;geometry_boy.c:181: player_dx = 3;
      001E9F 21r01r00              6567 	ld	hl, #_player_dx
      001EA2 36 03                 6568 	ld	(hl), #0x03
                                   6569 ;geometry_boy.c:182: on_ground = 1;
      001EA4 21r05r00              6570 	ld	hl, #_on_ground
      001EA7 36 01                 6571 	ld	(hl), #0x01
                                   6572 ;geometry_boy.c:183: lose = 0;
      001EA9 21r07r00              6573 	ld	hl, #_lose
      001EAC 36 00                 6574 	ld	(hl), #0x00
                                   6575 ;geometry_boy.c:184: win = 0;
      001EAE 21r06r00              6576 	ld	hl, #_win
      001EB1 36 00                 6577 	ld	(hl), #0x00
                                   6578 ;geometry_boy.c:185: tick = 0;
      001EB3 21r0Ar00              6579 	ld	hl, #_tick
      001EB6 36 00                 6580 	ld	(hl), #0x00
                                   6581 ;geometry_boy.c:186: parallax_tile_ind = 0;
      001EB8 21r11r00              6582 	ld	hl, #_parallax_tile_ind
      001EBB 36 00                 6583 	ld	(hl), #0x00
                                   6584 ;geometry_boy.c:189: prev_jpad = 0;
      001EBD 21r08r00              6585 	ld	hl, #_prev_jpad
      001EC0 36 00                 6586 	ld	(hl), #0x00
                                   6587 ;geometry_boy.c:190: jpad = 0;
      001EC2 21r09r00              6588 	ld	hl, #_jpad
      001EC5 36 00                 6589 	ld	(hl), #0x00
                                   6590 ;geometry_boy.c:191: SCX_REG = 0;
      001EC7 AF                    6591 	xor	a, a
      001EC8 E0r00                 6592 	ldh	(_SCX_REG + 0), a
                                   6593 ;geometry_boy.c:763: SWITCH_ROM_MBC1(title_map_v2Bank);
      001ECA 3E 03                 6594 	ld	a, #0x03
      001ECC E0r00                 6595 	ldh	(__current_bank + 0), a
      001ECE 21 00 20              6596 	ld	hl, #0x2000
      001ED1 36 03                 6597 	ld	(hl), #0x03
                                   6598 ;geometry_boy.c:764: init_background(title_map_v2, title_map_v2Width);
      001ED3 11 3C 00              6599 	ld	de, #0x003c
      001ED6 D5                    6600 	push	de
      001ED7 11r00r00              6601 	ld	de, #_title_map_v2
      001EDA D5                    6602 	push	de
      001EDB CDrF5r08              6603 	call	_init_background
      001EDE E8 04                 6604 	add	sp, #4
                                   6605 ;geometry_boy.c:765: SWITCH_ROM_MBC1(saved_bank);
      001EE0 21r05r00              6606 	ld	hl, #_saved_bank
      001EE3 7E                    6607 	ld	a, (hl)
      001EE4 E0r00                 6608 	ldh	(__current_bank + 0), a
      001EE6 11 00 20              6609 	ld	de, #0x2000
      001EE9 7E                    6610 	ld	a, (hl)
      001EEA 12                    6611 	ld	(de), a
                                   6612 ;geometry_boy.c:768: if (title_loaded)
      001EEB FAr25r00              6613 	ld	a, (#_title_loaded)
      001EEE B7                    6614 	or	a, a
      001EEF CAr7Fr21              6615 	jp	Z, 00109$
                                   6616 ;geometry_boy.c:770: for (int i = 0; i < 11; i++)
      001EF2 AF                    6617 	xor	a, a
      001EF3 F8 07                 6618 	ldhl	sp,	#7
      001EF5 22                    6619 	ld	(hl+), a
      001EF6 77                    6620 	ld	(hl), a
      001EF7                       6621 00197$:
      001EF7 F8 07                 6622 	ldhl	sp,	#7
      001EF9 2A                    6623 	ld	a, (hl+)
      001EFA D6 0B                 6624 	sub	a, #0x0b
      001EFC 7E                    6625 	ld	a, (hl)
      001EFD DE 00                 6626 	sbc	a, #0x00
      001EFF 56                    6627 	ld	d, (hl)
      001F00 3E 00                 6628 	ld	a, #0x00
      001F02 CB 7F                 6629 	bit	7,a
      001F04 28 07                 6630 	jr	Z, 00407$
      001F06 CB 7A                 6631 	bit	7, d
      001F08 20 08                 6632 	jr	NZ, 00408$
      001F0A BF                    6633 	cp	a, a
      001F0B 18 05                 6634 	jr	00408$
      001F0D                       6635 00407$:
      001F0D CB 7A                 6636 	bit	7, d
      001F0F 28 01                 6637 	jr	Z, 00408$
      001F11 37                    6638 	scf
      001F12                       6639 00408$:
      001F12 D2r91r20              6640 	jp	NC, 00104$
                                   6641 ;geometry_boy.c:772: SWITCH_ROM_MBC1(parallax_tileset_v2Bank);
      001F15 3E 02                 6642 	ld	a, #0x02
      001F17 E0r00                 6643 	ldh	(__current_bank + 0), a
      001F19 21 00 20              6644 	ld	hl, #0x2000
      001F1C 36 02                 6645 	ld	(hl), #0x02
                                   6646 ;geometry_boy.c:773: set_sprite_data(TITLE_OAM + i, 1, nima + 16 * (13 + game_title[i] - 65)); // load tiles into VRAM
      001F1E F8 07                 6647 	ldhl	sp,#7
      001F20 2A                    6648 	ld	a, (hl+)
      001F21 5F                    6649 	ld	e, a
      001F22 56                    6650 	ld	d, (hl)
      001F23 21r2Ar25              6651 	ld	hl, #_game_title
      001F26 19                    6652 	add	hl, de
      001F27 4D                    6653 	ld	c, l
      001F28 44                    6654 	ld	b, h
      001F29 0A                    6655 	ld	a, (bc)
      001F2A F8 06                 6656 	ldhl	sp,	#6
      001F2C 77                    6657 	ld	(hl), a
      001F2D 7E                    6658 	ld	a, (hl)
      001F2E F8 03                 6659 	ldhl	sp,	#3
      001F30 22                    6660 	ld	(hl+), a
      001F31 07                    6661 	rlca
      001F32 9F                    6662 	sbc	a, a
      001F33 32                    6663 	ld	(hl-), a
      001F34 2A                    6664 	ld	a, (hl+)
      001F35 5F                    6665 	ld	e, a
      001F36 56                    6666 	ld	d, (hl)
      001F37 21 CC FF              6667 	ld	hl, #0xffcc
      001F3A 19                    6668 	add	hl, de
      001F3B E5                    6669 	push	hl
      001F3C 7D                    6670 	ld	a, l
      001F3D F8 07                 6671 	ldhl	sp,	#7
      001F3F 77                    6672 	ld	(hl), a
      001F40 E1                    6673 	pop	hl
      001F41 7C                    6674 	ld	a, h
      001F42 F8 06                 6675 	ldhl	sp,	#6
      001F44 32                    6676 	ld	(hl-), a
      001F45 3A                    6677 	ld	a, (hl-)
      001F46 2B                    6678 	dec	hl
      001F47 77                    6679 	ld	(hl), a
      001F48 F8 06                 6680 	ldhl	sp,	#6
      001F4A 3A                    6681 	ld	a, (hl-)
      001F4B 2B                    6682 	dec	hl
      001F4C 77                    6683 	ld	(hl), a
      001F4D 3E 04                 6684 	ld	a, #0x04
      001F4F                       6685 00409$:
      001F4F F8 03                 6686 	ldhl	sp,	#3
      001F51 CB 26                 6687 	sla	(hl)
      001F53 23                    6688 	inc	hl
      001F54 CB 16                 6689 	rl	(hl)
      001F56 3D                    6690 	dec	a
      001F57 20 F6                 6691 	jr	NZ, 00409$
      001F59 11r00r00              6692 	ld	de, #_nima
      001F5C 3A                    6693 	ld	a, (hl-)
      001F5D 6E                    6694 	ld	l, (hl)
      001F5E 67                    6695 	ld	h, a
      001F5F 19                    6696 	add	hl, de
      001F60 E5                    6697 	push	hl
      001F61 7D                    6698 	ld	a, l
      001F62 F8 07                 6699 	ldhl	sp,	#7
      001F64 77                    6700 	ld	(hl), a
      001F65 E1                    6701 	pop	hl
      001F66 7C                    6702 	ld	a, h
      001F67 F8 06                 6703 	ldhl	sp,	#6
      001F69 32                    6704 	ld	(hl-), a
      001F6A 2A                    6705 	ld	a, (hl+)
      001F6B 4F                    6706 	ld	c, a
      001F6C 2A                    6707 	ld	a, (hl+)
      001F6D 47                    6708 	ld	b, a
      001F6E 7E                    6709 	ld	a, (hl)
      001F6F F8 00                 6710 	ldhl	sp,	#0
      001F71 77                    6711 	ld	(hl), a
      001F72 2A                    6712 	ld	a, (hl+)
      001F73 C6 0B                 6713 	add	a, #0x0b
      001F75 77                    6714 	ld	(hl), a
      001F76 C5                    6715 	push	bc
      001F77 3E 01                 6716 	ld	a, #0x01
      001F79 F5                    6717 	push	af
      001F7A 33                    6718 	inc	sp
      001F7B 7E                    6719 	ld	a, (hl)
      001F7C F5                    6720 	push	af
      001F7D 33                    6721 	inc	sp
      001F7E CDr00r00              6722 	call	_set_sprite_data
      001F81 E8 04                 6723 	add	sp, #4
                                   6724 ;geometry_boy.c:774: SWITCH_ROM_MBC1(saved_bank);
      001F83 21r05r00              6725 	ld	hl, #_saved_bank
      001F86 7E                    6726 	ld	a, (hl)
      001F87 E0r00                 6727 	ldh	(__current_bank + 0), a
      001F89 11 00 20              6728 	ld	de, #0x2000
      001F8C 7E                    6729 	ld	a, (hl)
      001F8D 12                    6730 	ld	(de), a
                                   6731 ;geometry_boy.c:775: set_sprite_tile(TITLE_OAM + i, TITLE_OAM + i);
      001F8E F8 01                 6732 	ldhl	sp,	#1
      001F90 2A                    6733 	ld	a, (hl+)
      001F91 32                    6734 	ld	(hl-), a
      001F92 7E                    6735 	ld	a, (hl)
      001F93 F8 06                 6736 	ldhl	sp,	#6
      001F95 77                    6737 	ld	(hl), a
                                   6738 ;../gbdk/include/gb/gb.h:1326: shadow_OAM[nb].tile=tile;
      001F96 3A                    6739 	ld	a, (hl-)
      001F97 22                    6740 	ld	(hl+), a
      001F98 36 00                 6741 	ld	(hl), #0x00
      001F9A 3E 02                 6742 	ld	a, #0x02
      001F9C                       6743 00410$:
      001F9C F8 05                 6744 	ldhl	sp,	#5
      001F9E CB 26                 6745 	sla	(hl)
      001FA0 23                    6746 	inc	hl
      001FA1 CB 16                 6747 	rl	(hl)
      001FA3 3D                    6748 	dec	a
      001FA4 20 F6                 6749 	jr	NZ, 00410$
      001FA6 2B                    6750 	dec	hl
      001FA7 2A                    6751 	ld	a, (hl+)
      001FA8 5F                    6752 	ld	e, a
      001FA9 56                    6753 	ld	d, (hl)
      001FAA 21r00r00              6754 	ld	hl, #_shadow_OAM
      001FAD 19                    6755 	add	hl, de
      001FAE E5                    6756 	push	hl
      001FAF 7D                    6757 	ld	a, l
      001FB0 F8 05                 6758 	ldhl	sp,	#5
      001FB2 77                    6759 	ld	(hl), a
      001FB3 E1                    6760 	pop	hl
      001FB4 7C                    6761 	ld	a, h
      001FB5 F8 04                 6762 	ldhl	sp,	#4
      001FB7 32                    6763 	ld	(hl-), a
      001FB8 2A                    6764 	ld	a, (hl+)
      001FB9 5F                    6765 	ld	e, a
      001FBA 56                    6766 	ld	d, (hl)
      001FBB 21 02 00              6767 	ld	hl, #0x0002
      001FBE 19                    6768 	add	hl, de
      001FBF E5                    6769 	push	hl
      001FC0 7D                    6770 	ld	a, l
      001FC1 F8 07                 6771 	ldhl	sp,	#7
      001FC3 77                    6772 	ld	(hl), a
      001FC4 E1                    6773 	pop	hl
      001FC5 7C                    6774 	ld	a, h
      001FC6 F8 06                 6775 	ldhl	sp,	#6
      001FC8 32                    6776 	ld	(hl-), a
      001FC9 2A                    6777 	ld	a, (hl+)
      001FCA 5F                    6778 	ld	e, a
      001FCB 56                    6779 	ld	d, (hl)
      001FCC F8 02                 6780 	ldhl	sp,	#2
      001FCE 7E                    6781 	ld	a, (hl)
      001FCF 12                    6782 	ld	(de), a
                                   6783 ;geometry_boy.c:776: if (i > 7)
      001FD0 F8 07                 6784 	ldhl	sp,	#7
      001FD2 3E 07                 6785 	ld	a, #0x07
      001FD4 96                    6786 	sub	a, (hl)
      001FD5 23                    6787 	inc	hl
      001FD6 3E 00                 6788 	ld	a, #0x00
      001FD8 9E                    6789 	sbc	a, (hl)
      001FD9 3E 00                 6790 	ld	a, #0x00
      001FDB 57                    6791 	ld	d, a
      001FDC CB 7E                 6792 	bit	7, (hl)
      001FDE 28 07                 6793 	jr	Z, 00411$
      001FE0 CB 7A                 6794 	bit	7, d
      001FE2 20 08                 6795 	jr	NZ, 00412$
      001FE4 BF                    6796 	cp	a, a
      001FE5 18 05                 6797 	jr	00412$
      001FE7                       6798 00411$:
      001FE7 CB 7A                 6799 	bit	7, d
      001FE9 28 01                 6800 	jr	Z, 00412$
      001FEB 37                    6801 	scf
      001FEC                       6802 00412$:
      001FEC 30 4F                 6803 	jr	NC, 00102$
                                   6804 ;geometry_boy.c:778: move_sprite(TITLE_OAM + i, TITLE_START_X + XOFF + 8 * (i - 8) + 20, TITLE_START_Y + YOFF + 10);
      001FEE F8 00                 6805 	ldhl	sp,	#0
      001FF0 7E                    6806 	ld	a, (hl)
      001FF1 C6 F8                 6807 	add	a, #0xf8
      001FF3 F8 06                 6808 	ldhl	sp,	#6
      001FF5 77                    6809 	ld	(hl), a
      001FF6 7E                    6810 	ld	a, (hl)
      001FF7 87                    6811 	add	a, a
      001FF8 87                    6812 	add	a, a
      001FF9 87                    6813 	add	a, a
      001FFA 77                    6814 	ld	(hl), a
      001FFB 7E                    6815 	ld	a, (hl)
      001FFC C6 4C                 6816 	add	a, #0x4c
      001FFE 77                    6817 	ld	(hl), a
      001FFF F8 01                 6818 	ldhl	sp,	#1
      002001 7E                    6819 	ld	a, (hl)
      002002 F8 05                 6820 	ldhl	sp,	#5
      002004 77                    6821 	ld	(hl), a
                                   6822 ;../gbdk/include/gb/gb.h:1399: OAM_item_t * itm = &shadow_OAM[nb];
      002005 3A                    6823 	ld	a, (hl-)
      002006 22                    6824 	ld	(hl+), a
      002007 36 00                 6825 	ld	(hl), #0x00
      002009 3E 02                 6826 	ld	a, #0x02
      00200B                       6827 00413$:
      00200B F8 04                 6828 	ldhl	sp,	#4
      00200D CB 26                 6829 	sla	(hl)
      00200F 23                    6830 	inc	hl
      002010 CB 16                 6831 	rl	(hl)
      002012 3D                    6832 	dec	a
      002013 20 F6                 6833 	jr	NZ, 00413$
      002015 2B                    6834 	dec	hl
      002016 2A                    6835 	ld	a, (hl+)
      002017 5F                    6836 	ld	e, a
      002018 56                    6837 	ld	d, (hl)
      002019 21r00r00              6838 	ld	hl, #_shadow_OAM
      00201C 19                    6839 	add	hl, de
      00201D E5                    6840 	push	hl
      00201E 7D                    6841 	ld	a, l
      00201F F8 04                 6842 	ldhl	sp,	#4
      002021 77                    6843 	ld	(hl), a
      002022 E1                    6844 	pop	hl
      002023 7C                    6845 	ld	a, h
      002024 F8 03                 6846 	ldhl	sp,	#3
      002026 32                    6847 	ld	(hl-), a
      002027 2A                    6848 	ld	a, (hl+)
      002028 23                    6849 	inc	hl
      002029 32                    6850 	ld	(hl-), a
      00202A 2A                    6851 	ld	a, (hl+)
      00202B 23                    6852 	inc	hl
                                   6853 ;../gbdk/include/gb/gb.h:1400: itm->y=y, itm->x=x;
      00202C 32                    6854 	ld	(hl-), a
      00202D 2A                    6855 	ld	a,	(hl+)
      00202E 66                    6856 	ld	h, (hl)
      00202F 6F                    6857 	ld	l, a
      002030 36 2A                 6858 	ld	(hl), #0x2a
      002032 F8 04                 6859 	ldhl	sp,	#4
      002034 2A                    6860 	ld	a, (hl+)
      002035 4F                    6861 	ld	c, a
      002036 2A                    6862 	ld	a, (hl+)
      002037 47                    6863 	ld	b, a
      002038 03                    6864 	inc	bc
      002039 7E                    6865 	ld	a, (hl)
      00203A 02                    6866 	ld	(bc), a
                                   6867 ;geometry_boy.c:778: move_sprite(TITLE_OAM + i, TITLE_START_X + XOFF + 8 * (i - 8) + 20, TITLE_START_Y + YOFF + 10);
      00203B 18 49                 6868 	jr	00198$
      00203D                       6869 00102$:
                                   6870 ;geometry_boy.c:782: move_sprite(TITLE_OAM + i, TITLE_START_X + XOFF + 8 * i, TITLE_START_Y + YOFF);
      00203D F8 00                 6871 	ldhl	sp,	#0
      00203F 7E                    6872 	ld	a, (hl)
      002040 87                    6873 	add	a, a
      002041 87                    6874 	add	a, a
      002042 87                    6875 	add	a, a
      002043 F8 06                 6876 	ldhl	sp,	#6
      002045 77                    6877 	ld	(hl), a
      002046 7E                    6878 	ld	a, (hl)
      002047 C6 38                 6879 	add	a, #0x38
      002049 77                    6880 	ld	(hl), a
      00204A F8 01                 6881 	ldhl	sp,	#1
      00204C 7E                    6882 	ld	a, (hl)
      00204D F8 05                 6883 	ldhl	sp,	#5
      00204F 77                    6884 	ld	(hl), a
                                   6885 ;../gbdk/include/gb/gb.h:1399: OAM_item_t * itm = &shadow_OAM[nb];
      002050 3A                    6886 	ld	a, (hl-)
      002051 22                    6887 	ld	(hl+), a
      002052 36 00                 6888 	ld	(hl), #0x00
      002054 3E 02                 6889 	ld	a, #0x02
      002056                       6890 00414$:
      002056 F8 04                 6891 	ldhl	sp,	#4
      002058 CB 26                 6892 	sla	(hl)
      00205A 23                    6893 	inc	hl
      00205B CB 16                 6894 	rl	(hl)
      00205D 3D                    6895 	dec	a
      00205E 20 F6                 6896 	jr	NZ, 00414$
      002060 2B                    6897 	dec	hl
      002061 2A                    6898 	ld	a, (hl+)
      002062 5F                    6899 	ld	e, a
      002063 56                    6900 	ld	d, (hl)
      002064 21r00r00              6901 	ld	hl, #_shadow_OAM
      002067 19                    6902 	add	hl, de
      002068 E5                    6903 	push	hl
      002069 7D                    6904 	ld	a, l
      00206A F8 04                 6905 	ldhl	sp,	#4
      00206C 77                    6906 	ld	(hl), a
      00206D E1                    6907 	pop	hl
      00206E 7C                    6908 	ld	a, h
      00206F F8 03                 6909 	ldhl	sp,	#3
      002071 32                    6910 	ld	(hl-), a
      002072 2A                    6911 	ld	a, (hl+)
      002073 23                    6912 	inc	hl
      002074 32                    6913 	ld	(hl-), a
      002075 2A                    6914 	ld	a, (hl+)
      002076 23                    6915 	inc	hl
                                   6916 ;../gbdk/include/gb/gb.h:1400: itm->y=y, itm->x=x;
      002077 32                    6917 	ld	(hl-), a
      002078 2A                    6918 	ld	a,	(hl+)
      002079 66                    6919 	ld	h, (hl)
      00207A 6F                    6920 	ld	l, a
      00207B 36 20                 6921 	ld	(hl), #0x20
      00207D F8 04                 6922 	ldhl	sp,	#4
      00207F 2A                    6923 	ld	a, (hl+)
      002080 4F                    6924 	ld	c, a
      002081 2A                    6925 	ld	a, (hl+)
      002082 47                    6926 	ld	b, a
      002083 03                    6927 	inc	bc
      002084 7E                    6928 	ld	a, (hl)
      002085 02                    6929 	ld	(bc), a
                                   6930 ;geometry_boy.c:782: move_sprite(TITLE_OAM + i, TITLE_START_X + XOFF + 8 * i, TITLE_START_Y + YOFF);
      002086                       6931 00198$:
                                   6932 ;geometry_boy.c:770: for (int i = 0; i < 11; i++)
      002086 F8 07                 6933 	ldhl	sp,	#7
      002088 34                    6934 	inc	(hl)
      002089 C2rF7r1E              6935 	jp	NZ,00197$
      00208C 23                    6936 	inc	hl
      00208D 34                    6937 	inc	(hl)
      00208E C3rF7r1E              6938 	jp	00197$
      002091                       6939 00104$:
                                   6940 ;geometry_boy.c:785: for (uint8_t i = 0; i < 6; i++)
      002091 F8 08                 6941 	ldhl	sp,	#8
      002093 36 00                 6942 	ld	(hl), #0x00
      002095                       6943 00200$:
      002095 F8 08                 6944 	ldhl	sp,	#8
      002097 7E                    6945 	ld	a, (hl)
      002098 D6 06                 6946 	sub	a, #0x06
      00209A D2r57r21              6947 	jp	NC, 00107$
                                   6948 ;geometry_boy.c:788: if (i < 5)
      00209D 7E                    6949 	ld	a, (hl)
      00209E D6 05                 6950 	sub	a, #0x05
      0020A0 30 5C                 6951 	jr	NC, 00106$
                                   6952 ;geometry_boy.c:790: set_sprite_data(START_TEXT_OAM + i, 1, aero + 16 * (13 + start_text[i] - 65)); // load tiles into VRAM
      0020A2 11r35r25              6953 	ld	de, #_start_text
      0020A5 6E                    6954 	ld	l, (hl)
      0020A6 26 00                 6955 	ld	h, #0x00
      0020A8 19                    6956 	add	hl, de
      0020A9 E5                    6957 	push	hl
      0020AA 7D                    6958 	ld	a, l
      0020AB F8 08                 6959 	ldhl	sp,	#8
      0020AD 77                    6960 	ld	(hl), a
      0020AE E1                    6961 	pop	hl
      0020AF 7C                    6962 	ld	a, h
      0020B0 F8 07                 6963 	ldhl	sp,	#7
      0020B2 32                    6964 	ld	(hl-), a
      0020B3 2A                    6965 	ld	a, (hl+)
      0020B4 5F                    6966 	ld	e, a
      0020B5 56                    6967 	ld	d, (hl)
      0020B6 1A                    6968 	ld	a, (de)
      0020B7 4F                    6969 	ld	c, a
      0020B8 07                    6970 	rlca
      0020B9 9F                    6971 	sbc	a, a
      0020BA 47                    6972 	ld	b, a
      0020BB 21 CC FF              6973 	ld	hl, #0xffcc
      0020BE 09                    6974 	add	hl, bc
      0020BF 29                    6975 	add	hl, hl
      0020C0 29                    6976 	add	hl, hl
      0020C1 29                    6977 	add	hl, hl
      0020C2 29                    6978 	add	hl, hl
      0020C3 11r8Cr02              6979 	ld	de, #_aero
      0020C6 19                    6980 	add	hl, de
      0020C7 5D                    6981 	ld	e, l
      0020C8 54                    6982 	ld	d, h
      0020C9 F8 08                 6983 	ldhl	sp,	#8
      0020CB 7E                    6984 	ld	a, (hl)
      0020CC C6 16                 6985 	add	a, #0x16
      0020CE 47                    6986 	ld	b, a
      0020CF D5                    6987 	push	de
      0020D0 3E 01                 6988 	ld	a, #0x01
      0020D2 F5                    6989 	push	af
      0020D3 33                    6990 	inc	sp
      0020D4 C5                    6991 	push	bc
      0020D5 33                    6992 	inc	sp
      0020D6 CDr00r00              6993 	call	_set_sprite_data
      0020D9 E8 04                 6994 	add	sp, #4
                                   6995 ;geometry_boy.c:791: set_sprite_tile(START_TEXT_OAM + i, START_TEXT_OAM + i);
      0020DB 48                    6996 	ld	c, b
                                   6997 ;../gbdk/include/gb/gb.h:1326: shadow_OAM[nb].tile=tile;
      0020DC 68                    6998 	ld	l, b
                                   6999 ;	spillPairReg hl
                                   7000 ;	spillPairReg hl
      0020DD 26 00                 7001 	ld	h, #0x00
                                   7002 ;	spillPairReg hl
                                   7003 ;	spillPairReg hl
      0020DF 29                    7004 	add	hl, hl
      0020E0 29                    7005 	add	hl, hl
      0020E1 11r00r00              7006 	ld	de, #_shadow_OAM
      0020E4 19                    7007 	add	hl, de
      0020E5 23                    7008 	inc	hl
      0020E6 23                    7009 	inc	hl
      0020E7 71                    7010 	ld	(hl), c
                                   7011 ;geometry_boy.c:792: move_sprite(START_TEXT_OAM + i, 8 * i + START_TEXT_START_X + XOFF, START_TEXT_START_Y + YOFF);
      0020E8 F8 08                 7012 	ldhl	sp,	#8
      0020EA 7E                    7013 	ld	a, (hl)
      0020EB 87                    7014 	add	a, a
      0020EC 87                    7015 	add	a, a
      0020ED 87                    7016 	add	a, a
      0020EE C6 44                 7017 	add	a, #0x44
      0020F0 4F                    7018 	ld	c, a
                                   7019 ;../gbdk/include/gb/gb.h:1399: OAM_item_t * itm = &shadow_OAM[nb];
      0020F1 68                    7020 	ld	l, b
                                   7021 ;	spillPairReg hl
                                   7022 ;	spillPairReg hl
      0020F2 26 00                 7023 	ld	h, #0x00
                                   7024 ;	spillPairReg hl
                                   7025 ;	spillPairReg hl
      0020F4 29                    7026 	add	hl, hl
      0020F5 29                    7027 	add	hl, hl
      0020F6 11r00r00              7028 	ld	de, #_shadow_OAM
      0020F9 19                    7029 	add	hl, de
                                   7030 ;../gbdk/include/gb/gb.h:1400: itm->y=y, itm->x=x;
      0020FA 3E 68                 7031 	ld	a, #0x68
      0020FC 22                    7032 	ld	(hl+), a
      0020FD 71                    7033 	ld	(hl), c
                                   7034 ;geometry_boy.c:792: move_sprite(START_TEXT_OAM + i, 8 * i + START_TEXT_START_X + XOFF, START_TEXT_START_Y + YOFF);
      0020FE                       7035 00106$:
                                   7036 ;geometry_boy.c:794: set_sprite_data(PLAYER_TEXT_OAM + i, 1, aero + 16 * (13 + player_text[i] - 65)); // load tiles into VRAM
      0020FE 11r3Ar25              7037 	ld	de, #_player_text
      002101 F8 08                 7038 	ldhl	sp,	#8
      002103 6E                    7039 	ld	l, (hl)
      002104 26 00                 7040 	ld	h, #0x00
      002106 19                    7041 	add	hl, de
      002107 4D                    7042 	ld	c, l
      002108 44                    7043 	ld	b, h
      002109 0A                    7044 	ld	a, (bc)
      00210A 4F                    7045 	ld	c, a
      00210B 07                    7046 	rlca
      00210C 9F                    7047 	sbc	a, a
      00210D 47                    7048 	ld	b, a
      00210E 21 CC FF              7049 	ld	hl, #0xffcc
      002111 09                    7050 	add	hl, bc
      002112 29                    7051 	add	hl, hl
      002113 29                    7052 	add	hl, hl
      002114 29                    7053 	add	hl, hl
      002115 29                    7054 	add	hl, hl
      002116 11r8Cr02              7055 	ld	de, #_aero
      002119 19                    7056 	add	hl, de
      00211A 5D                    7057 	ld	e, l
      00211B 54                    7058 	ld	d, h
      00211C F8 08                 7059 	ldhl	sp,	#8
      00211E 7E                    7060 	ld	a, (hl)
      00211F C6 1B                 7061 	add	a, #0x1b
      002121 47                    7062 	ld	b, a
      002122 D5                    7063 	push	de
      002123 3E 01                 7064 	ld	a, #0x01
      002125 F5                    7065 	push	af
      002126 33                    7066 	inc	sp
      002127 C5                    7067 	push	bc
      002128 33                    7068 	inc	sp
      002129 CDr00r00              7069 	call	_set_sprite_data
      00212C E8 04                 7070 	add	sp, #4
                                   7071 ;geometry_boy.c:795: set_sprite_tile(PLAYER_TEXT_OAM + i, PLAYER_TEXT_OAM + i);
      00212E 48                    7072 	ld	c, b
                                   7073 ;../gbdk/include/gb/gb.h:1326: shadow_OAM[nb].tile=tile;
      00212F 68                    7074 	ld	l, b
                                   7075 ;	spillPairReg hl
                                   7076 ;	spillPairReg hl
      002130 26 00                 7077 	ld	h, #0x00
                                   7078 ;	spillPairReg hl
                                   7079 ;	spillPairReg hl
      002132 29                    7080 	add	hl, hl
      002133 29                    7081 	add	hl, hl
      002134 11r00r00              7082 	ld	de, #_shadow_OAM
      002137 19                    7083 	add	hl, de
      002138 23                    7084 	inc	hl
      002139 23                    7085 	inc	hl
      00213A 71                    7086 	ld	(hl), c
                                   7087 ;geometry_boy.c:796: move_sprite(PLAYER_TEXT_OAM + i, PLAYER_TEXT_START_X + XOFF + 8 * i, (uint8_t)(PLAYER_TEXT_START_Y + YOFF));
      00213B F8 08                 7088 	ldhl	sp,	#8
      00213D 7E                    7089 	ld	a, (hl)
      00213E 87                    7090 	add	a, a
      00213F 87                    7091 	add	a, a
      002140 87                    7092 	add	a, a
      002141 C6 40                 7093 	add	a, #0x40
      002143 4F                    7094 	ld	c, a
                                   7095 ;../gbdk/include/gb/gb.h:1399: OAM_item_t * itm = &shadow_OAM[nb];
      002144 68                    7096 	ld	l, b
                                   7097 ;	spillPairReg hl
                                   7098 ;	spillPairReg hl
      002145 26 00                 7099 	ld	h, #0x00
                                   7100 ;	spillPairReg hl
                                   7101 ;	spillPairReg hl
      002147 29                    7102 	add	hl, hl
      002148 29                    7103 	add	hl, hl
      002149 11r00r00              7104 	ld	de, #_shadow_OAM
      00214C 19                    7105 	add	hl, de
                                   7106 ;../gbdk/include/gb/gb.h:1400: itm->y=y, itm->x=x;
      00214D 3E 78                 7107 	ld	a, #0x78
      00214F 22                    7108 	ld	(hl+), a
      002150 71                    7109 	ld	(hl), c
                                   7110 ;geometry_boy.c:785: for (uint8_t i = 0; i < 6; i++)
      002151 F8 08                 7111 	ldhl	sp,	#8
      002153 34                    7112 	inc	(hl)
      002154 C3r95r20              7113 	jp	00200$
      002157                       7114 00107$:
                                   7115 ;geometry_boy.c:799: set_sprite_data(CURSOR_TEXT_OAM, 1, (char *)LIGHT_CURSOR); // Load into VRAM
      002157 11r0Cr07              7116 	ld	de, #_aero_cursors
      00215A D5                    7117 	push	de
      00215B 3E 01                 7118 	ld	a, #0x01
      00215D F5                    7119 	push	af
      00215E 33                    7120 	inc	sp
      00215F 3E 0A                 7121 	ld	a, #0x0a
      002161 F5                    7122 	push	af
      002162 33                    7123 	inc	sp
      002163 CDr00r00              7124 	call	_set_sprite_data
      002166 E8 04                 7125 	add	sp, #4
                                   7126 ;../gbdk/include/gb/gb.h:1326: shadow_OAM[nb].tile=tile;
      002168 21r2Ar00              7127 	ld	hl, #(_shadow_OAM + 42)
      00216B 36 0A                 7128 	ld	(hl), #0x0a
                                   7129 ;../gbdk/include/gb/gb.h:1399: OAM_item_t * itm = &shadow_OAM[nb];
      00216D 21r28r00              7130 	ld	hl, #(_shadow_OAM + 40)
                                   7131 ;../gbdk/include/gb/gb.h:1400: itm->y=y, itm->x=x;
      002170 3E 68                 7132 	ld	a, #0x68
      002172 22                    7133 	ld	(hl+), a
      002173 36 30                 7134 	ld	(hl), #0x30
                                   7135 ;../gbdk/include/gb/gb.h:1415: OAM_item_t * itm = &shadow_OAM[nb];
      002175 01r54r00              7136 	ld	bc, #_shadow_OAM+84
                                   7137 ;../gbdk/include/gb/gb.h:1416: itm->y+=y, itm->x+=x;
      002178 0A                    7138 	ld	a, (bc)
      002179 C6 FE                 7139 	add	a, #0xfe
      00217B 02                    7140 	ld	(bc), a
      00217C 03                    7141 	inc	bc
      00217D 0A                    7142 	ld	a, (bc)
      00217E 02                    7143 	ld	(bc), a
                                   7144 ;geometry_boy.c:803: scroll_sprite(TITLE_OAM + 10, 0, -2);
      00217F                       7145 00109$:
                                   7146 ;geometry_boy.c:806: SHOW_BKG;
      00217F F0r00                 7147 	ldh	a, (_LCDC_REG + 0)
      002181 F6 01                 7148 	or	a, #0x01
      002183 E0r00                 7149 	ldh	(_LCDC_REG + 0), a
                                   7150 ;geometry_boy.c:807: DISPLAY_ON;
      002185 F0r00                 7151 	ldh	a, (_LCDC_REG + 0)
      002187 F6 80                 7152 	or	a, #0x80
      002189 E0r00                 7153 	ldh	(_LCDC_REG + 0), a
                                   7154 ;geometry_boy.c:809: SHOW_SPRITES;
      00218B F0r00                 7155 	ldh	a, (_LCDC_REG + 0)
      00218D F6 02                 7156 	or	a, #0x02
      00218F E0r00                 7157 	ldh	(_LCDC_REG + 0), a
                                   7158 ;geometry_boy.c:811: uint8_t title_index = 0;
      002191 F8 05                 7159 	ldhl	sp,	#5
      002193 36 00                 7160 	ld	(hl), #0x00
                                   7161 ;geometry_boy.c:813: while (1)
      002195                       7162 00155$:
                                   7163 ;geometry_boy.c:815: if (vbl_count == 0)
      002195 FAr06r00              7164 	ld	a, (#_vbl_count)
      002198 B7                    7165 	or	a, a
      002199 20 03                 7166 	jr	NZ, 00111$
                                   7167 ;geometry_boy.c:817: wait_vbl_done();
      00219B CDr00r00              7168 	call	_wait_vbl_done
      00219E                       7169 00111$:
                                   7170 ;geometry_boy.c:819: vbl_count = 0;
      00219E 21r06r00              7171 	ld	hl, #_vbl_count
      0021A1 36 00                 7172 	ld	(hl), #0x00
                                   7173 ;geometry_boy.c:821: SWITCH_ROM_MBC1(title_map_v2Bank);
      0021A3 3E 03                 7174 	ld	a, #0x03
      0021A5 E0r00                 7175 	ldh	(__current_bank + 0), a
      0021A7 21 00 20              7176 	ld	hl, #0x2000
      0021AA 36 03                 7177 	ld	(hl), #0x03
                                   7178 ;geometry_boy.c:822: scroll_bkg_x(player_dx, title_map_v2, title_map_v2Width);
      0021AC 11 3C 00              7179 	ld	de, #0x003c
      0021AF D5                    7180 	push	de
      0021B0 11r00r00              7181 	ld	de, #_title_map_v2
      0021B3 D5                    7182 	push	de
      0021B4 FAr01r00              7183 	ld	a, (#_player_dx)
      0021B7 F5                    7184 	push	af
      0021B8 33                    7185 	inc	sp
      0021B9 CDr2Cr08              7186 	call	_scroll_bkg_x
      0021BC E8 05                 7187 	add	sp, #5
                                   7188 ;geometry_boy.c:823: SWITCH_ROM_MBC1(saved_bank);
      0021BE 21r05r00              7189 	ld	hl, #_saved_bank
      0021C1 7E                    7190 	ld	a, (hl)
      0021C2 E0r00                 7191 	ldh	(__current_bank + 0), a
      0021C4 11 00 20              7192 	ld	de, #0x2000
      0021C7 7E                    7193 	ld	a, (hl)
      0021C8 12                    7194 	ld	(de), a
                                   7195 ;geometry_boy.c:825: parallax_tile_ind += 16;
      0021C9 21r11r00              7196 	ld	hl, #_parallax_tile_ind
      0021CC 7E                    7197 	ld	a, (hl)
      0021CD C6 10                 7198 	add	a, #0x10
      0021CF 77                    7199 	ld	(hl), a
                                   7200 ;geometry_boy.c:826: if (parallax_tile_ind > 112)
      0021D0 3E 70                 7201 	ld	a, #0x70
      0021D2 96                    7202 	sub	a, (hl)
      0021D3 30 02                 7203 	jr	NC, 00113$
                                   7204 ;geometry_boy.c:828: parallax_tile_ind = 0;
      0021D5 36 00                 7205 	ld	(hl), #0x00
      0021D7                       7206 00113$:
                                   7207 ;geometry_boy.c:830: SWITCH_ROM_MBC1(parallax_tileset_v2Bank);
      0021D7 3E 02                 7208 	ld	a, #0x02
      0021D9 E0r00                 7209 	ldh	(__current_bank + 0), a
      0021DB 21 00 20              7210 	ld	hl, #0x2000
      0021DE 36 02                 7211 	ld	(hl), #0x02
                                   7212 ;geometry_boy.c:831: set_bkg_data(0, 1, parallax_tileset_v2 + parallax_tile_ind); // load tiles into VRAM
      0021E0 3Er00                 7213 	ld	a, #<(_parallax_tileset_v2)
      0021E2 21r11r00              7214 	ld	hl, #_parallax_tile_ind
      0021E5 86                    7215 	add	a, (hl)
      0021E6 4F                    7216 	ld	c, a
      0021E7 3Es00                 7217 	ld	a, #>(_parallax_tileset_v2)
      0021E9 CE 00                 7218 	adc	a, #0x00
      0021EB 47                    7219 	ld	b, a
      0021EC C5                    7220 	push	bc
      0021ED AF                    7221 	xor	a, a
      0021EE 3C                    7222 	inc	a
      0021EF F5                    7223 	push	af
      0021F0 CDr00r00              7224 	call	_set_bkg_data
      0021F3 E8 04                 7225 	add	sp, #4
                                   7226 ;geometry_boy.c:832: SWITCH_ROM_MBC1(saved_bank);
      0021F5 21r05r00              7227 	ld	hl, #_saved_bank
      0021F8 7E                    7228 	ld	a, (hl)
      0021F9 E0r00                 7229 	ldh	(__current_bank + 0), a
      0021FB 11 00 20              7230 	ld	de, #0x2000
      0021FE 7E                    7231 	ld	a, (hl)
      0021FF 12                    7232 	ld	(de), a
                                   7233 ;geometry_boy.c:841: set_sprite_data(TITLE_OAM + title_index, 1, nima + 16 * (13 + game_title[title_index] - 65)); // load tiles into VRAM
      002200 F8 05                 7234 	ldhl	sp,	#5
      002202 3A                    7235 	ld	a, (hl-)
      002203 77                    7236 	ld	(hl), a
                                   7237 ;geometry_boy.c:836: if (tick % 4 == 0)
      002204 FAr0Ar00              7238 	ld	a, (#_tick)
      002207 E6 03                 7239 	and	a, #0x03
      002209 F8 06                 7240 	ldhl	sp,	#6
      00220B 22                    7241 	ld	(hl+), a
      00220C 36 00                 7242 	ld	(hl), #0x00
                                   7243 ;geometry_boy.c:841: set_sprite_data(TITLE_OAM + title_index, 1, nima + 16 * (13 + game_title[title_index] - 65)); // load tiles into VRAM
      00220E F8 04                 7244 	ldhl	sp,	#4
      002210 7E                    7245 	ld	a, (hl)
      002211 C6 0B                 7246 	add	a, #0x0b
      002213 F8 08                 7247 	ldhl	sp,	#8
      002215 77                    7248 	ld	(hl), a
                                   7249 ;geometry_boy.c:834: if (!title_loaded)
      002216 FAr25r00              7250 	ld	a, (#_title_loaded)
      002219 B7                    7251 	or	a, a
      00221A C2rA4r23              7252 	jp	NZ, 00152$
                                   7253 ;geometry_boy.c:836: if (tick % 4 == 0)
      00221D F8 07                 7254 	ldhl	sp,	#7
      00221F 3A                    7255 	ld	a, (hl-)
      002220 B6                    7256 	or	a, (hl)
      002221 C2r18r25              7257 	jp	NZ, 00153$
                                   7258 ;geometry_boy.c:838: if (title_index < 11)
      002224 2B                    7259 	dec	hl
      002225 7E                    7260 	ld	a, (hl)
      002226 D6 0B                 7261 	sub	a, #0x0b
      002228 D2rBAr22              7262 	jp	NC, 00238$
                                   7263 ;geometry_boy.c:840: SWITCH_ROM_MBC1(parallax_tileset_v2Bank);
      00222B 3E 02                 7264 	ld	a, #0x02
      00222D E0r00                 7265 	ldh	(__current_bank + 0), a
      00222F 21 00 20              7266 	ld	hl, #0x2000
      002232 36 02                 7267 	ld	(hl), #0x02
                                   7268 ;geometry_boy.c:841: set_sprite_data(TITLE_OAM + title_index, 1, nima + 16 * (13 + game_title[title_index] - 65)); // load tiles into VRAM
      002234 11r2Ar25              7269 	ld	de, #_game_title
      002237 F8 05                 7270 	ldhl	sp,	#5
      002239 6E                    7271 	ld	l, (hl)
      00223A 26 00                 7272 	ld	h, #0x00
      00223C 19                    7273 	add	hl, de
      00223D 4D                    7274 	ld	c, l
      00223E 44                    7275 	ld	b, h
      00223F 0A                    7276 	ld	a, (bc)
      002240 4F                    7277 	ld	c, a
      002241 07                    7278 	rlca
      002242 9F                    7279 	sbc	a, a
      002243 47                    7280 	ld	b, a
      002244 21 CC FF              7281 	ld	hl, #0xffcc
      002247 09                    7282 	add	hl, bc
      002248 29                    7283 	add	hl, hl
      002249 29                    7284 	add	hl, hl
      00224A 29                    7285 	add	hl, hl
      00224B 29                    7286 	add	hl, hl
      00224C 11r00r00              7287 	ld	de, #_nima
      00224F 19                    7288 	add	hl, de
      002250 E5                    7289 	push	hl
      002251 3E 01                 7290 	ld	a, #0x01
      002253 F5                    7291 	push	af
      002254 33                    7292 	inc	sp
      002255 F8 0B                 7293 	ldhl	sp,	#11
      002257 7E                    7294 	ld	a, (hl)
      002258 F5                    7295 	push	af
      002259 33                    7296 	inc	sp
      00225A CDr00r00              7297 	call	_set_sprite_data
      00225D E8 04                 7298 	add	sp, #4
                                   7299 ;geometry_boy.c:842: SWITCH_ROM_MBC1(saved_bank);
      00225F 21r05r00              7300 	ld	hl, #_saved_bank
      002262 7E                    7301 	ld	a, (hl)
      002263 E0r00                 7302 	ldh	(__current_bank + 0), a
      002265 11 00 20              7303 	ld	de, #0x2000
      002268 7E                    7304 	ld	a, (hl)
      002269 12                    7305 	ld	(de), a
                                   7306 ;geometry_boy.c:843: set_sprite_tile(TITLE_OAM + title_index, TITLE_OAM + title_index);
      00226A F8 08                 7307 	ldhl	sp,	#8
      00226C 4E                    7308 	ld	c, (hl)
                                   7309 ;../gbdk/include/gb/gb.h:1326: shadow_OAM[nb].tile=tile;
      00226D 6E                    7310 	ld	l, (hl)
                                   7311 ;	spillPairReg hl
                                   7312 ;	spillPairReg hl
      00226E 26 00                 7313 	ld	h, #0x00
                                   7314 ;	spillPairReg hl
                                   7315 ;	spillPairReg hl
      002270 29                    7316 	add	hl, hl
      002271 29                    7317 	add	hl, hl
      002272 11r00r00              7318 	ld	de, #_shadow_OAM
      002275 19                    7319 	add	hl, de
      002276 23                    7320 	inc	hl
      002277 23                    7321 	inc	hl
      002278 71                    7322 	ld	(hl), c
                                   7323 ;geometry_boy.c:844: if (title_index > 7)
      002279 3E 07                 7324 	ld	a, #0x07
      00227B F8 05                 7325 	ldhl	sp,	#5
      00227D 96                    7326 	sub	a, (hl)
      00227E 30 1B                 7327 	jr	NC, 00115$
                                   7328 ;geometry_boy.c:846: move_sprite(TITLE_OAM + title_index, TITLE_START_X + XOFF + 8 * (title_index - 8) + 20, TITLE_START_Y + YOFF + 10);
      002280 2B                    7329 	dec	hl
      002281 7E                    7330 	ld	a, (hl)
      002282 C6 F8                 7331 	add	a, #0xf8
      002284 87                    7332 	add	a, a
      002285 87                    7333 	add	a, a
      002286 87                    7334 	add	a, a
      002287 C6 4C                 7335 	add	a, #0x4c
      002289 4F                    7336 	ld	c, a
      00228A F8 08                 7337 	ldhl	sp,	#8
                                   7338 ;../gbdk/include/gb/gb.h:1399: OAM_item_t * itm = &shadow_OAM[nb];
      00228C 6E                    7339 	ld	l, (hl)
                                   7340 ;	spillPairReg hl
                                   7341 ;	spillPairReg hl
      00228D 26 00                 7342 	ld	h, #0x00
                                   7343 ;	spillPairReg hl
                                   7344 ;	spillPairReg hl
      00228F 29                    7345 	add	hl, hl
      002290 29                    7346 	add	hl, hl
      002291 11r00r00              7347 	ld	de, #_shadow_OAM
      002294 19                    7348 	add	hl, de
                                   7349 ;../gbdk/include/gb/gb.h:1400: itm->y=y, itm->x=x;
      002295 3E 2A                 7350 	ld	a, #0x2a
      002297 22                    7351 	ld	(hl+), a
      002298 71                    7352 	ld	(hl), c
                                   7353 ;geometry_boy.c:846: move_sprite(TITLE_OAM + title_index, TITLE_START_X + XOFF + 8 * (title_index - 8) + 20, TITLE_START_Y + YOFF + 10);
      002299 18 18                 7354 	jr	00116$
      00229B                       7355 00115$:
                                   7356 ;geometry_boy.c:850: move_sprite(TITLE_OAM + title_index, TITLE_START_X + XOFF + 8 * title_index, TITLE_START_Y + YOFF);
      00229B F8 05                 7357 	ldhl	sp,	#5
      00229D 7E                    7358 	ld	a, (hl)
      00229E 87                    7359 	add	a, a
      00229F 87                    7360 	add	a, a
      0022A0 87                    7361 	add	a, a
      0022A1 C6 38                 7362 	add	a, #0x38
      0022A3 4F                    7363 	ld	c, a
      0022A4 F8 08                 7364 	ldhl	sp,	#8
                                   7365 ;../gbdk/include/gb/gb.h:1399: OAM_item_t * itm = &shadow_OAM[nb];
      0022A6 6E                    7366 	ld	l, (hl)
                                   7367 ;	spillPairReg hl
                                   7368 ;	spillPairReg hl
      0022A7 26 00                 7369 	ld	h, #0x00
                                   7370 ;	spillPairReg hl
                                   7371 ;	spillPairReg hl
      0022A9 29                    7372 	add	hl, hl
      0022AA 29                    7373 	add	hl, hl
      0022AB 11r00r00              7374 	ld	de, #_shadow_OAM
      0022AE 19                    7375 	add	hl, de
                                   7376 ;../gbdk/include/gb/gb.h:1400: itm->y=y, itm->x=x;
      0022AF 3E 20                 7377 	ld	a, #0x20
      0022B1 22                    7378 	ld	(hl+), a
      0022B2 71                    7379 	ld	(hl), c
                                   7380 ;geometry_boy.c:850: move_sprite(TITLE_OAM + title_index, TITLE_START_X + XOFF + 8 * title_index, TITLE_START_Y + YOFF);
      0022B3                       7381 00116$:
                                   7382 ;geometry_boy.c:852: title_index = title_index + 1;
      0022B3 F8 05                 7383 	ldhl	sp,	#5
      0022B5 34                    7384 	inc	(hl)
      0022B6 7E                    7385 	ld	a, (hl)
      0022B7 C3r18r25              7386 	jp	00153$
                                   7387 ;geometry_boy.c:856: for (uint8_t i = 0; i < 6; i++)
      0022BA                       7388 00238$:
      0022BA 0E 00                 7389 	ld	c, #0x00
      0022BC                       7390 00203$:
                                   7391 ;geometry_boy.c:859: if (i < 5)
      0022BC 79                    7392 	ld	a,c
      0022BD FE 06                 7393 	cp	a,#0x06
      0022BF D2r70r23              7394 	jp	NC,00119$
      0022C2 D6 05                 7395 	sub	a, #0x05
      0022C4 30 53                 7396 	jr	NC, 00118$
                                   7397 ;geometry_boy.c:861: set_sprite_data(START_TEXT_OAM + i, 1, aero + 16 * (13 + start_text[i] - 65)); // load tiles into VRAM
      0022C6 21r35r25              7398 	ld	hl, #_start_text
      0022C9 06 00                 7399 	ld	b, #0x00
      0022CB 09                    7400 	add	hl, bc
      0022CC 7E                    7401 	ld	a, (hl)
      0022CD 5F                    7402 	ld	e, a
      0022CE 07                    7403 	rlca
      0022CF 9F                    7404 	sbc	a, a
      0022D0 57                    7405 	ld	d, a
      0022D1 21 CC FF              7406 	ld	hl, #0xffcc
      0022D4 19                    7407 	add	hl, de
      0022D5 29                    7408 	add	hl, hl
      0022D6 29                    7409 	add	hl, hl
      0022D7 29                    7410 	add	hl, hl
      0022D8 29                    7411 	add	hl, hl
      0022D9 11r8Cr02              7412 	ld	de, #_aero
      0022DC 19                    7413 	add	hl, de
      0022DD 79                    7414 	ld	a, c
      0022DE C6 16                 7415 	add	a, #0x16
      0022E0 47                    7416 	ld	b, a
      0022E1 E5                    7417 	push	hl
      0022E2 3E 01                 7418 	ld	a, #0x01
      0022E4 F5                    7419 	push	af
      0022E5 33                    7420 	inc	sp
      0022E6 C5                    7421 	push	bc
      0022E7 33                    7422 	inc	sp
      0022E8 CDr00r00              7423 	call	_set_sprite_data
      0022EB E8 04                 7424 	add	sp, #4
                                   7425 ;geometry_boy.c:862: set_sprite_tile(START_TEXT_OAM + i, START_TEXT_OAM + i);
      0022ED 78                    7426 	ld	a, b
      0022EE F8 08                 7427 	ldhl	sp,	#8
      0022F0 77                    7428 	ld	(hl), a
                                   7429 ;../gbdk/include/gb/gb.h:1326: shadow_OAM[nb].tile=tile;
      0022F1 68                    7430 	ld	l, b
                                   7431 ;	spillPairReg hl
                                   7432 ;	spillPairReg hl
      0022F2 26 00                 7433 	ld	h, #0x00
                                   7434 ;	spillPairReg hl
                                   7435 ;	spillPairReg hl
      0022F4 29                    7436 	add	hl, hl
      0022F5 29                    7437 	add	hl, hl
      0022F6 11r00r00              7438 	ld	de, #_shadow_OAM
      0022F9 19                    7439 	add	hl, de
      0022FA 23                    7440 	inc	hl
      0022FB 23                    7441 	inc	hl
      0022FC 5D                    7442 	ld	e, l
      0022FD 54                    7443 	ld	d, h
      0022FE F8 08                 7444 	ldhl	sp,	#8
      002300 7E                    7445 	ld	a, (hl)
      002301 12                    7446 	ld	(de), a
                                   7447 ;geometry_boy.c:863: move_sprite(START_TEXT_OAM + i, 8 * i + START_TEXT_START_X + XOFF, START_TEXT_START_Y + YOFF);
      002302 79                    7448 	ld	a, c
      002303 87                    7449 	add	a, a
      002304 87                    7450 	add	a, a
      002305 87                    7451 	add	a, a
      002306 C6 44                 7452 	add	a, #0x44
      002308 57                    7453 	ld	d, a
      002309 58                    7454 	ld	e, b
                                   7455 ;../gbdk/include/gb/gb.h:1399: OAM_item_t * itm = &shadow_OAM[nb];
      00230A 6B                    7456 	ld	l, e
                                   7457 ;	spillPairReg hl
                                   7458 ;	spillPairReg hl
      00230B 26 00                 7459 	ld	h, #0x00
                                   7460 ;	spillPairReg hl
                                   7461 ;	spillPairReg hl
      00230D 29                    7462 	add	hl, hl
      00230E 29                    7463 	add	hl, hl
      00230F D5                    7464 	push	de
      002310 11r00r00              7465 	ld	de, #_shadow_OAM
      002313 19                    7466 	add	hl, de
      002314 D1                    7467 	pop	de
                                   7468 ;../gbdk/include/gb/gb.h:1400: itm->y=y, itm->x=x;
      002315 3E 68                 7469 	ld	a, #0x68
      002317 22                    7470 	ld	(hl+), a
      002318 72                    7471 	ld	(hl), d
                                   7472 ;geometry_boy.c:863: move_sprite(START_TEXT_OAM + i, 8 * i + START_TEXT_START_X + XOFF, START_TEXT_START_Y + YOFF);
      002319                       7473 00118$:
                                   7474 ;geometry_boy.c:865: set_sprite_data(PLAYER_TEXT_OAM + i, 1, aero + 16 * (13 + player_text[i] - 65)); // load tiles into VRAM
      002319 21r3Ar25              7475 	ld	hl, #_player_text
      00231C 06 00                 7476 	ld	b, #0x00
      00231E 09                    7477 	add	hl, bc
      00231F 7E                    7478 	ld	a, (hl)
      002320 5F                    7479 	ld	e, a
      002321 07                    7480 	rlca
      002322 9F                    7481 	sbc	a, a
      002323 57                    7482 	ld	d, a
      002324 21 CC FF              7483 	ld	hl, #0xffcc
      002327 19                    7484 	add	hl, de
      002328 29                    7485 	add	hl, hl
      002329 29                    7486 	add	hl, hl
      00232A 29                    7487 	add	hl, hl
      00232B 29                    7488 	add	hl, hl
      00232C 11r8Cr02              7489 	ld	de, #_aero
      00232F 19                    7490 	add	hl, de
      002330 79                    7491 	ld	a, c
      002331 C6 1B                 7492 	add	a, #0x1b
      002333 47                    7493 	ld	b, a
      002334 E5                    7494 	push	hl
      002335 3E 01                 7495 	ld	a, #0x01
      002337 F5                    7496 	push	af
      002338 33                    7497 	inc	sp
      002339 C5                    7498 	push	bc
      00233A 33                    7499 	inc	sp
      00233B CDr00r00              7500 	call	_set_sprite_data
      00233E E8 04                 7501 	add	sp, #4
                                   7502 ;geometry_boy.c:866: set_sprite_tile(PLAYER_TEXT_OAM + i, PLAYER_TEXT_OAM + i);
      002340 78                    7503 	ld	a, b
      002341 F8 08                 7504 	ldhl	sp,	#8
      002343 77                    7505 	ld	(hl), a
                                   7506 ;../gbdk/include/gb/gb.h:1326: shadow_OAM[nb].tile=tile;
      002344 68                    7507 	ld	l, b
                                   7508 ;	spillPairReg hl
                                   7509 ;	spillPairReg hl
      002345 26 00                 7510 	ld	h, #0x00
                                   7511 ;	spillPairReg hl
                                   7512 ;	spillPairReg hl
      002347 29                    7513 	add	hl, hl
      002348 29                    7514 	add	hl, hl
      002349 11r00r00              7515 	ld	de, #_shadow_OAM
      00234C 19                    7516 	add	hl, de
      00234D 23                    7517 	inc	hl
      00234E 23                    7518 	inc	hl
      00234F 5D                    7519 	ld	e, l
      002350 54                    7520 	ld	d, h
      002351 F8 08                 7521 	ldhl	sp,	#8
      002353 7E                    7522 	ld	a, (hl)
      002354 12                    7523 	ld	(de), a
                                   7524 ;geometry_boy.c:867: move_sprite(PLAYER_TEXT_OAM + i, PLAYER_TEXT_START_X + XOFF + 8 * i, (uint8_t)(PLAYER_TEXT_START_Y + YOFF));
      002355 79                    7525 	ld	a, c
      002356 87                    7526 	add	a, a
      002357 87                    7527 	add	a, a
      002358 87                    7528 	add	a, a
      002359 C6 40                 7529 	add	a, #0x40
      00235B 57                    7530 	ld	d, a
      00235C 58                    7531 	ld	e, b
                                   7532 ;../gbdk/include/gb/gb.h:1399: OAM_item_t * itm = &shadow_OAM[nb];
      00235D 6B                    7533 	ld	l, e
                                   7534 ;	spillPairReg hl
                                   7535 ;	spillPairReg hl
      00235E 26 00                 7536 	ld	h, #0x00
                                   7537 ;	spillPairReg hl
                                   7538 ;	spillPairReg hl
      002360 29                    7539 	add	hl, hl
      002361 29                    7540 	add	hl, hl
      002362 D5                    7541 	push	de
      002363 11r00r00              7542 	ld	de, #_shadow_OAM
      002366 19                    7543 	add	hl, de
      002367 D1                    7544 	pop	de
                                   7545 ;../gbdk/include/gb/gb.h:1400: itm->y=y, itm->x=x;
      002368 3E 78                 7546 	ld	a, #0x78
      00236A 22                    7547 	ld	(hl+), a
      00236B 72                    7548 	ld	(hl), d
                                   7549 ;geometry_boy.c:856: for (uint8_t i = 0; i < 6; i++)
      00236C 0C                    7550 	inc	c
      00236D C3rBCr22              7551 	jp	00203$
      002370                       7552 00119$:
                                   7553 ;geometry_boy.c:870: set_sprite_data(CURSOR_TEXT_OAM, 1, (char *)LIGHT_CURSOR); // Load into VRAM
      002370 11r0Cr07              7554 	ld	de, #_aero_cursors
      002373 D5                    7555 	push	de
      002374 3E 01                 7556 	ld	a, #0x01
      002376 F5                    7557 	push	af
      002377 33                    7558 	inc	sp
      002378 3E 0A                 7559 	ld	a, #0x0a
      00237A F5                    7560 	push	af
      00237B 33                    7561 	inc	sp
      00237C CDr00r00              7562 	call	_set_sprite_data
      00237F E8 04                 7563 	add	sp, #4
                                   7564 ;../gbdk/include/gb/gb.h:1326: shadow_OAM[nb].tile=tile;
      002381 21r2Ar00              7565 	ld	hl, #(_shadow_OAM + 42)
      002384 36 0A                 7566 	ld	(hl), #0x0a
                                   7567 ;../gbdk/include/gb/gb.h:1399: OAM_item_t * itm = &shadow_OAM[nb];
      002386 21r28r00              7568 	ld	hl, #(_shadow_OAM + 40)
                                   7569 ;../gbdk/include/gb/gb.h:1400: itm->y=y, itm->x=x;
      002389 3E 68                 7570 	ld	a, #0x68
      00238B 22                    7571 	ld	(hl+), a
      00238C 36 30                 7572 	ld	(hl), #0x30
                                   7573 ;geometry_boy.c:875: title_loaded = 1;
      00238E 21r25r00              7574 	ld	hl, #_title_loaded
      002391 36 01                 7575 	ld	(hl), #0x01
                                   7576 ;geometry_boy.c:876: title_index = 0;
      002393 F8 05                 7577 	ldhl	sp,	#5
      002395 36 00                 7578 	ld	(hl), #0x00
                                   7579 ;../gbdk/include/gb/gb.h:1415: OAM_item_t * itm = &shadow_OAM[nb];
      002397 01r54r00              7580 	ld	bc, #_shadow_OAM+84
                                   7581 ;../gbdk/include/gb/gb.h:1416: itm->y+=y, itm->x+=x;
      00239A 0A                    7582 	ld	a, (bc)
      00239B C6 FE                 7583 	add	a, #0xfe
      00239D 02                    7584 	ld	(bc), a
      00239E 03                    7585 	inc	bc
      00239F 0A                    7586 	ld	a, (bc)
      0023A0 02                    7587 	ld	(bc), a
                                   7588 ;geometry_boy.c:877: scroll_sprite(TITLE_OAM + 10, 0, -2);
      0023A1 C3r18r25              7589 	jp	00153$
      0023A4                       7590 00152$:
                                   7591 ;geometry_boy.c:884: if (tick % 4 == 0)
      0023A4 F8 07                 7592 	ldhl	sp,	#7
      0023A6 3A                    7593 	ld	a, (hl-)
      0023A7 B6                    7594 	or	a, (hl)
      0023A8 20 5A                 7595 	jr	NZ, 00129$
                                   7596 ;geometry_boy.c:886: if (title_index == 0)
      0023AA 2B                    7597 	dec	hl
      0023AB 7E                    7598 	ld	a, (hl)
      0023AC B7                    7599 	or	a, a
      0023AD 20 1D                 7600 	jr	NZ, 00126$
                                   7601 ;geometry_boy.c:888: scroll_sprite(TITLE_OAM + title_index, 0, -2);
      0023AF F8 08                 7602 	ldhl	sp,	#8
                                   7603 ;../gbdk/include/gb/gb.h:1415: OAM_item_t * itm = &shadow_OAM[nb];
      0023B1 6E                    7604 	ld	l, (hl)
      0023B2 01r00r00              7605 	ld	bc, #_shadow_OAM+0
                                   7606 ;	spillPairReg hl
                                   7607 ;	spillPairReg hl
      0023B5 26 00                 7608 	ld	h, #0x00
                                   7609 ;	spillPairReg hl
                                   7610 ;	spillPairReg hl
      0023B7 29                    7611 	add	hl, hl
      0023B8 29                    7612 	add	hl, hl
      0023B9 09                    7613 	add	hl, bc
                                   7614 ;../gbdk/include/gb/gb.h:1416: itm->y+=y, itm->x+=x;
      0023BA 7E                    7615 	ld	a, (hl)
      0023BB C6 FE                 7616 	add	a, #0xfe
      0023BD 22                    7617 	ld	(hl+), a
      0023BE 7E                    7618 	ld	a, (hl)
      0023BF 77                    7619 	ld	(hl), a
                                   7620 ;../gbdk/include/gb/gb.h:1415: OAM_item_t * itm = &shadow_OAM[nb];
      0023C0 01r54r00              7621 	ld	bc, #_shadow_OAM+84
                                   7622 ;../gbdk/include/gb/gb.h:1416: itm->y+=y, itm->x+=x;
      0023C3 0A                    7623 	ld	a, (bc)
      0023C4 C6 02                 7624 	add	a, #0x02
      0023C6 02                    7625 	ld	(bc), a
      0023C7 03                    7626 	inc	bc
      0023C8 0A                    7627 	ld	a, (bc)
      0023C9 02                    7628 	ld	(bc), a
                                   7629 ;geometry_boy.c:889: scroll_sprite(TITLE_OAM + 10, 0, +2);
      0023CA 18 25                 7630 	jr	00127$
      0023CC                       7631 00126$:
                                   7632 ;geometry_boy.c:893: scroll_sprite(TITLE_OAM + title_index, 0, -2);
      0023CC F8 08                 7633 	ldhl	sp,	#8
                                   7634 ;../gbdk/include/gb/gb.h:1415: OAM_item_t * itm = &shadow_OAM[nb];
      0023CE 6E                    7635 	ld	l, (hl)
      0023CF 01r00r00              7636 	ld	bc, #_shadow_OAM+0
                                   7637 ;	spillPairReg hl
                                   7638 ;	spillPairReg hl
      0023D2 26 00                 7639 	ld	h, #0x00
                                   7640 ;	spillPairReg hl
                                   7641 ;	spillPairReg hl
      0023D4 29                    7642 	add	hl, hl
      0023D5 29                    7643 	add	hl, hl
      0023D6 09                    7644 	add	hl, bc
                                   7645 ;../gbdk/include/gb/gb.h:1416: itm->y+=y, itm->x+=x;
      0023D7 7E                    7646 	ld	a, (hl)
      0023D8 C6 FE                 7647 	add	a, #0xfe
      0023DA 22                    7648 	ld	(hl+), a
      0023DB 7E                    7649 	ld	a, (hl)
      0023DC 77                    7650 	ld	(hl), a
                                   7651 ;geometry_boy.c:894: scroll_sprite(TITLE_OAM + title_index - 1, 0, +2);
      0023DD F8 04                 7652 	ldhl	sp,	#4
      0023DF 7E                    7653 	ld	a, (hl)
      0023E0 C6 0A                 7654 	add	a, #0x0a
                                   7655 ;../gbdk/include/gb/gb.h:1415: OAM_item_t * itm = &shadow_OAM[nb];
      0023E2 6F                    7656 	ld	l, a
      0023E3 01r00r00              7657 	ld	bc, #_shadow_OAM+0
                                   7658 ;	spillPairReg hl
                                   7659 ;	spillPairReg hl
      0023E6 26 00                 7660 	ld	h, #0x00
                                   7661 ;	spillPairReg hl
                                   7662 ;	spillPairReg hl
      0023E8 29                    7663 	add	hl, hl
      0023E9 29                    7664 	add	hl, hl
      0023EA 09                    7665 	add	hl, bc
                                   7666 ;../gbdk/include/gb/gb.h:1416: itm->y+=y, itm->x+=x;
      0023EB 7E                    7667 	ld	a, (hl)
      0023EC C6 02                 7668 	add	a, #0x02
      0023EE 22                    7669 	ld	(hl+), a
      0023EF 7E                    7670 	ld	a, (hl)
      0023F0 77                    7671 	ld	(hl), a
                                   7672 ;geometry_boy.c:894: scroll_sprite(TITLE_OAM + title_index - 1, 0, +2);
      0023F1                       7673 00127$:
                                   7674 ;geometry_boy.c:896: title_index = (title_index + 1) % 11;
      0023F1 F8 05                 7675 	ldhl	sp,	#5
      0023F3 4E                    7676 	ld	c, (hl)
      0023F4 06 00                 7677 	ld	b, #0x00
      0023F6 03                    7678 	inc	bc
      0023F7 11 0B 00              7679 	ld	de, #0x000b
      0023FA D5                    7680 	push	de
      0023FB C5                    7681 	push	bc
      0023FC CDr00r00              7682 	call	__modsint
      0023FF E8 04                 7683 	add	sp, #4
      002401 F8 05                 7684 	ldhl	sp,	#5
      002403 73                    7685 	ld	(hl), e
      002404                       7686 00129$:
                                   7687 ;geometry_boy.c:899: prev_jpad = jpad;
      002404 FAr09r00              7688 	ld	a, (#_jpad)
      002407 EAr08r00              7689 	ld	(#_prev_jpad),a
                                   7690 ;geometry_boy.c:900: jpad = joypad();
      00240A CDr00r00              7691 	call	_joypad
      00240D 21r09r00              7692 	ld	hl, #_jpad
      002410 73                    7693 	ld	(hl), e
                                   7694 ;geometry_boy.c:902: if (debounce_input(J_DOWN, jpad, prev_jpad))
      002411 FAr08r00              7695 	ld	a, (#_prev_jpad)
      002414 F8 06                 7696 	ldhl	sp,	#6
      002416 77                    7697 	ld	(hl), a
                                   7698 ;geometry_boy.c:899: prev_jpad = jpad;
      002417 FAr09r00              7699 	ld	a, (#_jpad)
      00241A F8 07                 7700 	ldhl	sp,	#7
                                   7701 ;geometry_boy.c:361: return (button == target) && !(prev_button == target);
      00241C 32                    7702 	ld	(hl-), a
      00241D 7E                    7703 	ld	a, (hl)
      00241E D6 08                 7704 	sub	a, #0x08
      002420 20 07                 7705 	jr	NZ, 00214$
      002422 F8 07                 7706 	ldhl	sp,	#7
      002424 7E                    7707 	ld	a, (hl)
      002425 D6 08                 7708 	sub	a, #0x08
      002427 20 06                 7709 	jr	NZ, 00215$
      002429                       7710 00214$:
      002429 F8 08                 7711 	ldhl	sp,	#8
      00242B 36 00                 7712 	ld	(hl), #0x00
      00242D 18 04                 7713 	jr	00216$
      00242F                       7714 00215$:
      00242F F8 08                 7715 	ldhl	sp,	#8
      002431 36 01                 7716 	ld	(hl), #0x01
      002433                       7717 00216$:
      002433 F8 08                 7718 	ldhl	sp,	#8
      002435 7E                    7719 	ld	a, (hl)
                                   7720 ;geometry_boy.c:902: if (debounce_input(J_DOWN, jpad, prev_jpad))
      002436 B7                    7721 	or	a, a
      002437 28 07                 7722 	jr	Z, 00133$
                                   7723 ;geometry_boy.c:904: cursor_title_position = 1;
      002439 21r26r00              7724 	ld	hl, #_cursor_title_position
      00243C 36 01                 7725 	ld	(hl), #0x01
      00243E 18 1B                 7726 	jr	00134$
      002440                       7727 00133$:
                                   7728 ;geometry_boy.c:361: return (button == target) && !(prev_button == target);
      002440 F8 06                 7729 	ldhl	sp,	#6
      002442 7E                    7730 	ld	a, (hl)
      002443 D6 04                 7731 	sub	a, #0x04
      002445 20 07                 7732 	jr	NZ, 00217$
      002447 F8 07                 7733 	ldhl	sp,	#7
      002449 7E                    7734 	ld	a, (hl)
      00244A D6 04                 7735 	sub	a, #0x04
      00244C 20 03                 7736 	jr	NZ, 00218$
      00244E                       7737 00217$:
      00244E AF                    7738 	xor	a, a
      00244F 18 02                 7739 	jr	00219$
      002451                       7740 00218$:
      002451 3E 01                 7741 	ld	a, #0x01
      002453                       7742 00219$:
                                   7743 ;geometry_boy.c:906: else if (debounce_input(J_UP, jpad, prev_jpad))
      002453 B7                    7744 	or	a, a
      002454 28 05                 7745 	jr	Z, 00134$
                                   7746 ;geometry_boy.c:908: cursor_title_position = 0;
      002456 21r26r00              7747 	ld	hl, #_cursor_title_position
      002459 36 00                 7748 	ld	(hl), #0x00
      00245B                       7749 00134$:
                                   7750 ;geometry_boy.c:911: if (cursor_title_position != cursor_title_position_old)
      00245B FAr26r00              7751 	ld	a, (#_cursor_title_position)
      00245E 21r27r00              7752 	ld	hl, #_cursor_title_position_old
      002461 96                    7753 	sub	a, (hl)
      002462 28 27                 7754 	jr	Z, 00149$
                                   7755 ;geometry_boy.c:913: if (cursor_title_position == 0)
      002464 FAr26r00              7756 	ld	a, (#_cursor_title_position)
      002467 B7                    7757 	or	a, a
      002468 20 0A                 7758 	jr	NZ, 00138$
                                   7759 ;../gbdk/include/gb/gb.h:1399: OAM_item_t * itm = &shadow_OAM[nb];
      00246A 21r28r00              7760 	ld	hl, #(_shadow_OAM + 40)
                                   7761 ;../gbdk/include/gb/gb.h:1400: itm->y=y, itm->x=x;
      00246D 3E 68                 7762 	ld	a, #0x68
      00246F 22                    7763 	ld	(hl+), a
      002470 36 30                 7764 	ld	(hl), #0x30
                                   7765 ;geometry_boy.c:915: move_sprite(CURSOR_TEXT_OAM, TITLE_CURSOR_START_X, START_TEXT_START_Y + YOFF);
      002472 18 0E                 7766 	jr	00139$
      002474                       7767 00138$:
                                   7768 ;geometry_boy.c:917: else if (cursor_title_position == 1)
      002474 FAr26r00              7769 	ld	a, (#_cursor_title_position)
      002477 3D                    7770 	dec	a
      002478 20 08                 7771 	jr	NZ, 00139$
                                   7772 ;../gbdk/include/gb/gb.h:1399: OAM_item_t * itm = &shadow_OAM[nb];
      00247A 21r28r00              7773 	ld	hl, #(_shadow_OAM + 40)
                                   7774 ;../gbdk/include/gb/gb.h:1400: itm->y=y, itm->x=x;
      00247D 3E 78                 7775 	ld	a, #0x78
      00247F 22                    7776 	ld	(hl+), a
      002480 36 30                 7777 	ld	(hl), #0x30
                                   7778 ;geometry_boy.c:919: move_sprite(CURSOR_TEXT_OAM, TITLE_CURSOR_START_X, (uint8_t)(PLAYER_TEXT_START_Y + YOFF));
      002482                       7779 00139$:
                                   7780 ;geometry_boy.c:921: cursor_title_position_old = cursor_title_position;
      002482 FAr26r00              7781 	ld	a, (#_cursor_title_position)
      002485 EAr27r00              7782 	ld	(#_cursor_title_position_old),a
      002488 C3r18r25              7783 	jp	00153$
      00248B                       7784 00149$:
                                   7785 ;geometry_boy.c:361: return (button == target) && !(prev_button == target);
      00248B F8 06                 7786 	ldhl	sp,	#6
      00248D 7E                    7787 	ld	a, (hl)
      00248E D6 40                 7788 	sub	a, #0x40
      002490 20 07                 7789 	jr	NZ, 00220$
      002492 F8 07                 7790 	ldhl	sp,	#7
      002494 7E                    7791 	ld	a, (hl)
      002495 D6 40                 7792 	sub	a, #0x40
      002497 20 03                 7793 	jr	NZ, 00221$
      002499                       7794 00220$:
      002499 AF                    7795 	xor	a, a
      00249A 18 02                 7796 	jr	00222$
      00249C                       7797 00221$:
      00249C 3E 01                 7798 	ld	a, #0x01
      00249E                       7799 00222$:
                                   7800 ;geometry_boy.c:924: else if (debounce_input(J_SELECT, jpad, prev_jpad))
      00249E B7                    7801 	or	a, a
      00249F 28 77                 7802 	jr	Z, 00153$
                                   7803 ;../gbdk/include/gb/gb.h:660: __asm__("di");
      0024A1 F3                    7804 	di
                                   7805 ;geometry_boy.c:318: set_bkg_data(0, 1, gb_tileset_v2); // load tiles into VRAM
      0024A2 11rBCr01              7806 	ld	de, #_gb_tileset_v2
      0024A5 D5                    7807 	push	de
      0024A6 AF                    7808 	xor	a, a
      0024A7 3C                    7809 	inc	a
      0024A8 F5                    7810 	push	af
      0024A9 CDr00r00              7811 	call	_set_bkg_data
      0024AC E8 04                 7812 	add	sp, #4
                                   7813 ;geometry_boy.c:319: for (render_row = 0; render_row < 18; render_row++)
      0024AE 21r01r00              7814 	ld	hl, #_render_row
      0024B1 36 00                 7815 	ld	(hl), #0x00
      0024B3                       7816 00207$:
                                   7817 ;geometry_boy.c:321: for (render_col = 0; render_col < 20; render_col++)
      0024B3 21r02r00              7818 	ld	hl, #_render_col
      0024B6 36 00                 7819 	ld	(hl), #0x00
      0024B8                       7820 00205$:
                                   7821 ;geometry_boy.c:323: set_bkg_tile_xy(render_col, render_row, 0);
      0024B8 AF                    7822 	xor	a, a
      0024B9 F5                    7823 	push	af
      0024BA 33                    7824 	inc	sp
      0024BB FAr01r00              7825 	ld	a, (#_render_row)
      0024BE 67                    7826 	ld	h, a
      0024BF FAr02r00              7827 	ld	a, (#_render_col)
      0024C2 6F                    7828 	ld	l, a
      0024C3 E5                    7829 	push	hl
      0024C4 CDr00r00              7830 	call	_set_bkg_tile_xy
      0024C7 E8 03                 7831 	add	sp, #3
                                   7832 ;geometry_boy.c:321: for (render_col = 0; render_col < 20; render_col++)
      0024C9 21r02r00              7833 	ld	hl, #_render_col
      0024CC 34                    7834 	inc	(hl)
      0024CD 7E                    7835 	ld	a, (hl)
      0024CE D6 14                 7836 	sub	a, #0x14
      0024D0 38 E6                 7837 	jr	C, 00205$
                                   7838 ;geometry_boy.c:319: for (render_row = 0; render_row < 18; render_row++)
      0024D2 21r01r00              7839 	ld	hl, #_render_row
      0024D5 34                    7840 	inc	(hl)
      0024D6 7E                    7841 	ld	a, (hl)
      0024D7 D6 12                 7842 	sub	a, #0x12
      0024D9 38 D8                 7843 	jr	C, 00207$
                                   7844 ;geometry_boy.c:928: remove_VBL(vbl_interrupt_title);
      0024DB 11rFCr07              7845 	ld	de, #_vbl_interrupt_title
      0024DE D5                    7846 	push	de
      0024DF CDr00r00              7847 	call	_remove_VBL
      0024E2 33                    7848 	inc	sp
      0024E3 33                    7849 	inc	sp
                                   7850 ;../gbdk/include/gb/gb.h:644: __asm__("ei");
      0024E4 FB                    7851 	ei
                                   7852 ;geometry_boy.c:930: for (uint8_t i = 0; i < 40; i++)
      0024E5 0E 00                 7853 	ld	c, #0x00
      0024E7                       7854 00210$:
      0024E7 79                    7855 	ld	a, c
      0024E8 D6 28                 7856 	sub	a, #0x28
      0024EA 30 0E                 7857 	jr	NC, 00140$
                                   7858 ;../gbdk/include/gb/gb.h:1425: shadow_OAM[nb].y = 0;
      0024EC 11r00r00              7859 	ld	de, #_shadow_OAM+0
      0024EF 69                    7860 	ld	l, c
                                   7861 ;	spillPairReg hl
                                   7862 ;	spillPairReg hl
      0024F0 26 00                 7863 	ld	h, #0x00
                                   7864 ;	spillPairReg hl
                                   7865 ;	spillPairReg hl
      0024F2 29                    7866 	add	hl, hl
      0024F3 29                    7867 	add	hl, hl
      0024F4 19                    7868 	add	hl, de
      0024F5 36 00                 7869 	ld	(hl), #0x00
                                   7870 ;geometry_boy.c:930: for (uint8_t i = 0; i < 40; i++)
      0024F7 0C                    7871 	inc	c
      0024F8 18 ED                 7872 	jr	00210$
      0024FA                       7873 00140$:
                                   7874 ;geometry_boy.c:934: if (cursor_title_position == 0)
      0024FA FAr26r00              7875 	ld	a, (#_cursor_title_position)
      0024FD B7                    7876 	or	a, a
      0024FE 20 09                 7877 	jr	NZ, 00144$
                                   7878 ;geometry_boy.c:936: cursor_title_position_old = 1; // force a change the next time title runs
      002500 21r27r00              7879 	ld	hl, #_cursor_title_position_old
      002503 36 01                 7880 	ld	(hl), #0x01
                                   7881 ;geometry_boy.c:937: return LEVEL_SELECT;
      002505 1E 02                 7882 	ld	e, #0x02
      002507 18 1E                 7883 	jr	00212$
      002509                       7884 00144$:
                                   7885 ;geometry_boy.c:939: else if (cursor_title_position == 1)
      002509 FAr26r00              7886 	ld	a, (#_cursor_title_position)
      00250C 3D                    7887 	dec	a
      00250D 20 09                 7888 	jr	NZ, 00153$
                                   7889 ;geometry_boy.c:941: cursor_title_position_old = 0;
      00250F 21r27r00              7890 	ld	hl, #_cursor_title_position_old
      002512 36 00                 7891 	ld	(hl), #0x00
                                   7892 ;geometry_boy.c:942: return PLAYER_SELECT;
      002514 1E 03                 7893 	ld	e, #0x03
      002516 18 0F                 7894 	jr	00212$
      002518                       7895 00153$:
                                   7896 ;geometry_boy.c:947: tick++;
      002518 21r0Ar00              7897 	ld	hl, #_tick
      00251B 34                    7898 	inc	(hl)
                                   7899 ;geometry_boy.c:949: delay(LOOP_DELAY);    // LOOP_DELAY
      00251C 11 14 00              7900 	ld	de, #0x0014
      00251F D5                    7901 	push	de
      002520 CDr00r00              7902 	call	_delay
      002523 E1                    7903 	pop	hl
      002524 C3r95r21              7904 	jp	00155$
      002527                       7905 00212$:
                                   7906 ;geometry_boy.c:951: }
      002527 E8 09                 7907 	add	sp, #9
      002529 C9                    7908 	ret
      00252A                       7909 _game_title:
      00252A 47                    7910 	.db #0x47	;  71	'G'
      00252B 45                    7911 	.db #0x45	;  69	'E'
      00252C 4F                    7912 	.db #0x4f	;  79	'O'
      00252D 4D                    7913 	.db #0x4d	;  77	'M'
      00252E 45                    7914 	.db #0x45	;  69	'E'
      00252F 54                    7915 	.db #0x54	;  84	'T'
      002530 52                    7916 	.db #0x52	;  82	'R'
      002531 59                    7917 	.db #0x59	;  89	'Y'
      002532 42                    7918 	.db #0x42	;  66	'B'
      002533 4F                    7919 	.db #0x4f	;  79	'O'
      002534 59                    7920 	.db #0x59	;  89	'Y'
      002535                       7921 _start_text:
      002535 53                    7922 	.db #0x53	;  83	'S'
      002536 54                    7923 	.db #0x54	;  84	'T'
      002537 41                    7924 	.db #0x41	;  65	'A'
      002538 52                    7925 	.db #0x52	;  82	'R'
      002539 54                    7926 	.db #0x54	;  84	'T'
      00253A                       7927 _player_text:
      00253A 50                    7928 	.db #0x50	;  80	'P'
      00253B 4C                    7929 	.db #0x4c	;  76	'L'
      00253C 41                    7930 	.db #0x41	;  65	'A'
      00253D 59                    7931 	.db #0x59	;  89	'Y'
      00253E 45                    7932 	.db #0x45	;  69	'E'
      00253F 52                    7933 	.db #0x52	;  82	'R'
                                   7934 ;geometry_boy.c:958: screen_t player_select()
                                   7935 ;	---------------------------------
                                   7936 ; Function player_select
                                   7937 ; ---------------------------------
      002540                       7938 _player_select::
      002540 E8 F7                 7939 	add	sp, #-9
                                   7940 ;geometry_boy.c:961: wait_vbl_done();
      002542 CDr00r00              7941 	call	_wait_vbl_done
                                   7942 ;geometry_boy.c:318: set_bkg_data(0, 1, gb_tileset_v2); // load tiles into VRAM
      002545 11rBCr01              7943 	ld	de, #_gb_tileset_v2
      002548 D5                    7944 	push	de
      002549 AF                    7945 	xor	a, a
      00254A 3C                    7946 	inc	a
      00254B F5                    7947 	push	af
      00254C CDr00r00              7948 	call	_set_bkg_data
      00254F E8 04                 7949 	add	sp, #4
                                   7950 ;geometry_boy.c:319: for (render_row = 0; render_row < 18; render_row++)
      002551 21r01r00              7951 	ld	hl, #_render_row
      002554 36 00                 7952 	ld	(hl), #0x00
      002556                       7953 00153$:
                                   7954 ;geometry_boy.c:321: for (render_col = 0; render_col < 20; render_col++)
      002556 21r02r00              7955 	ld	hl, #_render_col
      002559 36 00                 7956 	ld	(hl), #0x00
      00255B                       7957 00151$:
                                   7958 ;geometry_boy.c:323: set_bkg_tile_xy(render_col, render_row, 0);
      00255B AF                    7959 	xor	a, a
      00255C F5                    7960 	push	af
      00255D 33                    7961 	inc	sp
      00255E FAr01r00              7962 	ld	a, (#_render_row)
      002561 67                    7963 	ld	h, a
      002562 FAr02r00              7964 	ld	a, (#_render_col)
      002565 6F                    7965 	ld	l, a
      002566 E5                    7966 	push	hl
      002567 CDr00r00              7967 	call	_set_bkg_tile_xy
      00256A E8 03                 7968 	add	sp, #3
                                   7969 ;geometry_boy.c:321: for (render_col = 0; render_col < 20; render_col++)
      00256C 21r02r00              7970 	ld	hl, #_render_col
      00256F 34                    7971 	inc	(hl)
      002570 7E                    7972 	ld	a, (hl)
      002571 D6 14                 7973 	sub	a, #0x14
      002573 38 E6                 7974 	jr	C, 00151$
                                   7975 ;geometry_boy.c:319: for (render_row = 0; render_row < 18; render_row++)
      002575 21r01r00              7976 	ld	hl, #_render_row
      002578 34                    7977 	inc	(hl)
      002579 7E                    7978 	ld	a, (hl)
      00257A D6 12                 7979 	sub	a, #0x12
      00257C 38 D8                 7980 	jr	C, 00153$
                                   7981 ;geometry_boy.c:966: set_sprite_data(CURSOR_TEXT_OAM, 1, (char *)DARK_CURSOR); // Load into VRAM
      00257E 11r1Cr07              7982 	ld	de, #(_aero_cursors + 16)
      002581 D5                    7983 	push	de
      002582 3E 01                 7984 	ld	a, #0x01
      002584 F5                    7985 	push	af
      002585 33                    7986 	inc	sp
      002586 3E 0A                 7987 	ld	a, #0x0a
      002588 F5                    7988 	push	af
      002589 33                    7989 	inc	sp
      00258A CDr00r00              7990 	call	_set_sprite_data
      00258D E8 04                 7991 	add	sp, #4
                                   7992 ;../gbdk/include/gb/gb.h:1326: shadow_OAM[nb].tile=tile;
      00258F 21r2Ar00              7993 	ld	hl, #(_shadow_OAM + 42)
      002592 36 0A                 7994 	ld	(hl), #0x0a
                                   7995 ;geometry_boy.c:971: ((player_sprite_num / 4) * PLAYERS_GRID_SPACING) + PLAYERS_GRID_STARTY + YOFF);
      002594 21r04r00              7996 	ld	hl, #_player_sprite_num
      002597 6E                    7997 	ld	l, (hl)
                                   7998 ;	spillPairReg hl
                                   7999 ;	spillPairReg hl
      002598 26 00                 8000 	ld	h, #0x00
                                   8001 ;	spillPairReg hl
                                   8002 ;	spillPairReg hl
      00259A 4D                    8003 	ld	c, l
      00259B 44                    8004 	ld	b, h
      00259C CB 7C                 8005 	bit	7, h
      00259E 28 05                 8006 	jr	Z, 00163$
      0025A0 4D                    8007 	ld	c, l
      0025A1 44                    8008 	ld	b, h
      0025A2 03                    8009 	inc	bc
      0025A3 03                    8010 	inc	bc
      0025A4 03                    8011 	inc	bc
      0025A5                       8012 00163$:
      0025A5 CB 28                 8013 	sra	b
      0025A7 CB 19                 8014 	rr	c
      0025A9 CB 28                 8015 	sra	b
      0025AB CB 19                 8016 	rr	c
      0025AD 79                    8017 	ld	a, c
      0025AE CB 37                 8018 	swap	a
      0025B0 07                    8019 	rlca
      0025B1 E6 E0                 8020 	and	a, #0xe0
      0025B3 C6 24                 8021 	add	a, #0x24
      0025B5 47                    8022 	ld	b, a
                                   8023 ;geometry_boy.c:970: ((player_sprite_num % 4) * PLAYERS_GRID_SPACING) + PLAYERS_GRID_STARTX + XOFF - 16,
      0025B6 7D                    8024 	ld	a, l
      0025B7 E6 03                 8025 	and	a, #0x03
      0025B9 CB 37                 8026 	swap	a
      0025BB 07                    8027 	rlca
      0025BC E6 E0                 8028 	and	a, #0xe0
      0025BE C6 14                 8029 	add	a, #0x14
      0025C0 4F                    8030 	ld	c, a
                                   8031 ;../gbdk/include/gb/gb.h:1399: OAM_item_t * itm = &shadow_OAM[nb];
      0025C1 21r28r00              8032 	ld	hl, #(_shadow_OAM + 40)
                                   8033 ;../gbdk/include/gb/gb.h:1400: itm->y=y, itm->x=x;
      0025C4 78                    8034 	ld	a, b
      0025C5 22                    8035 	ld	(hl+), a
      0025C6 71                    8036 	ld	(hl), c
                                   8037 ;geometry_boy.c:974: set_sprite_data(PLAYER_SPRITES_OAM, 16, players); // Load into VRAM
      0025C7 11rACr00              8038 	ld	de, #_players
      0025CA D5                    8039 	push	de
      0025CB 21 0B 10              8040 	ld	hl, #0x100b
      0025CE E5                    8041 	push	hl
      0025CF CDr00r00              8042 	call	_set_sprite_data
      0025D2 E8 04                 8043 	add	sp, #4
                                   8044 ;geometry_boy.c:978: for (uint8_t i = 0; i < 16; i++)
      0025D4 F8 08                 8045 	ldhl	sp,	#8
      0025D6 36 00                 8046 	ld	(hl), #0x00
      0025D8                       8047 00156$:
      0025D8 F8 08                 8048 	ldhl	sp,	#8
      0025DA 7E                    8049 	ld	a, (hl)
      0025DB D6 10                 8050 	sub	a, #0x10
      0025DD 30 52                 8051 	jr	NC, 00101$
                                   8052 ;geometry_boy.c:980: set_sprite_tile(PLAYER_SPRITES_OAM + i, PLAYER_SPRITES_OAM + i);
      0025DF 7E                    8053 	ld	a, (hl)
      0025E0 C6 0B                 8054 	add	a, #0x0b
      0025E2 4F                    8055 	ld	c, a
                                   8056 ;../gbdk/include/gb/gb.h:1326: shadow_OAM[nb].tile=tile;
      0025E3 6F                    8057 	ld	l, a
      0025E4 11r00r00              8058 	ld	de, #_shadow_OAM+0
                                   8059 ;	spillPairReg hl
                                   8060 ;	spillPairReg hl
      0025E7 26 00                 8061 	ld	h, #0x00
                                   8062 ;	spillPairReg hl
                                   8063 ;	spillPairReg hl
      0025E9 29                    8064 	add	hl, hl
      0025EA 29                    8065 	add	hl, hl
      0025EB 19                    8066 	add	hl, de
      0025EC 23                    8067 	inc	hl
      0025ED 23                    8068 	inc	hl
      0025EE 71                    8069 	ld	(hl), c
                                   8070 ;geometry_boy.c:983: ((i / 4) * PLAYERS_GRID_SPACING) + PLAYERS_GRID_STARTY + YOFF);
      0025EF F8 08                 8071 	ldhl	sp,	#8
      0025F1 4E                    8072 	ld	c, (hl)
      0025F2 06 00                 8073 	ld	b, #0x00
      0025F4 69                    8074 	ld	l, c
                                   8075 ;	spillPairReg hl
                                   8076 ;	spillPairReg hl
      0025F5 60                    8077 	ld	h, b
                                   8078 ;	spillPairReg hl
                                   8079 ;	spillPairReg hl
      0025F6 CB 78                 8080 	bit	7, b
      0025F8 28 05                 8081 	jr	Z, 00164$
      0025FA 69                    8082 	ld	l, c
                                   8083 ;	spillPairReg hl
                                   8084 ;	spillPairReg hl
      0025FB 60                    8085 	ld	h, b
                                   8086 ;	spillPairReg hl
                                   8087 ;	spillPairReg hl
      0025FC 23                    8088 	inc	hl
      0025FD 23                    8089 	inc	hl
      0025FE 23                    8090 	inc	hl
      0025FF                       8091 00164$:
      0025FF CB 2C                 8092 	sra	h
      002601 CB 1D                 8093 	rr	l
      002603 CB 2C                 8094 	sra	h
      002605 CB 1D                 8095 	rr	l
      002607 7D                    8096 	ld	a, l
      002608 CB 37                 8097 	swap	a
      00260A 07                    8098 	rlca
      00260B E6 E0                 8099 	and	a, #0xe0
      00260D C6 24                 8100 	add	a, #0x24
      00260F 57                    8101 	ld	d, a
                                   8102 ;geometry_boy.c:982: ((i % 4) * PLAYERS_GRID_SPACING) + PLAYERS_GRID_STARTX + XOFF,
      002610 79                    8103 	ld	a, c
      002611 E6 03                 8104 	and	a, #0x03
      002613 CB 37                 8105 	swap	a
      002615 07                    8106 	rlca
      002616 E6 E0                 8107 	and	a, #0xe0
      002618 C6 24                 8108 	add	a, #0x24
      00261A 5F                    8109 	ld	e, a
                                   8110 ;geometry_boy.c:981: move_sprite(PLAYER_SPRITES_OAM + i,
      00261B F8 08                 8111 	ldhl	sp,	#8
      00261D 7E                    8112 	ld	a, (hl)
      00261E C6 0B                 8113 	add	a, #0x0b
                                   8114 ;../gbdk/include/gb/gb.h:1399: OAM_item_t * itm = &shadow_OAM[nb];
      002620 6F                    8115 	ld	l, a
                                   8116 ;	spillPairReg hl
                                   8117 ;	spillPairReg hl
      002621 26 00                 8118 	ld	h, #0x00
                                   8119 ;	spillPairReg hl
                                   8120 ;	spillPairReg hl
      002623 29                    8121 	add	hl, hl
      002624 29                    8122 	add	hl, hl
      002625 01r00r00              8123 	ld	bc, #_shadow_OAM
      002628 09                    8124 	add	hl, bc
                                   8125 ;../gbdk/include/gb/gb.h:1400: itm->y=y, itm->x=x;
      002629 7A                    8126 	ld	a, d
      00262A 22                    8127 	ld	(hl+), a
      00262B 73                    8128 	ld	(hl), e
                                   8129 ;geometry_boy.c:978: for (uint8_t i = 0; i < 16; i++)
      00262C F8 08                 8130 	ldhl	sp,	#8
      00262E 34                    8131 	inc	(hl)
      00262F 18 A7                 8132 	jr	00156$
      002631                       8133 00101$:
                                   8134 ;geometry_boy.c:986: SHOW_SPRITES;
      002631 F0r00                 8135 	ldh	a, (_LCDC_REG + 0)
      002633 F6 02                 8136 	or	a, #0x02
      002635 E0r00                 8137 	ldh	(_LCDC_REG + 0), a
                                   8138 ;geometry_boy.c:988: uint8_t is_up = 0;
      002637 F8 00                 8139 	ldhl	sp,	#0
      002639 36 00                 8140 	ld	(hl), #0x00
                                   8141 ;geometry_boy.c:175: vbl_count = 0;
      00263B 21r06r00              8142 	ld	hl, #_vbl_count
      00263E 36 00                 8143 	ld	(hl), #0x00
                                   8144 ;geometry_boy.c:176: background_x_shift = 0;
      002640 AF                    8145 	xor	a, a
      002641 21r0Br00              8146 	ld	hl, #_background_x_shift
      002644 22                    8147 	ld	(hl+), a
      002645 77                    8148 	ld	(hl), a
                                   8149 ;geometry_boy.c:177: old_scroll_x = 0;
      002646 AF                    8150 	xor	a, a
      002647 21r0Fr00              8151 	ld	hl, #_old_scroll_x
      00264A 22                    8152 	ld	(hl+), a
      00264B 77                    8153 	ld	(hl), a
                                   8154 ;geometry_boy.c:178: old_background_x_shift = 8 + 3;
      00264C 21r0Dr00              8155 	ld	hl, #_old_background_x_shift
      00264F 3E 0B                 8156 	ld	a, #0x0b
      002651 22                    8157 	ld	(hl+), a
      002652 AF                    8158 	xor	a, a
      002653 77                    8159 	ld	(hl), a
                                   8160 ;geometry_boy.c:179: player_y = PLAYER_START_Y;
      002654 21r02r00              8161 	ld	hl, #_player_y
      002657 36 90                 8162 	ld	(hl), #0x90
                                   8163 ;geometry_boy.c:180: player_x = PLAYER_START_X;
      002659 21r03r00              8164 	ld	hl, #_player_x
      00265C 36 20                 8165 	ld	(hl), #0x20
                                   8166 ;geometry_boy.c:181: player_dx = 3;
      00265E 21r01r00              8167 	ld	hl, #_player_dx
      002661 36 03                 8168 	ld	(hl), #0x03
                                   8169 ;geometry_boy.c:182: on_ground = 1;
      002663 21r05r00              8170 	ld	hl, #_on_ground
      002666 36 01                 8171 	ld	(hl), #0x01
                                   8172 ;geometry_boy.c:183: lose = 0;
      002668 21r07r00              8173 	ld	hl, #_lose
      00266B 36 00                 8174 	ld	(hl), #0x00
                                   8175 ;geometry_boy.c:184: win = 0;
      00266D 21r06r00              8176 	ld	hl, #_win
      002670 36 00                 8177 	ld	(hl), #0x00
                                   8178 ;geometry_boy.c:185: tick = 0;
      002672 21r0Ar00              8179 	ld	hl, #_tick
      002675 36 00                 8180 	ld	(hl), #0x00
                                   8181 ;geometry_boy.c:186: parallax_tile_ind = 0;
      002677 21r11r00              8182 	ld	hl, #_parallax_tile_ind
      00267A 36 00                 8183 	ld	(hl), #0x00
                                   8184 ;geometry_boy.c:189: prev_jpad = 0;
      00267C 21r08r00              8185 	ld	hl, #_prev_jpad
      00267F 36 00                 8186 	ld	(hl), #0x00
                                   8187 ;geometry_boy.c:190: jpad = 0;
      002681 21r09r00              8188 	ld	hl, #_jpad
      002684 36 00                 8189 	ld	(hl), #0x00
                                   8190 ;geometry_boy.c:191: SCX_REG = 0;
      002686 AF                    8191 	xor	a, a
      002687 E0r00                 8192 	ldh	(_SCX_REG + 0), a
                                   8193 ;geometry_boy.c:992: while (1)
      002689                       8194 00125$:
                                   8195 ;geometry_boy.c:994: if (vbl_count == 0)
      002689 FAr06r00              8196 	ld	a, (#_vbl_count)
      00268C B7                    8197 	or	a, a
      00268D 20 03                 8198 	jr	NZ, 00103$
                                   8199 ;geometry_boy.c:996: wait_vbl_done();
      00268F CDr00r00              8200 	call	_wait_vbl_done
      002692                       8201 00103$:
                                   8202 ;geometry_boy.c:998: vbl_count = 0;
      002692 21r06r00              8203 	ld	hl, #_vbl_count
      002695 36 00                 8204 	ld	(hl), #0x00
                                   8205 ;geometry_boy.c:1000: prev_jpad = jpad;
      002697 FAr09r00              8206 	ld	a, (#_jpad)
      00269A EAr08r00              8207 	ld	(#_prev_jpad),a
                                   8208 ;geometry_boy.c:1001: jpad = joypad();
      00269D CDr00r00              8209 	call	_joypad
      0026A0 21r09r00              8210 	ld	hl, #_jpad
      0026A3 73                    8211 	ld	(hl), e
                                   8212 ;geometry_boy.c:1003: if (debounce_input(J_UP, jpad, prev_jpad))
      0026A4 FAr08r00              8213 	ld	a, (#_prev_jpad)
      0026A7 F8 01                 8214 	ldhl	sp,	#1
      0026A9 77                    8215 	ld	(hl), a
                                   8216 ;geometry_boy.c:1000: prev_jpad = jpad;
      0026AA FAr09r00              8217 	ld	a, (#_jpad)
      0026AD F8 02                 8218 	ldhl	sp,	#2
                                   8219 ;geometry_boy.c:361: return (button == target) && !(prev_button == target);
      0026AF 32                    8220 	ld	(hl-), a
      0026B0 7E                    8221 	ld	a, (hl)
      0026B1 D6 04                 8222 	sub	a, #0x04
      0026B3 20 07                 8223 	jr	NZ, 00165$
      0026B5 F8 02                 8224 	ldhl	sp,	#2
      0026B7 7E                    8225 	ld	a, (hl)
      0026B8 D6 04                 8226 	sub	a, #0x04
      0026BA 20 04                 8227 	jr	NZ, 00166$
      0026BC                       8228 00165$:
      0026BC 0E 00                 8229 	ld	c, #0x00
      0026BE 18 02                 8230 	jr	00167$
      0026C0                       8231 00166$:
      0026C0 0E 01                 8232 	ld	c, #0x01
      0026C2                       8233 00167$:
                                   8234 ;geometry_boy.c:971: ((player_sprite_num / 4) * PLAYERS_GRID_SPACING) + PLAYERS_GRID_STARTY + YOFF);
      0026C2 FAr04r00              8235 	ld	a, (#_player_sprite_num)
      0026C5 F8 03                 8236 	ldhl	sp,	#3
      0026C7 22                    8237 	ld	(hl+), a
      0026C8 36 00                 8238 	ld	(hl), #0x00
                                   8239 ;geometry_boy.c:1005: move_sprite(PLAYER_SPRITES_OAM + player_sprite_num,
      0026CA 21r04r00              8240 	ld	hl, #_player_sprite_num
      0026CD 46                    8241 	ld	b, (hl)
                                   8242 ;geometry_boy.c:1007: ((player_sprite_num / 4) * PLAYERS_GRID_SPACING) + PLAYERS_GRID_STARTY + YOFF);
      0026CE F8 04                 8243 	ldhl	sp,	#4
      0026D0 2A                    8244 	ld	a, (hl+)
      0026D1 07                    8245 	rlca
      0026D2 E6 01                 8246 	and	a,#0x01
      0026D4 32                    8247 	ld	(hl-), a
      0026D5 2B                    8248 	dec	hl
      0026D6 2A                    8249 	ld	a, (hl+)
      0026D7 5F                    8250 	ld	e, a
      0026D8 56                    8251 	ld	d, (hl)
      0026D9 21 03 00              8252 	ld	hl, #0x0003
      0026DC 19                    8253 	add	hl, de
      0026DD E5                    8254 	push	hl
      0026DE 7D                    8255 	ld	a, l
      0026DF F8 08                 8256 	ldhl	sp,	#8
      0026E1 77                    8257 	ld	(hl), a
      0026E2 E1                    8258 	pop	hl
      0026E3 7C                    8259 	ld	a, h
      0026E4 F8 07                 8260 	ldhl	sp,	#7
      0026E6 77                    8261 	ld	(hl), a
                                   8262 ;geometry_boy.c:1006: ((player_sprite_num % 4) * PLAYERS_GRID_SPACING) + PLAYERS_GRID_STARTX + XOFF,
      0026E7 F8 03                 8263 	ldhl	sp,	#3
      0026E9 7E                    8264 	ld	a, (hl)
      0026EA E6 03                 8265 	and	a, #0x03
      0026EC 5F                    8266 	ld	e, a
      0026ED 16 00                 8267 	ld	d, #0x00
                                   8268 ;geometry_boy.c:1005: move_sprite(PLAYER_SPRITES_OAM + player_sprite_num,
      0026EF 78                    8269 	ld	a, b
      0026F0 C6 0B                 8270 	add	a, #0x0b
      0026F2 F8 08                 8271 	ldhl	sp,	#8
      0026F4 77                    8272 	ld	(hl), a
                                   8273 ;geometry_boy.c:1006: ((player_sprite_num % 4) * PLAYERS_GRID_SPACING) + PLAYERS_GRID_STARTX + XOFF,
      0026F5 7B                    8274 	ld	a, e
      0026F6 CB 37                 8275 	swap	a
      0026F8 07                    8276 	rlca
      0026F9 E6 E0                 8277 	and	a, #0xe0
      0026FB C6 24                 8278 	add	a, #0x24
      0026FD 5F                    8279 	ld	e, a
                                   8280 ;geometry_boy.c:1003: if (debounce_input(J_UP, jpad, prev_jpad))
      0026FE 79                    8281 	ld	a, c
      0026FF B7                    8282 	or	a, a
      002700 28 6B                 8283 	jr	Z, 00117$
                                   8284 ;geometry_boy.c:1007: ((player_sprite_num / 4) * PLAYERS_GRID_SPACING) + PLAYERS_GRID_STARTY + YOFF);
      002702 F8 03                 8285 	ldhl	sp,	#3
      002704 2A                    8286 	ld	a, (hl+)
      002705 4F                    8287 	ld	c, a
      002706 2A                    8288 	ld	a, (hl+)
      002707 47                    8289 	ld	b, a
      002708 7E                    8290 	ld	a, (hl)
      002709 B7                    8291 	or	a, a
      00270A 28 04                 8292 	jr	Z, 00168$
      00270C 23                    8293 	inc	hl
      00270D 2A                    8294 	ld	a, (hl+)
      00270E 4F                    8295 	ld	c, a
      00270F 46                    8296 	ld	b, (hl)
      002710                       8297 00168$:
      002710 CB 28                 8298 	sra	b
      002712 CB 19                 8299 	rr	c
      002714 CB 28                 8300 	sra	b
      002716 CB 19                 8301 	rr	c
      002718 79                    8302 	ld	a, c
      002719 CB 37                 8303 	swap	a
      00271B 07                    8304 	rlca
      00271C E6 E0                 8305 	and	a, #0xe0
      00271E C6 24                 8306 	add	a, #0x24
      002720 57                    8307 	ld	d, a
                                   8308 ;geometry_boy.c:1006: ((player_sprite_num % 4) * PLAYERS_GRID_SPACING) + PLAYERS_GRID_STARTX + XOFF,
                                   8309 ;geometry_boy.c:1005: move_sprite(PLAYER_SPRITES_OAM + player_sprite_num,
      002721 F8 08                 8310 	ldhl	sp,	#8
                                   8311 ;geometry_boy.c:1007: ((player_sprite_num / 4) * PLAYERS_GRID_SPACING) + PLAYERS_GRID_STARTY + YOFF);
                                   8312 ;../gbdk/include/gb/gb.h:1399: OAM_item_t * itm = &shadow_OAM[nb];
      002723 6E                    8313 	ld	l, (hl)
                                   8314 ;	spillPairReg hl
                                   8315 ;	spillPairReg hl
      002724 26 00                 8316 	ld	h, #0x00
                                   8317 ;	spillPairReg hl
                                   8318 ;	spillPairReg hl
      002726 29                    8319 	add	hl, hl
      002727 29                    8320 	add	hl, hl
      002728 01r00r00              8321 	ld	bc, #_shadow_OAM
      00272B 09                    8322 	add	hl, bc
                                   8323 ;../gbdk/include/gb/gb.h:1400: itm->y=y, itm->x=x;
      00272C 7A                    8324 	ld	a, d
      00272D 22                    8325 	ld	(hl+), a
      00272E 73                    8326 	ld	(hl), e
                                   8327 ;geometry_boy.c:1009: player_sprite_num += 12;
      00272F 21r04r00              8328 	ld	hl, #_player_sprite_num
      002732 7E                    8329 	ld	a, (hl)
      002733 C6 0C                 8330 	add	a, #0x0c
      002735 77                    8331 	ld	(hl), a
                                   8332 ;geometry_boy.c:1010: player_sprite_num %= 16;
      002736 7E                    8333 	ld	a, (hl)
      002737 E6 0F                 8334 	and	a, #0x0f
      002739 77                    8335 	ld	(hl), a
                                   8336 ;geometry_boy.c:971: ((player_sprite_num / 4) * PLAYERS_GRID_SPACING) + PLAYERS_GRID_STARTY + YOFF);
      00273A 4E                    8337 	ld	c, (hl)
      00273B 06 00                 8338 	ld	b, #0x00
                                   8339 ;geometry_boy.c:1014: ((player_sprite_num / 4) * PLAYERS_GRID_SPACING) + PLAYERS_GRID_STARTY + YOFF);
      00273D 69                    8340 	ld	l, c
                                   8341 ;	spillPairReg hl
                                   8342 ;	spillPairReg hl
      00273E 60                    8343 	ld	h, b
                                   8344 ;	spillPairReg hl
                                   8345 ;	spillPairReg hl
      00273F CB 78                 8346 	bit	7, b
      002741 28 05                 8347 	jr	Z, 00169$
      002743 69                    8348 	ld	l, c
                                   8349 ;	spillPairReg hl
                                   8350 ;	spillPairReg hl
      002744 60                    8351 	ld	h, b
                                   8352 ;	spillPairReg hl
                                   8353 ;	spillPairReg hl
      002745 23                    8354 	inc	hl
      002746 23                    8355 	inc	hl
      002747 23                    8356 	inc	hl
      002748                       8357 00169$:
      002748 CB 2C                 8358 	sra	h
      00274A CB 1D                 8359 	rr	l
      00274C CB 2C                 8360 	sra	h
      00274E CB 1D                 8361 	rr	l
      002750 7D                    8362 	ld	a, l
      002751 CB 37                 8363 	swap	a
      002753 07                    8364 	rlca
      002754 E6 E0                 8365 	and	a, #0xe0
      002756 C6 24                 8366 	add	a, #0x24
      002758 5F                    8367 	ld	e, a
                                   8368 ;geometry_boy.c:1013: ((player_sprite_num % 4) * PLAYERS_GRID_SPACING) + PLAYERS_GRID_STARTX + XOFF - 16,
      002759 79                    8369 	ld	a, c
      00275A E6 03                 8370 	and	a, #0x03
      00275C CB 37                 8371 	swap	a
      00275E 07                    8372 	rlca
      00275F E6 E0                 8373 	and	a, #0xe0
      002761 C6 14                 8374 	add	a, #0x14
      002763 4F                    8375 	ld	c, a
                                   8376 ;../gbdk/include/gb/gb.h:1399: OAM_item_t * itm = &shadow_OAM[nb];
      002764 21r28r00              8377 	ld	hl, #(_shadow_OAM + 40)
                                   8378 ;../gbdk/include/gb/gb.h:1400: itm->y=y, itm->x=x;
      002767 7B                    8379 	ld	a, e
      002768 22                    8380 	ld	(hl+), a
      002769 71                    8381 	ld	(hl), c
                                   8382 ;geometry_boy.c:1014: ((player_sprite_num / 4) * PLAYERS_GRID_SPACING) + PLAYERS_GRID_STARTY + YOFF);
      00276A C3r2Ar29              8383 	jp	00118$
      00276D                       8384 00117$:
                                   8385 ;geometry_boy.c:361: return (button == target) && !(prev_button == target);
      00276D F8 01                 8386 	ldhl	sp,	#1
      00276F 7E                    8387 	ld	a, (hl)
      002770 D6 08                 8388 	sub	a, #0x08
      002772 20 07                 8389 	jr	NZ, 00170$
      002774 F8 02                 8390 	ldhl	sp,	#2
      002776 7E                    8391 	ld	a, (hl)
      002777 D6 08                 8392 	sub	a, #0x08
      002779 20 03                 8393 	jr	NZ, 00171$
      00277B                       8394 00170$:
      00277B AF                    8395 	xor	a, a
      00277C 18 02                 8396 	jr	00172$
      00277E                       8397 00171$:
      00277E 3E 01                 8398 	ld	a, #0x01
      002780                       8399 00172$:
                                   8400 ;geometry_boy.c:1017: else if (debounce_input(J_DOWN, jpad, prev_jpad))
      002780 B7                    8401 	or	a, a
      002781 28 71                 8402 	jr	Z, 00114$
                                   8403 ;geometry_boy.c:1021: ((player_sprite_num / 4) * PLAYERS_GRID_SPACING) + PLAYERS_GRID_STARTY + YOFF);
      002783 F8 03                 8404 	ldhl	sp,	#3
      002785 2A                    8405 	ld	a, (hl+)
      002786 4F                    8406 	ld	c, a
      002787 2A                    8407 	ld	a, (hl+)
      002788 47                    8408 	ld	b, a
      002789 7E                    8409 	ld	a, (hl)
      00278A B7                    8410 	or	a, a
      00278B 28 04                 8411 	jr	Z, 00173$
      00278D 23                    8412 	inc	hl
      00278E 2A                    8413 	ld	a, (hl+)
      00278F 4F                    8414 	ld	c, a
      002790 46                    8415 	ld	b, (hl)
      002791                       8416 00173$:
      002791 CB 28                 8417 	sra	b
      002793 CB 19                 8418 	rr	c
      002795 CB 28                 8419 	sra	b
      002797 CB 19                 8420 	rr	c
      002799 79                    8421 	ld	a, c
      00279A CB 37                 8422 	swap	a
      00279C 07                    8423 	rlca
      00279D E6 E0                 8424 	and	a, #0xe0
      00279F C6 24                 8425 	add	a, #0x24
      0027A1 F8 07                 8426 	ldhl	sp,	#7
                                   8427 ;geometry_boy.c:1020: ((player_sprite_num % 4) * PLAYERS_GRID_SPACING) + PLAYERS_GRID_STARTX + XOFF,
                                   8428 ;geometry_boy.c:1019: move_sprite(PLAYER_SPRITES_OAM + player_sprite_num,
      0027A3 22                    8429 	ld	(hl+), a
                                   8430 ;geometry_boy.c:1021: ((player_sprite_num / 4) * PLAYERS_GRID_SPACING) + PLAYERS_GRID_STARTY + YOFF);
                                   8431 ;../gbdk/include/gb/gb.h:1399: OAM_item_t * itm = &shadow_OAM[nb];
      0027A4 6E                    8432 	ld	l, (hl)
                                   8433 ;	spillPairReg hl
                                   8434 ;	spillPairReg hl
      0027A5 26 00                 8435 	ld	h, #0x00
                                   8436 ;	spillPairReg hl
                                   8437 ;	spillPairReg hl
      0027A7 29                    8438 	add	hl, hl
      0027A8 29                    8439 	add	hl, hl
      0027A9 01r00r00              8440 	ld	bc, #_shadow_OAM
      0027AC 09                    8441 	add	hl, bc
      0027AD 4D                    8442 	ld	c, l
      0027AE 44                    8443 	ld	b, h
                                   8444 ;../gbdk/include/gb/gb.h:1400: itm->y=y, itm->x=x;
      0027AF F8 07                 8445 	ldhl	sp,	#7
      0027B1 7E                    8446 	ld	a, (hl)
      0027B2 02                    8447 	ld	(bc), a
      0027B3 03                    8448 	inc	bc
      0027B4 7B                    8449 	ld	a, e
      0027B5 02                    8450 	ld	(bc), a
                                   8451 ;geometry_boy.c:1023: player_sprite_num += 4;
      0027B6 21r04r00              8452 	ld	hl, #_player_sprite_num
      0027B9 7E                    8453 	ld	a, (hl)
      0027BA C6 04                 8454 	add	a, #0x04
      0027BC 77                    8455 	ld	(hl), a
                                   8456 ;geometry_boy.c:1024: player_sprite_num %= 16;
      0027BD 7E                    8457 	ld	a, (hl)
      0027BE E6 0F                 8458 	and	a, #0x0f
      0027C0 77                    8459 	ld	(hl), a
                                   8460 ;geometry_boy.c:971: ((player_sprite_num / 4) * PLAYERS_GRID_SPACING) + PLAYERS_GRID_STARTY + YOFF);
      0027C1 4E                    8461 	ld	c, (hl)
      0027C2 06 00                 8462 	ld	b, #0x00
                                   8463 ;geometry_boy.c:1028: ((player_sprite_num / 4) * PLAYERS_GRID_SPACING) + PLAYERS_GRID_STARTY + YOFF);
      0027C4 69                    8464 	ld	l, c
                                   8465 ;	spillPairReg hl
                                   8466 ;	spillPairReg hl
      0027C5 60                    8467 	ld	h, b
                                   8468 ;	spillPairReg hl
                                   8469 ;	spillPairReg hl
      0027C6 CB 78                 8470 	bit	7, b
      0027C8 28 05                 8471 	jr	Z, 00174$
      0027CA 69                    8472 	ld	l, c
                                   8473 ;	spillPairReg hl
                                   8474 ;	spillPairReg hl
      0027CB 60                    8475 	ld	h, b
                                   8476 ;	spillPairReg hl
                                   8477 ;	spillPairReg hl
      0027CC 23                    8478 	inc	hl
      0027CD 23                    8479 	inc	hl
      0027CE 23                    8480 	inc	hl
      0027CF                       8481 00174$:
      0027CF CB 2C                 8482 	sra	h
      0027D1 CB 1D                 8483 	rr	l
      0027D3 CB 2C                 8484 	sra	h
      0027D5 CB 1D                 8485 	rr	l
      0027D7 7D                    8486 	ld	a, l
      0027D8 CB 37                 8487 	swap	a
      0027DA 07                    8488 	rlca
      0027DB E6 E0                 8489 	and	a, #0xe0
      0027DD C6 24                 8490 	add	a, #0x24
      0027DF 5F                    8491 	ld	e, a
                                   8492 ;geometry_boy.c:1027: ((player_sprite_num % 4) * PLAYERS_GRID_SPACING) + PLAYERS_GRID_STARTX + XOFF - 16,
      0027E0 79                    8493 	ld	a, c
      0027E1 E6 03                 8494 	and	a, #0x03
      0027E3 CB 37                 8495 	swap	a
      0027E5 07                    8496 	rlca
      0027E6 E6 E0                 8497 	and	a, #0xe0
      0027E8 C6 14                 8498 	add	a, #0x14
      0027EA 4F                    8499 	ld	c, a
                                   8500 ;../gbdk/include/gb/gb.h:1399: OAM_item_t * itm = &shadow_OAM[nb];
      0027EB 21r28r00              8501 	ld	hl, #(_shadow_OAM + 40)
                                   8502 ;../gbdk/include/gb/gb.h:1400: itm->y=y, itm->x=x;
      0027EE 7B                    8503 	ld	a, e
      0027EF 22                    8504 	ld	(hl+), a
      0027F0 71                    8505 	ld	(hl), c
                                   8506 ;geometry_boy.c:1028: ((player_sprite_num / 4) * PLAYERS_GRID_SPACING) + PLAYERS_GRID_STARTY + YOFF);
      0027F1 C3r2Ar29              8507 	jp	00118$
      0027F4                       8508 00114$:
                                   8509 ;geometry_boy.c:361: return (button == target) && !(prev_button == target);
      0027F4 F8 01                 8510 	ldhl	sp,	#1
      0027F6 7E                    8511 	ld	a, (hl)
      0027F7 D6 02                 8512 	sub	a, #0x02
      0027F9 20 07                 8513 	jr	NZ, 00175$
      0027FB F8 02                 8514 	ldhl	sp,	#2
      0027FD 7E                    8515 	ld	a, (hl)
      0027FE D6 02                 8516 	sub	a, #0x02
      002800 20 03                 8517 	jr	NZ, 00176$
      002802                       8518 00175$:
      002802 AF                    8519 	xor	a, a
      002803 18 02                 8520 	jr	00177$
      002805                       8521 00176$:
      002805 3E 01                 8522 	ld	a, #0x01
      002807                       8523 00177$:
                                   8524 ;geometry_boy.c:1031: else if (debounce_input(J_LEFT, jpad, prev_jpad))
      002807 B7                    8525 	or	a, a
      002808 28 6B                 8526 	jr	Z, 00111$
                                   8527 ;geometry_boy.c:1035: ((player_sprite_num / 4) * PLAYERS_GRID_SPACING) + PLAYERS_GRID_STARTY + YOFF);
      00280A F8 03                 8528 	ldhl	sp,	#3
      00280C 2A                    8529 	ld	a, (hl+)
      00280D 4F                    8530 	ld	c, a
      00280E 2A                    8531 	ld	a, (hl+)
      00280F 47                    8532 	ld	b, a
      002810 7E                    8533 	ld	a, (hl)
      002811 B7                    8534 	or	a, a
      002812 28 04                 8535 	jr	Z, 00178$
      002814 23                    8536 	inc	hl
      002815 2A                    8537 	ld	a, (hl+)
      002816 4F                    8538 	ld	c, a
      002817 46                    8539 	ld	b, (hl)
      002818                       8540 00178$:
      002818 CB 28                 8541 	sra	b
      00281A CB 19                 8542 	rr	c
      00281C CB 28                 8543 	sra	b
      00281E CB 19                 8544 	rr	c
      002820 79                    8545 	ld	a, c
      002821 CB 37                 8546 	swap	a
      002823 07                    8547 	rlca
      002824 E6 E0                 8548 	and	a, #0xe0
      002826 C6 24                 8549 	add	a, #0x24
      002828 57                    8550 	ld	d, a
                                   8551 ;geometry_boy.c:1034: ((player_sprite_num % 4) * PLAYERS_GRID_SPACING) + PLAYERS_GRID_STARTX + XOFF,
                                   8552 ;geometry_boy.c:1033: move_sprite(PLAYER_SPRITES_OAM + player_sprite_num,
      002829 F8 08                 8553 	ldhl	sp,	#8
                                   8554 ;geometry_boy.c:1035: ((player_sprite_num / 4) * PLAYERS_GRID_SPACING) + PLAYERS_GRID_STARTY + YOFF);
                                   8555 ;../gbdk/include/gb/gb.h:1399: OAM_item_t * itm = &shadow_OAM[nb];
      00282B 6E                    8556 	ld	l, (hl)
                                   8557 ;	spillPairReg hl
                                   8558 ;	spillPairReg hl
      00282C 26 00                 8559 	ld	h, #0x00
                                   8560 ;	spillPairReg hl
                                   8561 ;	spillPairReg hl
      00282E 29                    8562 	add	hl, hl
      00282F 29                    8563 	add	hl, hl
      002830 01r00r00              8564 	ld	bc, #_shadow_OAM
      002833 09                    8565 	add	hl, bc
                                   8566 ;../gbdk/include/gb/gb.h:1400: itm->y=y, itm->x=x;
      002834 7A                    8567 	ld	a, d
      002835 22                    8568 	ld	(hl+), a
      002836 73                    8569 	ld	(hl), e
                                   8570 ;geometry_boy.c:1037: player_sprite_num += 15;
      002837 21r04r00              8571 	ld	hl, #_player_sprite_num
      00283A 7E                    8572 	ld	a, (hl)
      00283B C6 0F                 8573 	add	a, #0x0f
      00283D 77                    8574 	ld	(hl), a
                                   8575 ;geometry_boy.c:1038: player_sprite_num %= 16;
      00283E 7E                    8576 	ld	a, (hl)
      00283F E6 0F                 8577 	and	a, #0x0f
      002841 77                    8578 	ld	(hl), a
                                   8579 ;geometry_boy.c:971: ((player_sprite_num / 4) * PLAYERS_GRID_SPACING) + PLAYERS_GRID_STARTY + YOFF);
      002842 4E                    8580 	ld	c, (hl)
      002843 06 00                 8581 	ld	b, #0x00
                                   8582 ;geometry_boy.c:1042: ((player_sprite_num / 4) * PLAYERS_GRID_SPACING) + PLAYERS_GRID_STARTY + YOFF);
      002845 69                    8583 	ld	l, c
                                   8584 ;	spillPairReg hl
                                   8585 ;	spillPairReg hl
      002846 60                    8586 	ld	h, b
                                   8587 ;	spillPairReg hl
                                   8588 ;	spillPairReg hl
      002847 CB 78                 8589 	bit	7, b
      002849 28 05                 8590 	jr	Z, 00179$
      00284B 69                    8591 	ld	l, c
                                   8592 ;	spillPairReg hl
                                   8593 ;	spillPairReg hl
      00284C 60                    8594 	ld	h, b
                                   8595 ;	spillPairReg hl
                                   8596 ;	spillPairReg hl
      00284D 23                    8597 	inc	hl
      00284E 23                    8598 	inc	hl
      00284F 23                    8599 	inc	hl
      002850                       8600 00179$:
      002850 CB 2C                 8601 	sra	h
      002852 CB 1D                 8602 	rr	l
      002854 CB 2C                 8603 	sra	h
      002856 CB 1D                 8604 	rr	l
      002858 7D                    8605 	ld	a, l
      002859 CB 37                 8606 	swap	a
      00285B 07                    8607 	rlca
      00285C E6 E0                 8608 	and	a, #0xe0
      00285E C6 24                 8609 	add	a, #0x24
      002860 5F                    8610 	ld	e, a
                                   8611 ;geometry_boy.c:1041: ((player_sprite_num % 4) * PLAYERS_GRID_SPACING) + PLAYERS_GRID_STARTX + XOFF - 16,
      002861 79                    8612 	ld	a, c
      002862 E6 03                 8613 	and	a, #0x03
      002864 CB 37                 8614 	swap	a
      002866 07                    8615 	rlca
      002867 E6 E0                 8616 	and	a, #0xe0
      002869 C6 14                 8617 	add	a, #0x14
      00286B 4F                    8618 	ld	c, a
                                   8619 ;../gbdk/include/gb/gb.h:1399: OAM_item_t * itm = &shadow_OAM[nb];
      00286C 21r28r00              8620 	ld	hl, #(_shadow_OAM + 40)
                                   8621 ;../gbdk/include/gb/gb.h:1400: itm->y=y, itm->x=x;
      00286F 7B                    8622 	ld	a, e
      002870 22                    8623 	ld	(hl+), a
      002871 71                    8624 	ld	(hl), c
                                   8625 ;geometry_boy.c:1042: ((player_sprite_num / 4) * PLAYERS_GRID_SPACING) + PLAYERS_GRID_STARTY + YOFF);
      002872 C3r2Ar29              8626 	jp	00118$
      002875                       8627 00111$:
                                   8628 ;geometry_boy.c:361: return (button == target) && !(prev_button == target);
      002875 F8 01                 8629 	ldhl	sp,	#1
      002877 7E                    8630 	ld	a, (hl)
      002878 3D                    8631 	dec	a
      002879 20 06                 8632 	jr	NZ, 00180$
      00287B F8 02                 8633 	ldhl	sp,	#2
      00287D 7E                    8634 	ld	a, (hl)
      00287E 3D                    8635 	dec	a
      00287F 20 03                 8636 	jr	NZ, 00181$
      002881                       8637 00180$:
      002881 AF                    8638 	xor	a, a
      002882 18 02                 8639 	jr	00182$
      002884                       8640 00181$:
      002884 3E 01                 8641 	ld	a, #0x01
      002886                       8642 00182$:
                                   8643 ;geometry_boy.c:1045: else if (debounce_input(J_RIGHT, jpad, prev_jpad))
      002886 B7                    8644 	or	a, a
      002887 28 6B                 8645 	jr	Z, 00108$
                                   8646 ;geometry_boy.c:1049: ((player_sprite_num / 4) * PLAYERS_GRID_SPACING) + PLAYERS_GRID_STARTY + YOFF);
      002889 F8 03                 8647 	ldhl	sp,	#3
      00288B 2A                    8648 	ld	a, (hl+)
      00288C 4F                    8649 	ld	c, a
      00288D 2A                    8650 	ld	a, (hl+)
      00288E 47                    8651 	ld	b, a
      00288F 7E                    8652 	ld	a, (hl)
      002890 B7                    8653 	or	a, a
      002891 28 04                 8654 	jr	Z, 00183$
      002893 23                    8655 	inc	hl
      002894 2A                    8656 	ld	a, (hl+)
      002895 4F                    8657 	ld	c, a
      002896 46                    8658 	ld	b, (hl)
      002897                       8659 00183$:
      002897 CB 28                 8660 	sra	b
      002899 CB 19                 8661 	rr	c
      00289B CB 28                 8662 	sra	b
      00289D CB 19                 8663 	rr	c
      00289F 79                    8664 	ld	a, c
      0028A0 CB 37                 8665 	swap	a
      0028A2 07                    8666 	rlca
      0028A3 E6 E0                 8667 	and	a, #0xe0
      0028A5 C6 24                 8668 	add	a, #0x24
      0028A7 4F                    8669 	ld	c, a
                                   8670 ;geometry_boy.c:1048: ((player_sprite_num % 4) * PLAYERS_GRID_SPACING) + PLAYERS_GRID_STARTX + XOFF,
                                   8671 ;geometry_boy.c:1047: move_sprite(PLAYER_SPRITES_OAM + player_sprite_num,
      0028A8 F8 08                 8672 	ldhl	sp,	#8
      0028AA 46                    8673 	ld	b, (hl)
                                   8674 ;geometry_boy.c:1049: ((player_sprite_num / 4) * PLAYERS_GRID_SPACING) + PLAYERS_GRID_STARTY + YOFF);
                                   8675 ;../gbdk/include/gb/gb.h:1399: OAM_item_t * itm = &shadow_OAM[nb];
      0028AB 26 00                 8676 	ld	h, #0x00
                                   8677 ;	spillPairReg hl
                                   8678 ;	spillPairReg hl
      0028AD 68                    8679 	ld	l, b
      0028AE 29                    8680 	add	hl, hl
      0028AF 29                    8681 	add	hl, hl
      0028B0 D5                    8682 	push	de
      0028B1 11r00r00              8683 	ld	de, #_shadow_OAM
      0028B4 19                    8684 	add	hl, de
      0028B5 D1                    8685 	pop	de
                                   8686 ;../gbdk/include/gb/gb.h:1400: itm->y=y, itm->x=x;
      0028B6 79                    8687 	ld	a, c
      0028B7 22                    8688 	ld	(hl+), a
      0028B8 73                    8689 	ld	(hl), e
                                   8690 ;geometry_boy.c:1051: player_sprite_num += 1;
      0028B9 21r04r00              8691 	ld	hl, #_player_sprite_num
      0028BC 34                    8692 	inc	(hl)
      0028BD 7E                    8693 	ld	a, (hl)
                                   8694 ;geometry_boy.c:1052: player_sprite_num %= 16;
      0028BE 7E                    8695 	ld	a, (hl)
      0028BF E6 0F                 8696 	and	a, #0x0f
      0028C1 77                    8697 	ld	(hl), a
                                   8698 ;geometry_boy.c:971: ((player_sprite_num / 4) * PLAYERS_GRID_SPACING) + PLAYERS_GRID_STARTY + YOFF);
      0028C2 4E                    8699 	ld	c, (hl)
      0028C3 06 00                 8700 	ld	b, #0x00
                                   8701 ;geometry_boy.c:1056: ((player_sprite_num / 4) * PLAYERS_GRID_SPACING) + PLAYERS_GRID_STARTY + YOFF);
      0028C5 69                    8702 	ld	l, c
                                   8703 ;	spillPairReg hl
                                   8704 ;	spillPairReg hl
      0028C6 60                    8705 	ld	h, b
                                   8706 ;	spillPairReg hl
                                   8707 ;	spillPairReg hl
      0028C7 CB 78                 8708 	bit	7, b
      0028C9 28 05                 8709 	jr	Z, 00184$
      0028CB 69                    8710 	ld	l, c
                                   8711 ;	spillPairReg hl
                                   8712 ;	spillPairReg hl
      0028CC 60                    8713 	ld	h, b
                                   8714 ;	spillPairReg hl
                                   8715 ;	spillPairReg hl
      0028CD 23                    8716 	inc	hl
      0028CE 23                    8717 	inc	hl
      0028CF 23                    8718 	inc	hl
      0028D0                       8719 00184$:
      0028D0 CB 2C                 8720 	sra	h
      0028D2 CB 1D                 8721 	rr	l
      0028D4 CB 2C                 8722 	sra	h
      0028D6 CB 1D                 8723 	rr	l
      0028D8 7D                    8724 	ld	a, l
      0028D9 CB 37                 8725 	swap	a
      0028DB 07                    8726 	rlca
      0028DC E6 E0                 8727 	and	a, #0xe0
      0028DE C6 24                 8728 	add	a, #0x24
      0028E0 5F                    8729 	ld	e, a
                                   8730 ;geometry_boy.c:1055: ((player_sprite_num % 4) * PLAYERS_GRID_SPACING) + PLAYERS_GRID_STARTX + XOFF - 16,
      0028E1 79                    8731 	ld	a, c
      0028E2 E6 03                 8732 	and	a, #0x03
      0028E4 CB 37                 8733 	swap	a
      0028E6 07                    8734 	rlca
      0028E7 E6 E0                 8735 	and	a, #0xe0
      0028E9 C6 14                 8736 	add	a, #0x14
      0028EB 4F                    8737 	ld	c, a
                                   8738 ;../gbdk/include/gb/gb.h:1399: OAM_item_t * itm = &shadow_OAM[nb];
      0028EC 21r28r00              8739 	ld	hl, #(_shadow_OAM + 40)
                                   8740 ;../gbdk/include/gb/gb.h:1400: itm->y=y, itm->x=x;
      0028EF 7B                    8741 	ld	a, e
      0028F0 22                    8742 	ld	(hl+), a
      0028F1 71                    8743 	ld	(hl), c
                                   8744 ;geometry_boy.c:1056: ((player_sprite_num / 4) * PLAYERS_GRID_SPACING) + PLAYERS_GRID_STARTY + YOFF);
      0028F2 18 36                 8745 	jr	00118$
      0028F4                       8746 00108$:
                                   8747 ;geometry_boy.c:361: return (button == target) && !(prev_button == target);
      0028F4 F8 01                 8748 	ldhl	sp,	#1
      0028F6 7E                    8749 	ld	a, (hl)
      0028F7 D6 40                 8750 	sub	a, #0x40
      0028F9 20 07                 8751 	jr	NZ, 00185$
      0028FB F8 02                 8752 	ldhl	sp,	#2
      0028FD 7E                    8753 	ld	a, (hl)
      0028FE D6 40                 8754 	sub	a, #0x40
      002900 20 03                 8755 	jr	NZ, 00186$
      002902                       8756 00185$:
      002902 AF                    8757 	xor	a, a
      002903 18 02                 8758 	jr	00187$
      002905                       8759 00186$:
      002905 3E 01                 8760 	ld	a, #0x01
      002907                       8761 00187$:
                                   8762 ;geometry_boy.c:1059: else if (debounce_input(J_SELECT, jpad, prev_jpad)) // || debounce_input(J_START, jpad, prev_jpad))
      002907 B7                    8763 	or	a, a
      002908 28 20                 8764 	jr	Z, 00118$
                                   8765 ;geometry_boy.c:1062: for (uint8_t i = 0; i < 40; i++)
      00290A F8 08                 8766 	ldhl	sp,	#8
      00290C 36 00                 8767 	ld	(hl), #0x00
      00290E                       8768 00159$:
      00290E F8 08                 8769 	ldhl	sp,	#8
      002910 7E                    8770 	ld	a, (hl)
      002911 D6 28                 8771 	sub	a, #0x28
      002913 30 10                 8772 	jr	NC, 00104$
                                   8773 ;../gbdk/include/gb/gb.h:1425: shadow_OAM[nb].y = 0;
      002915 01r00r00              8774 	ld	bc, #_shadow_OAM+0
      002918 6E                    8775 	ld	l, (hl)
      002919 26 00                 8776 	ld	h, #0x00
      00291B 29                    8777 	add	hl, hl
      00291C 29                    8778 	add	hl, hl
      00291D 09                    8779 	add	hl, bc
      00291E 36 00                 8780 	ld	(hl), #0x00
                                   8781 ;geometry_boy.c:1062: for (uint8_t i = 0; i < 40; i++)
      002920 F8 08                 8782 	ldhl	sp,	#8
      002922 34                    8783 	inc	(hl)
      002923 18 E9                 8784 	jr	00159$
      002925                       8785 00104$:
                                   8786 ;geometry_boy.c:1066: return TITLE;
      002925 1E 00                 8787 	ld	e, #0x00
      002927 C3rE6r29              8788 	jp	00161$
      00292A                       8789 00118$:
                                   8790 ;geometry_boy.c:1069: if (tick % 4 == 0)
      00292A FAr0Ar00              8791 	ld	a, (#_tick)
      00292D E6 03                 8792 	and	a, #0x03
      00292F C2rD7r29              8793 	jp	NZ,00123$
                                   8794 ;geometry_boy.c:971: ((player_sprite_num / 4) * PLAYERS_GRID_SPACING) + PLAYERS_GRID_STARTY + YOFF);
      002932 FAr04r00              8795 	ld	a, (#_player_sprite_num)
      002935 F8 04                 8796 	ldhl	sp,	#4
      002937 22                    8797 	ld	(hl+), a
      002938 36 00                 8798 	ld	(hl), #0x00
                                   8799 ;geometry_boy.c:1005: move_sprite(PLAYER_SPRITES_OAM + player_sprite_num,
      00293A 21r04r00              8800 	ld	hl, #_player_sprite_num
      00293D 46                    8801 	ld	b, (hl)
                                   8802 ;geometry_boy.c:1007: ((player_sprite_num / 4) * PLAYERS_GRID_SPACING) + PLAYERS_GRID_STARTY + YOFF);
      00293E F8 05                 8803 	ldhl	sp,	#5
      002940 2A                    8804 	ld	a, (hl+)
      002941 07                    8805 	rlca
      002942 E6 01                 8806 	and	a,#0x01
      002944 32                    8807 	ld	(hl-), a
      002945 2B                    8808 	dec	hl
      002946 2A                    8809 	ld	a, (hl+)
      002947 5F                    8810 	ld	e, a
                                   8811 ;geometry_boy.c:1006: ((player_sprite_num % 4) * PLAYERS_GRID_SPACING) + PLAYERS_GRID_STARTX + XOFF,
      002948 3A                    8812 	ld	a, (hl-)
      002949 57                    8813 	ld	d, a
      00294A 13                    8814 	inc	de
      00294B 13                    8815 	inc	de
      00294C 13                    8816 	inc	de
      00294D 7E                    8817 	ld	a, (hl)
      00294E E6 03                 8818 	and	a, #0x03
      002950 4F                    8819 	ld	c, a
      002951 2E 00                 8820 	ld	l, #0x00
                                   8821 ;	spillPairReg hl
                                   8822 ;	spillPairReg hl
                                   8823 ;geometry_boy.c:1005: move_sprite(PLAYER_SPRITES_OAM + player_sprite_num,
      002953 78                    8824 	ld	a, b
      002954 C6 0B                 8825 	add	a, #0x0b
      002956 E5                    8826 	push	hl
      002957 F8 09                 8827 	ldhl	sp,	#9
      002959 77                    8828 	ld	(hl), a
      00295A E1                    8829 	pop	hl
                                   8830 ;geometry_boy.c:1006: ((player_sprite_num % 4) * PLAYERS_GRID_SPACING) + PLAYERS_GRID_STARTX + XOFF,
      00295B 79                    8831 	ld	a, c
      00295C CB 37                 8832 	swap	a
      00295E 07                    8833 	rlca
      00295F E6 E0                 8834 	and	a, #0xe0
      002961 C6 24                 8835 	add	a, #0x24
      002963 F8 08                 8836 	ldhl	sp,	#8
      002965 77                    8837 	ld	(hl), a
                                   8838 ;geometry_boy.c:1071: if (is_up)
      002966 F8 00                 8839 	ldhl	sp,	#0
      002968 7E                    8840 	ld	a, (hl)
      002969 B7                    8841 	or	a, a
      00296A 28 3A                 8842 	jr	Z, 00120$
                                   8843 ;geometry_boy.c:1075: ((player_sprite_num / 4) * PLAYERS_GRID_SPACING) + PLAYERS_GRID_STARTY + YOFF - 2);
      00296C F8 04                 8844 	ldhl	sp,	#4
      00296E 2A                    8845 	ld	a, (hl+)
      00296F 4F                    8846 	ld	c, a
      002970 2A                    8847 	ld	a, (hl+)
      002971 47                    8848 	ld	b, a
      002972 7E                    8849 	ld	a, (hl)
      002973 B7                    8850 	or	a, a
      002974 28 02                 8851 	jr	Z, 00188$
      002976 4B                    8852 	ld	c, e
      002977 42                    8853 	ld	b, d
      002978                       8854 00188$:
      002978 CB 28                 8855 	sra	b
      00297A CB 19                 8856 	rr	c
      00297C CB 28                 8857 	sra	b
      00297E CB 19                 8858 	rr	c
      002980 79                    8859 	ld	a, c
      002981 CB 37                 8860 	swap	a
      002983 07                    8861 	rlca
      002984 E6 E0                 8862 	and	a, #0xe0
      002986 C6 22                 8863 	add	a, #0x22
      002988 F8 06                 8864 	ldhl	sp,	#6
                                   8865 ;geometry_boy.c:1074: ((player_sprite_num % 4) * PLAYERS_GRID_SPACING) + PLAYERS_GRID_STARTX + XOFF,
      00298A 22                    8866 	ld	(hl+), a
      00298B 23                    8867 	inc	hl
                                   8868 ;geometry_boy.c:1073: move_sprite(PLAYER_SPRITES_OAM + player_sprite_num,
      00298C 3A                    8869 	ld	a, (hl-)
      00298D 4F                    8870 	ld	c, a
                                   8871 ;geometry_boy.c:1075: ((player_sprite_num / 4) * PLAYERS_GRID_SPACING) + PLAYERS_GRID_STARTY + YOFF - 2);
                                   8872 ;../gbdk/include/gb/gb.h:1399: OAM_item_t * itm = &shadow_OAM[nb];
      00298E 6E                    8873 	ld	l, (hl)
                                   8874 ;	spillPairReg hl
                                   8875 ;	spillPairReg hl
      00298F 26 00                 8876 	ld	h, #0x00
                                   8877 ;	spillPairReg hl
                                   8878 ;	spillPairReg hl
      002991 29                    8879 	add	hl, hl
      002992 29                    8880 	add	hl, hl
      002993 11r00r00              8881 	ld	de, #_shadow_OAM
      002996 19                    8882 	add	hl, de
      002997 5D                    8883 	ld	e, l
      002998 54                    8884 	ld	d, h
                                   8885 ;../gbdk/include/gb/gb.h:1400: itm->y=y, itm->x=x;
      002999 F8 06                 8886 	ldhl	sp,	#6
      00299B 7E                    8887 	ld	a, (hl)
      00299C 12                    8888 	ld	(de), a
      00299D 13                    8889 	inc	de
      00299E 79                    8890 	ld	a, c
      00299F 12                    8891 	ld	(de), a
                                   8892 ;geometry_boy.c:1076: is_up = 0;
      0029A0 F8 00                 8893 	ldhl	sp,	#0
      0029A2 36 00                 8894 	ld	(hl), #0x00
      0029A4 18 31                 8895 	jr	00123$
      0029A6                       8896 00120$:
                                   8897 ;geometry_boy.c:1082: ((player_sprite_num / 4) * PLAYERS_GRID_SPACING) + PLAYERS_GRID_STARTY + YOFF);
      0029A6 F8 04                 8898 	ldhl	sp,	#4
      0029A8 2A                    8899 	ld	a, (hl+)
      0029A9 4F                    8900 	ld	c, a
      0029AA 2A                    8901 	ld	a, (hl+)
      0029AB 47                    8902 	ld	b, a
      0029AC 7E                    8903 	ld	a, (hl)
      0029AD B7                    8904 	or	a, a
      0029AE 28 02                 8905 	jr	Z, 00189$
      0029B0 4B                    8906 	ld	c, e
      0029B1 42                    8907 	ld	b, d
      0029B2                       8908 00189$:
      0029B2 CB 28                 8909 	sra	b
      0029B4 CB 19                 8910 	rr	c
      0029B6 CB 28                 8911 	sra	b
      0029B8 CB 19                 8912 	rr	c
      0029BA 79                    8913 	ld	a, c
      0029BB CB 37                 8914 	swap	a
      0029BD 07                    8915 	rlca
      0029BE E6 E0                 8916 	and	a, #0xe0
      0029C0 C6 24                 8917 	add	a, #0x24
      0029C2 47                    8918 	ld	b, a
                                   8919 ;geometry_boy.c:1081: ((player_sprite_num % 4) * PLAYERS_GRID_SPACING) + PLAYERS_GRID_STARTX + XOFF,
      0029C3 F8 08                 8920 	ldhl	sp,	#8
                                   8921 ;geometry_boy.c:1080: move_sprite(PLAYER_SPRITES_OAM + player_sprite_num,
      0029C5 3A                    8922 	ld	a, (hl-)
      0029C6 4F                    8923 	ld	c, a
                                   8924 ;geometry_boy.c:1082: ((player_sprite_num / 4) * PLAYERS_GRID_SPACING) + PLAYERS_GRID_STARTY + YOFF);
                                   8925 ;../gbdk/include/gb/gb.h:1399: OAM_item_t * itm = &shadow_OAM[nb];
      0029C7 6E                    8926 	ld	l, (hl)
                                   8927 ;	spillPairReg hl
                                   8928 ;	spillPairReg hl
      0029C8 26 00                 8929 	ld	h, #0x00
                                   8930 ;	spillPairReg hl
                                   8931 ;	spillPairReg hl
      0029CA 29                    8932 	add	hl, hl
      0029CB 29                    8933 	add	hl, hl
      0029CC 11r00r00              8934 	ld	de, #_shadow_OAM
      0029CF 19                    8935 	add	hl, de
                                   8936 ;../gbdk/include/gb/gb.h:1400: itm->y=y, itm->x=x;
      0029D0 78                    8937 	ld	a, b
      0029D1 22                    8938 	ld	(hl+), a
      0029D2 71                    8939 	ld	(hl), c
                                   8940 ;geometry_boy.c:1083: is_up = 1;
      0029D3 F8 00                 8941 	ldhl	sp,	#0
      0029D5 36 01                 8942 	ld	(hl), #0x01
      0029D7                       8943 00123$:
                                   8944 ;geometry_boy.c:1086: tick++;
      0029D7 21r0Ar00              8945 	ld	hl, #_tick
      0029DA 34                    8946 	inc	(hl)
                                   8947 ;geometry_boy.c:1088: delay(LOOP_DELAY);
      0029DB 11 14 00              8948 	ld	de, #0x0014
      0029DE D5                    8949 	push	de
      0029DF CDr00r00              8950 	call	_delay
      0029E2 E1                    8951 	pop	hl
      0029E3 C3r89r26              8952 	jp	00125$
      0029E6                       8953 00161$:
                                   8954 ;geometry_boy.c:1090: }
      0029E6 E8 09                 8955 	add	sp, #9
      0029E8 C9                    8956 	ret
                                   8957 ;geometry_boy.c:1110: screen_t level_select()
                                   8958 ;	---------------------------------
                                   8959 ; Function level_select
                                   8960 ; ---------------------------------
      0029E9                       8961 _level_select::
      0029E9 E8 FA                 8962 	add	sp, #-6
                                   8963 ;geometry_boy.c:1113: HIDE_WIN;
      0029EB F0r00                 8964 	ldh	a, (_LCDC_REG + 0)
      0029ED E6 DF                 8965 	and	a, #0xdf
      0029EF E0r00                 8966 	ldh	(_LCDC_REG + 0), a
                                   8967 ;geometry_boy.c:1114: SHOW_BKG;
      0029F1 F0r00                 8968 	ldh	a, (_LCDC_REG + 0)
      0029F3 F6 01                 8969 	or	a, #0x01
      0029F5 E0r00                 8970 	ldh	(_LCDC_REG + 0), a
                                   8971 ;geometry_boy.c:1115: SHOW_SPRITES;
      0029F7 F0r00                 8972 	ldh	a, (_LCDC_REG + 0)
      0029F9 F6 02                 8973 	or	a, #0x02
      0029FB E0r00                 8974 	ldh	(_LCDC_REG + 0), a
                                   8975 ;geometry_boy.c:1117: wait_vbl_done();
      0029FD CDr00r00              8976 	call	_wait_vbl_done
                                   8977 ;geometry_boy.c:332: set_bkg_data(0, 9, gb_tileset_v2); // load tiles into VRAM
      002A00 11rBCr01              8978 	ld	de, #_gb_tileset_v2
      002A03 D5                    8979 	push	de
      002A04 21 00 09              8980 	ld	hl, #0x900
      002A07 E5                    8981 	push	hl
      002A08 CDr00r00              8982 	call	_set_bkg_data
      002A0B E8 04                 8983 	add	sp, #4
                                   8984 ;geometry_boy.c:333: for (render_row = 0; render_row < 18; render_row++)
      002A0D 21r01r00              8985 	ld	hl, #_render_row
      002A10 36 00                 8986 	ld	(hl), #0x00
      002A12                       8987 00157$:
                                   8988 ;geometry_boy.c:335: for (render_col = 0; render_col < 20; render_col++)
      002A12 21r02r00              8989 	ld	hl, #_render_col
      002A15 36 00                 8990 	ld	(hl), #0x00
      002A17                       8991 00155$:
                                   8992 ;geometry_boy.c:337: set_bkg_tile_xy(render_col, render_row, 3);
      002A17 3E 03                 8993 	ld	a, #0x03
      002A19 F5                    8994 	push	af
      002A1A 33                    8995 	inc	sp
      002A1B FAr01r00              8996 	ld	a, (#_render_row)
      002A1E 67                    8997 	ld	h, a
      002A1F FAr02r00              8998 	ld	a, (#_render_col)
      002A22 6F                    8999 	ld	l, a
      002A23 E5                    9000 	push	hl
      002A24 CDr00r00              9001 	call	_set_bkg_tile_xy
      002A27 E8 03                 9002 	add	sp, #3
                                   9003 ;geometry_boy.c:335: for (render_col = 0; render_col < 20; render_col++)
      002A29 21r02r00              9004 	ld	hl, #_render_col
      002A2C 34                    9005 	inc	(hl)
      002A2D 7E                    9006 	ld	a, (hl)
      002A2E D6 14                 9007 	sub	a, #0x14
      002A30 38 E5                 9008 	jr	C, 00155$
                                   9009 ;geometry_boy.c:333: for (render_row = 0; render_row < 18; render_row++)
      002A32 21r01r00              9010 	ld	hl, #_render_row
      002A35 34                    9011 	inc	(hl)
      002A36 7E                    9012 	ld	a, (hl)
      002A37 D6 12                 9013 	sub	a, #0x12
      002A39 38 D7                 9014 	jr	C, 00157$
                                   9015 ;geometry_boy.c:175: vbl_count = 0;
      002A3B 21r06r00              9016 	ld	hl, #_vbl_count
      002A3E 36 00                 9017 	ld	(hl), #0x00
                                   9018 ;geometry_boy.c:176: background_x_shift = 0;
      002A40 AF                    9019 	xor	a, a
      002A41 21r0Br00              9020 	ld	hl, #_background_x_shift
      002A44 22                    9021 	ld	(hl+), a
      002A45 77                    9022 	ld	(hl), a
                                   9023 ;geometry_boy.c:177: old_scroll_x = 0;
      002A46 AF                    9024 	xor	a, a
      002A47 21r0Fr00              9025 	ld	hl, #_old_scroll_x
      002A4A 22                    9026 	ld	(hl+), a
      002A4B 77                    9027 	ld	(hl), a
                                   9028 ;geometry_boy.c:178: old_background_x_shift = 8 + 3;
      002A4C 21r0Dr00              9029 	ld	hl, #_old_background_x_shift
      002A4F 3E 0B                 9030 	ld	a, #0x0b
      002A51 22                    9031 	ld	(hl+), a
      002A52 AF                    9032 	xor	a, a
      002A53 77                    9033 	ld	(hl), a
                                   9034 ;geometry_boy.c:179: player_y = PLAYER_START_Y;
      002A54 21r02r00              9035 	ld	hl, #_player_y
      002A57 36 90                 9036 	ld	(hl), #0x90
                                   9037 ;geometry_boy.c:180: player_x = PLAYER_START_X;
      002A59 21r03r00              9038 	ld	hl, #_player_x
      002A5C 36 20                 9039 	ld	(hl), #0x20
                                   9040 ;geometry_boy.c:181: player_dx = 3;
      002A5E 21r01r00              9041 	ld	hl, #_player_dx
      002A61 36 03                 9042 	ld	(hl), #0x03
                                   9043 ;geometry_boy.c:182: on_ground = 1;
      002A63 21r05r00              9044 	ld	hl, #_on_ground
      002A66 36 01                 9045 	ld	(hl), #0x01
                                   9046 ;geometry_boy.c:183: lose = 0;
      002A68 21r07r00              9047 	ld	hl, #_lose
      002A6B 36 00                 9048 	ld	(hl), #0x00
                                   9049 ;geometry_boy.c:184: win = 0;
      002A6D 21r06r00              9050 	ld	hl, #_win
      002A70 36 00                 9051 	ld	(hl), #0x00
                                   9052 ;geometry_boy.c:185: tick = 0;
      002A72 21r0Ar00              9053 	ld	hl, #_tick
      002A75 36 00                 9054 	ld	(hl), #0x00
                                   9055 ;geometry_boy.c:186: parallax_tile_ind = 0;
      002A77 21r11r00              9056 	ld	hl, #_parallax_tile_ind
      002A7A 36 00                 9057 	ld	(hl), #0x00
                                   9058 ;geometry_boy.c:189: prev_jpad = 0;
      002A7C 21r08r00              9059 	ld	hl, #_prev_jpad
      002A7F 36 00                 9060 	ld	(hl), #0x00
                                   9061 ;geometry_boy.c:190: jpad = 0;
      002A81 21r09r00              9062 	ld	hl, #_jpad
      002A84 36 00                 9063 	ld	(hl), #0x00
                                   9064 ;geometry_boy.c:191: SCX_REG = 0;
      002A86 3E 00                 9065 	ld	a, #0x00
      002A88 E0r00                 9066 	ldh	(_SCX_REG + 0), a
                                   9067 ;geometry_boy.c:1122: set_sprite_data(CURSOR_TEXT_OAM, 1, (char *)LIGHT_CURSOR); // Load into VRAM
      002A8A 11r0Cr07              9068 	ld	de, #_aero_cursors
      002A8D D5                    9069 	push	de
      002A8E 3E 01                 9070 	ld	a, #0x01
      002A90 F5                    9071 	push	af
      002A91 33                    9072 	inc	sp
      002A92 3E 0A                 9073 	ld	a, #0x0a
      002A94 F5                    9074 	push	af
      002A95 33                    9075 	inc	sp
      002A96 CDr00r00              9076 	call	_set_sprite_data
      002A99 E8 04                 9077 	add	sp, #4
                                   9078 ;../gbdk/include/gb/gb.h:1326: shadow_OAM[nb].tile=tile;
      002A9B 21r2Ar00              9079 	ld	hl, #(_shadow_OAM + 42)
      002A9E 36 0A                 9080 	ld	(hl), #0x0a
                                   9081 ;../gbdk/include/gb/gb.h:1399: OAM_item_t * itm = &shadow_OAM[nb];
      002AA0 21r28r00              9082 	ld	hl, #(_shadow_OAM + 40)
                                   9083 ;../gbdk/include/gb/gb.h:1400: itm->y=y, itm->x=x;
      002AA3 3E 68                 9084 	ld	a, #0x68
      002AA5 22                    9085 	ld	(hl+), a
      002AA6 36 30                 9086 	ld	(hl), #0x30
                                   9087 ;geometry_boy.c:1127: for (render_col = 0; render_col < 5; render_col++){
      002AA8 21r02r00              9088 	ld	hl, #_render_col
      002AAB 36 00                 9089 	ld	(hl), #0x00
      002AAD                       9090 00159$:
                                   9091 ;geometry_boy.c:1128: set_bkg_tile_xy(render_col + LEVEL_TEXT_START_COL, LEVEL_TEXT_ROW, LETTER_TILES + (level_text[render_col] - 65));
      002AAD 3ErC1                 9092 	ld	a, #<(_level_text)
      002AAF 21r02r00              9093 	ld	hl, #_render_col
      002AB2 86                    9094 	add	a, (hl)
      002AB3 4F                    9095 	ld	c, a
      002AB4 3Es2F                 9096 	ld	a, #>(_level_text)
      002AB6 CE 00                 9097 	adc	a, #0x00
      002AB8 47                    9098 	ld	b, a
      002AB9 0A                    9099 	ld	a, (bc)
      002ABA C6 D6                 9100 	add	a, #0xd6
      002ABC 47                    9101 	ld	b, a
      002ABD 7E                    9102 	ld	a, (hl)
      002ABE C6 06                 9103 	add	a, #0x06
      002AC0 C5                    9104 	push	bc
      002AC1 33                    9105 	inc	sp
      002AC2 26 02                 9106 	ld	h, #0x02
                                   9107 ;	spillPairReg hl
                                   9108 ;	spillPairReg hl
      002AC4 E5                    9109 	push	hl
      002AC5 33                    9110 	inc	sp
      002AC6 F5                    9111 	push	af
      002AC7 33                    9112 	inc	sp
      002AC8 CDr00r00              9113 	call	_set_bkg_tile_xy
      002ACB E8 03                 9114 	add	sp, #3
                                   9115 ;geometry_boy.c:1127: for (render_col = 0; render_col < 5; render_col++){
      002ACD 21r02r00              9116 	ld	hl, #_render_col
      002AD0 34                    9117 	inc	(hl)
      002AD1 7E                    9118 	ld	a, (hl)
      002AD2 D6 05                 9119 	sub	a, #0x05
      002AD4 38 D7                 9120 	jr	C, 00159$
                                   9121 ;geometry_boy.c:1131: for (render_col = 0; render_col < 8; render_col++){
      002AD6 36 00                 9122 	ld	(hl), #0x00
      002AD8                       9123 00161$:
                                   9124 ;geometry_boy.c:1132: set_bkg_tile_xy(render_col + PROGRESS_TEXT_START_COL, PROGRESS_TEXT_ROW, LETTER_TILES + (progress_text[render_col] - 65));
      002AD8 3ErC6                 9125 	ld	a, #<(_progress_text)
      002ADA 21r02r00              9126 	ld	hl, #_render_col
      002ADD 86                    9127 	add	a, (hl)
      002ADE 4F                    9128 	ld	c, a
      002ADF 3Es2F                 9129 	ld	a, #>(_progress_text)
      002AE1 CE 00                 9130 	adc	a, #0x00
      002AE3 47                    9131 	ld	b, a
      002AE4 0A                    9132 	ld	a, (bc)
      002AE5 C6 D6                 9133 	add	a, #0xd6
      002AE7 47                    9134 	ld	b, a
      002AE8 7E                    9135 	ld	a, (hl)
      002AE9 C6 06                 9136 	add	a, #0x06
      002AEB C5                    9137 	push	bc
      002AEC 33                    9138 	inc	sp
      002AED 26 04                 9139 	ld	h, #0x04
                                   9140 ;	spillPairReg hl
                                   9141 ;	spillPairReg hl
      002AEF E5                    9142 	push	hl
      002AF0 33                    9143 	inc	sp
      002AF1 F5                    9144 	push	af
      002AF2 33                    9145 	inc	sp
      002AF3 CDr00r00              9146 	call	_set_bkg_tile_xy
      002AF6 E8 03                 9147 	add	sp, #3
                                   9148 ;geometry_boy.c:1131: for (render_col = 0; render_col < 8; render_col++){
      002AF8 21r02r00              9149 	ld	hl, #_render_col
      002AFB 34                    9150 	inc	(hl)
      002AFC 7E                    9151 	ld	a, (hl)
      002AFD D6 08                 9152 	sub	a, #0x08
      002AFF 38 D7                 9153 	jr	C, 00161$
                                   9154 ;geometry_boy.c:1135: for (render_col = 0; render_col < 8; render_col++){
      002B01 36 00                 9155 	ld	(hl), #0x00
      002B03                       9156 00163$:
                                   9157 ;geometry_boy.c:1136: set_bkg_tile_xy(render_col + PROGRESS_TEXT_START_COL, ATTEMPTS_TEXT_ROW, LETTER_TILES + (attempts_text[render_col] - 65));
      002B03 3ErCE                 9158 	ld	a, #<(_attempts_text)
      002B05 21r02r00              9159 	ld	hl, #_render_col
      002B08 86                    9160 	add	a, (hl)
      002B09 4F                    9161 	ld	c, a
      002B0A 3Es2F                 9162 	ld	a, #>(_attempts_text)
      002B0C CE 00                 9163 	adc	a, #0x00
      002B0E 47                    9164 	ld	b, a
      002B0F 0A                    9165 	ld	a, (bc)
      002B10 C6 D6                 9166 	add	a, #0xd6
      002B12 47                    9167 	ld	b, a
      002B13 7E                    9168 	ld	a, (hl)
      002B14 C6 06                 9169 	add	a, #0x06
      002B16 C5                    9170 	push	bc
      002B17 33                    9171 	inc	sp
      002B18 26 07                 9172 	ld	h, #0x07
                                   9173 ;	spillPairReg hl
                                   9174 ;	spillPairReg hl
      002B1A E5                    9175 	push	hl
      002B1B 33                    9176 	inc	sp
      002B1C F5                    9177 	push	af
      002B1D 33                    9178 	inc	sp
      002B1E CDr00r00              9179 	call	_set_bkg_tile_xy
      002B21 E8 03                 9180 	add	sp, #3
                                   9181 ;geometry_boy.c:1135: for (render_col = 0; render_col < 8; render_col++){
      002B23 21r02r00              9182 	ld	hl, #_render_col
      002B26 34                    9183 	inc	(hl)
      002B27 7E                    9184 	ld	a, (hl)
      002B28 D6 08                 9185 	sub	a, #0x08
      002B2A 38 D7                 9186 	jr	C, 00163$
                                   9187 ;geometry_boy.c:1139: for (render_col = 0; render_col < 5; render_col++){
      002B2C 36 00                 9188 	ld	(hl), #0x00
      002B2E                       9189 00165$:
                                   9190 ;geometry_boy.c:1140: set_bkg_tile_xy(render_col + START_TEXT_START_COL, START_TEXT_ROW, LETTER_TILES + (start_text[render_col] - 65));
      002B2E 3Er35                 9191 	ld	a, #<(_start_text)
      002B30 21r02r00              9192 	ld	hl, #_render_col
      002B33 86                    9193 	add	a, (hl)
      002B34 4F                    9194 	ld	c, a
      002B35 3Es25                 9195 	ld	a, #>(_start_text)
      002B37 CE 00                 9196 	adc	a, #0x00
      002B39 47                    9197 	ld	b, a
      002B3A 0A                    9198 	ld	a, (bc)
      002B3B C6 D6                 9199 	add	a, #0xd6
      002B3D 47                    9200 	ld	b, a
      002B3E 7E                    9201 	ld	a, (hl)
      002B3F C6 07                 9202 	add	a, #0x07
      002B41 C5                    9203 	push	bc
      002B42 33                    9204 	inc	sp
      002B43 26 0B                 9205 	ld	h, #0x0b
                                   9206 ;	spillPairReg hl
                                   9207 ;	spillPairReg hl
      002B45 E5                    9208 	push	hl
      002B46 33                    9209 	inc	sp
      002B47 F5                    9210 	push	af
      002B48 33                    9211 	inc	sp
      002B49 CDr00r00              9212 	call	_set_bkg_tile_xy
      002B4C E8 03                 9213 	add	sp, #3
                                   9214 ;geometry_boy.c:1139: for (render_col = 0; render_col < 5; render_col++){
      002B4E 21r02r00              9215 	ld	hl, #_render_col
      002B51 34                    9216 	inc	(hl)
      002B52 7E                    9217 	ld	a, (hl)
      002B53 D6 05                 9218 	sub	a, #0x05
      002B55 38 D7                 9219 	jr	C, 00165$
                                   9220 ;geometry_boy.c:1143: for (render_col = 0; render_col < 4; render_col++){
      002B57 36 00                 9221 	ld	(hl), #0x00
      002B59                       9222 00167$:
                                   9223 ;geometry_boy.c:1144: set_bkg_tile_xy(render_col + START_TEXT_START_COL, BACK_TEXT_ROW, LETTER_TILES + (back_text[render_col] - 65));
      002B59 3ErD6                 9224 	ld	a, #<(_back_text)
      002B5B 21r02r00              9225 	ld	hl, #_render_col
      002B5E 86                    9226 	add	a, (hl)
      002B5F 4F                    9227 	ld	c, a
      002B60 3Es2F                 9228 	ld	a, #>(_back_text)
      002B62 CE 00                 9229 	adc	a, #0x00
      002B64 47                    9230 	ld	b, a
      002B65 0A                    9231 	ld	a, (bc)
      002B66 C6 D6                 9232 	add	a, #0xd6
      002B68 47                    9233 	ld	b, a
      002B69 7E                    9234 	ld	a, (hl)
      002B6A C6 07                 9235 	add	a, #0x07
      002B6C C5                    9236 	push	bc
      002B6D 33                    9237 	inc	sp
      002B6E 26 0D                 9238 	ld	h, #0x0d
                                   9239 ;	spillPairReg hl
                                   9240 ;	spillPairReg hl
      002B70 E5                    9241 	push	hl
      002B71 33                    9242 	inc	sp
      002B72 F5                    9243 	push	af
      002B73 33                    9244 	inc	sp
      002B74 CDr00r00              9245 	call	_set_bkg_tile_xy
      002B77 E8 03                 9246 	add	sp, #3
                                   9247 ;geometry_boy.c:1143: for (render_col = 0; render_col < 4; render_col++){
      002B79 21r02r00              9248 	ld	hl, #_render_col
      002B7C 34                    9249 	inc	(hl)
      002B7D 7E                    9250 	ld	a, (hl)
      002B7E D6 04                 9251 	sub	a, #0x04
      002B80 38 D7                 9252 	jr	C, 00167$
                                   9253 ;geometry_boy.c:1148: uint8_t tmp = level_ind + 1;
      002B82 21r12r00              9254 	ld	hl, #_level_ind
      002B85 4E                    9255 	ld	c, (hl)
      002B86 0C                    9256 	inc	c
                                   9257 ;geometry_boy.c:1149: for (render_col = 1; render_col != 0xFF; render_col--){
      002B87 21r02r00              9258 	ld	hl, #_render_col
      002B8A 36 01                 9259 	ld	(hl), #0x01
      002B8C                       9260 00169$:
                                   9261 ;geometry_boy.c:1150: set_bkg_tile_xy(LEVEL_TEXT_START_COL + 6 + render_col, LEVEL_TEXT_ROW, NUMBER_TILES + (tmp % 10));
      002B8C 06 00                 9262 	ld	b, #0x00
      002B8E C5                    9263 	push	bc
      002B8F 11 0A 00              9264 	ld	de, #0x000a
      002B92 D5                    9265 	push	de
      002B93 C5                    9266 	push	bc
      002B94 CDr00r00              9267 	call	__modsint
      002B97 E8 04                 9268 	add	sp, #4
      002B99 C1                    9269 	pop	bc
      002B9A 7B                    9270 	ld	a, e
      002B9B C6 0D                 9271 	add	a, #0x0d
      002B9D 57                    9272 	ld	d, a
      002B9E 21r02r00              9273 	ld	hl, #_render_col
      002BA1 7E                    9274 	ld	a, (hl)
      002BA2 C6 0C                 9275 	add	a, #0x0c
      002BA4 D5                    9276 	push	de
      002BA5 33                    9277 	inc	sp
      002BA6 26 02                 9278 	ld	h, #0x02
                                   9279 ;	spillPairReg hl
                                   9280 ;	spillPairReg hl
      002BA8 E5                    9281 	push	hl
      002BA9 33                    9282 	inc	sp
      002BAA F5                    9283 	push	af
      002BAB 33                    9284 	inc	sp
      002BAC CDr00r00              9285 	call	_set_bkg_tile_xy
      002BAF E8 03                 9286 	add	sp, #3
                                   9287 ;geometry_boy.c:1151: tmp = tmp / 10;
      002BB1 11 0A 00              9288 	ld	de, #0x000a
      002BB4 D5                    9289 	push	de
      002BB5 C5                    9290 	push	bc
      002BB6 CDr00r00              9291 	call	__divsint
      002BB9 E8 04                 9292 	add	sp, #4
      002BBB 4B                    9293 	ld	c, e
                                   9294 ;geometry_boy.c:1149: for (render_col = 1; render_col != 0xFF; render_col--){
      002BBC 21r02r00              9295 	ld	hl, #_render_col
      002BBF 35                    9296 	dec	(hl)
      002BC0 7E                    9297 	ld	a, (hl)
      002BC1 3C                    9298 	inc	a
      002BC2 20 C8                 9299 	jr	NZ, 00169$
                                   9300 ;geometry_boy.c:1157: ENABLE_RAM_MBC1;
      002BC4 21 00 00              9301 	ld	hl, #0x0000
      002BC7 36 0A                 9302 	ld	(hl), #0x0a
                                   9303 ;geometry_boy.c:1158: progress = *(px_progress[level_ind]);
      002BC9 21r12r00              9304 	ld	hl, #_level_ind
      002BCC 6E                    9305 	ld	l, (hl)
                                   9306 ;	spillPairReg hl
                                   9307 ;	spillPairReg hl
      002BCD 26 00                 9308 	ld	h, #0x00
                                   9309 ;	spillPairReg hl
                                   9310 ;	spillPairReg hl
      002BCF 29                    9311 	add	hl, hl
      002BD0 4D                    9312 	ld	c, l
      002BD1 44                    9313 	ld	b, h
      002BD2 21r0Br00              9314 	ld	hl, #_px_progress
      002BD5 09                    9315 	add	hl, bc
      002BD6 2A                    9316 	ld	a,	(hl+)
      002BD7 66                    9317 	ld	h, (hl)
                                   9318 ;	spillPairReg hl
                                   9319 ;	spillPairReg hl
                                   9320 ;	spillPairReg hl
      002BD8 5F                    9321 	ld	e, a
      002BD9 54                    9322 	ld	d, h
      002BDA 1A                    9323 	ld	a, (de)
      002BDB F8 04                 9324 	ldhl	sp,	#4
      002BDD 22                    9325 	ld	(hl+), a
      002BDE 13                    9326 	inc	de
      002BDF 1A                    9327 	ld	a, (de)
      002BE0 77                    9328 	ld	(hl), a
      002BE1 F8 04                 9329 	ldhl	sp,	#4
      002BE3 3A                    9330 	ld	a, (hl-)
      002BE4 2B                    9331 	dec	hl
      002BE5 77                    9332 	ld	(hl), a
      002BE6 F8 05                 9333 	ldhl	sp,	#5
      002BE8 3A                    9334 	ld	a, (hl-)
      002BE9 2B                    9335 	dec	hl
      002BEA 22                    9336 	ld	(hl+), a
      002BEB AF                    9337 	xor	a, a
      002BEC 22                    9338 	ld	(hl+), a
      002BED 77                    9339 	ld	(hl), a
                                   9340 ;geometry_boy.c:1159: saved_attempts = *(attempts[level_ind]);
      002BEE 21r07r00              9341 	ld	hl, #_attempts
      002BF1 09                    9342 	add	hl, bc
      002BF2 2A                    9343 	ld	a, (hl+)
      002BF3 4F                    9344 	ld	c, a
      002BF4 46                    9345 	ld	b, (hl)
      002BF5 59                    9346 	ld	e, c
      002BF6 50                    9347 	ld	d, b
      002BF7 1A                    9348 	ld	a, (de)
      002BF8 F8 00                 9349 	ldhl	sp,	#0
      002BFA 22                    9350 	ld	(hl+), a
      002BFB 13                    9351 	inc	de
      002BFC 1A                    9352 	ld	a, (de)
      002BFD 77                    9353 	ld	(hl), a
                                   9354 ;geometry_boy.c:1160: DISABLE_RAM_MBC1;
      002BFE 21 00 00              9355 	ld	hl, #0x0000
      002C01 36 00                 9356 	ld	(hl), #0x00
                                   9357 ;geometry_boy.c:1161: progress = progress * 100;
      002C03 F8 04                 9358 	ldhl	sp,	#4
      002C05 2A                    9359 	ld	a, (hl+)
      002C06 5F                    9360 	ld	e, a
      002C07 56                    9361 	ld	d, (hl)
      002C08 D5                    9362 	push	de
      002C09 F8 04                 9363 	ldhl	sp,	#4
      002C0B 2A                    9364 	ld	a, (hl+)
      002C0C 5F                    9365 	ld	e, a
      002C0D 56                    9366 	ld	d, (hl)
      002C0E D5                    9367 	push	de
      002C0F 11 00 00              9368 	ld	de, #0x0000
      002C12 D5                    9369 	push	de
      002C13 1E 64                 9370 	ld	e, #0x64
      002C15 D5                    9371 	push	de
      002C16 CDr00r00              9372 	call	__mullong
      002C19 E8 08                 9373 	add	sp, #8
      002C1B 4D                    9374 	ld	c, l
      002C1C 44                    9375 	ld	b, h
      002C1D F8 02                 9376 	ldhl	sp,	#2
      002C1F 7B                    9377 	ld	a, e
      002C20 22                    9378 	ld	(hl+), a
      002C21 7A                    9379 	ld	a, d
      002C22 22                    9380 	ld	(hl+), a
      002C23 79                    9381 	ld	a, c
      002C24 22                    9382 	ld	(hl+), a
      002C25 70                    9383 	ld	(hl), b
                                   9384 ;geometry_boy.c:1162: progress = progress / (level_widths[level_ind] -LEVEL_END_OFFSET);
      002C26 21r12r00              9385 	ld	hl, #_level_ind
      002C29 6E                    9386 	ld	l, (hl)
                                   9387 ;	spillPairReg hl
                                   9388 ;	spillPairReg hl
      002C2A 26 00                 9389 	ld	h, #0x00
                                   9390 ;	spillPairReg hl
                                   9391 ;	spillPairReg hl
      002C2C 29                    9392 	add	hl, hl
      002C2D 11r17r00              9393 	ld	de, #_level_widths
      002C30 19                    9394 	add	hl, de
      002C31 2A                    9395 	ld	a, (hl+)
      002C32 46                    9396 	ld	b, (hl)
      002C33 C6 EC                 9397 	add	a, #0xec
      002C35 4F                    9398 	ld	c, a
      002C36 78                    9399 	ld	a, b
      002C37 CE FF                 9400 	adc	a, #0xff
      002C39 47                    9401 	ld	b, a
      002C3A 11 00 00              9402 	ld	de, #0x0000
      002C3D D5                    9403 	push	de
      002C3E C5                    9404 	push	bc
      002C3F F8 08                 9405 	ldhl	sp,	#8
      002C41 2A                    9406 	ld	a, (hl+)
      002C42 5F                    9407 	ld	e, a
      002C43 56                    9408 	ld	d, (hl)
      002C44 D5                    9409 	push	de
      002C45 F8 08                 9410 	ldhl	sp,	#8
      002C47 2A                    9411 	ld	a, (hl+)
      002C48 5F                    9412 	ld	e, a
      002C49 56                    9413 	ld	d, (hl)
      002C4A D5                    9414 	push	de
      002C4B CDr00r00              9415 	call	__divulong
      002C4E E8 08                 9416 	add	sp, #8
      002C50 4D                    9417 	ld	c, l
      002C51 44                    9418 	ld	b, h
                                   9419 ;geometry_boy.c:1163: progress = progress >> 3;
      002C52 3E 03                 9420 	ld	a, #0x03
      002C54                       9421 00419$:
      002C54 CB 38                 9422 	srl	b
      002C56 CB 19                 9423 	rr	c
      002C58 CB 1A                 9424 	rr	d
      002C5A CB 1B                 9425 	rr	e
      002C5C 3D                    9426 	dec	a
      002C5D 20 F5                 9427 	jr	NZ, 00419$
                                   9428 ;geometry_boy.c:1166: for (render_col = 2; render_col != 0xFF; render_col--){
      002C5F 21r02r00              9429 	ld	hl, #_render_col
      002C62 36 02                 9430 	ld	(hl), #0x02
      002C64                       9431 00171$:
                                   9432 ;geometry_boy.c:1167: set_bkg_tile_xy(PROGRESS_TEXT_START_COL + 2 + render_col, PROGRESS_TEXT_ROW + 1, NUMBER_TILES + (progress % 10));
      002C64 C5                    9433 	push	bc
      002C65 D5                    9434 	push	de
      002C66 21 00 00              9435 	ld	hl, #0x0000
      002C69 E5                    9436 	push	hl
      002C6A 2E 0A                 9437 	ld	l, #0x0a
      002C6C E5                    9438 	push	hl
      002C6D C5                    9439 	push	bc
      002C6E D5                    9440 	push	de
      002C6F CDr00r00              9441 	call	__modulong
      002C72 E8 08                 9442 	add	sp, #8
      002C74 E5                    9443 	push	hl
      002C75 F8 08                 9444 	ldhl	sp,	#8
      002C77 73                    9445 	ld	(hl), e
      002C78 F8 09                 9446 	ldhl	sp,	#9
      002C7A 72                    9447 	ld	(hl), d
      002C7B E1                    9448 	pop	hl
      002C7C E5                    9449 	push	hl
      002C7D 7D                    9450 	ld	a, l
      002C7E F8 0A                 9451 	ldhl	sp,	#10
      002C80 77                    9452 	ld	(hl), a
      002C81 E1                    9453 	pop	hl
      002C82 7C                    9454 	ld	a, h
      002C83 F8 09                 9455 	ldhl	sp,	#9
      002C85 77                    9456 	ld	(hl), a
      002C86 D1                    9457 	pop	de
      002C87 C1                    9458 	pop	bc
      002C88 F8 02                 9459 	ldhl	sp,	#2
      002C8A 7E                    9460 	ld	a, (hl)
      002C8B C6 0D                 9461 	add	a, #0x0d
      002C8D 67                    9462 	ld	h, a
                                   9463 ;	spillPairReg hl
                                   9464 ;	spillPairReg hl
      002C8E FAr02r00              9465 	ld	a, (_render_col)
                                   9466 ;	spillPairReg hl
                                   9467 ;	spillPairReg hl
      002C91 6F                    9468 	ld	l, a
      002C92 C6 08                 9469 	add	a, #0x08
      002C94 D5                    9470 	push	de
      002C95 E5                    9471 	push	hl
      002C96 33                    9472 	inc	sp
      002C97 26 05                 9473 	ld	h, #0x05
                                   9474 ;	spillPairReg hl
                                   9475 ;	spillPairReg hl
      002C99 E5                    9476 	push	hl
      002C9A 33                    9477 	inc	sp
      002C9B F5                    9478 	push	af
      002C9C 33                    9479 	inc	sp
      002C9D CDr00r00              9480 	call	_set_bkg_tile_xy
      002CA0 E8 03                 9481 	add	sp, #3
      002CA2 D1                    9482 	pop	de
                                   9483 ;geometry_boy.c:1168: progress = progress / 10;
      002CA3 21 00 00              9484 	ld	hl, #0x0000
      002CA6 E5                    9485 	push	hl
      002CA7 2E 0A                 9486 	ld	l, #0x0a
      002CA9 E5                    9487 	push	hl
      002CAA C5                    9488 	push	bc
      002CAB D5                    9489 	push	de
      002CAC CDr00r00              9490 	call	__divulong
      002CAF E8 08                 9491 	add	sp, #8
      002CB1 4D                    9492 	ld	c, l
      002CB2 44                    9493 	ld	b, h
                                   9494 ;geometry_boy.c:1166: for (render_col = 2; render_col != 0xFF; render_col--){
      002CB3 21r02r00              9495 	ld	hl, #_render_col
      002CB6 35                    9496 	dec	(hl)
      002CB7 7E                    9497 	ld	a, (hl)
      002CB8 3C                    9498 	inc	a
      002CB9 20 A9                 9499 	jr	NZ, 00171$
                                   9500 ;geometry_boy.c:1170: set_bkg_tile_xy(PROGRESS_TEXT_START_COL + 5, PROGRESS_TEXT_ROW + 1, PERCENT_TILE);
      002CBB 21 05 32              9501 	ld	hl, #0x3205
      002CBE E5                    9502 	push	hl
      002CBF 3E 0B                 9503 	ld	a, #0x0b
      002CC1 F5                    9504 	push	af
      002CC2 33                    9505 	inc	sp
      002CC3 CDr00r00              9506 	call	_set_bkg_tile_xy
      002CC6 E8 03                 9507 	add	sp, #3
                                   9508 ;geometry_boy.c:1172: for (render_col = 3; render_col != 0xFF; render_col--){
      002CC8 21r02r00              9509 	ld	hl, #_render_col
      002CCB 36 03                 9510 	ld	(hl), #0x03
      002CCD                       9511 00173$:
                                   9512 ;geometry_boy.c:1173: set_bkg_tile_xy(PROGRESS_TEXT_START_COL + 2 + render_col, ATTEMPTS_TEXT_ROW + 1, NUMBER_TILES + (saved_attempts % 10));
      002CCD C1                    9513 	pop	bc
      002CCE C5                    9514 	push	bc
      002CCF C5                    9515 	push	bc
      002CD0 11 0A 00              9516 	ld	de, #0x000a
      002CD3 D5                    9517 	push	de
      002CD4 C5                    9518 	push	bc
      002CD5 CDr00r00              9519 	call	__moduint
      002CD8 E8 04                 9520 	add	sp, #4
      002CDA C1                    9521 	pop	bc
      002CDB 7B                    9522 	ld	a, e
      002CDC C6 0D                 9523 	add	a, #0x0d
      002CDE 57                    9524 	ld	d, a
      002CDF 21r02r00              9525 	ld	hl, #_render_col
      002CE2 7E                    9526 	ld	a, (hl)
      002CE3 C6 08                 9527 	add	a, #0x08
      002CE5 D5                    9528 	push	de
      002CE6 33                    9529 	inc	sp
      002CE7 26 08                 9530 	ld	h, #0x08
                                   9531 ;	spillPairReg hl
                                   9532 ;	spillPairReg hl
      002CE9 E5                    9533 	push	hl
      002CEA 33                    9534 	inc	sp
      002CEB F5                    9535 	push	af
      002CEC 33                    9536 	inc	sp
      002CED CDr00r00              9537 	call	_set_bkg_tile_xy
      002CF0 E8 03                 9538 	add	sp, #3
                                   9539 ;geometry_boy.c:1174: saved_attempts = saved_attempts / 10;
      002CF2 11 0A 00              9540 	ld	de, #0x000a
      002CF5 D5                    9541 	push	de
      002CF6 C5                    9542 	push	bc
      002CF7 CDr00r00              9543 	call	__divuint
      002CFA E8 06                 9544 	add	sp, #6
      002CFC D5                    9545 	push	de
                                   9546 ;geometry_boy.c:1172: for (render_col = 3; render_col != 0xFF; render_col--){
      002CFD 21r02r00              9547 	ld	hl, #_render_col
      002D00 35                    9548 	dec	(hl)
      002D01 7E                    9549 	ld	a, (hl)
      002D02 3C                    9550 	inc	a
      002D03 20 C8                 9551 	jr	NZ, 00173$
                                   9552 ;geometry_boy.c:1178: while (1)
      002D05 21r27r00              9553 	ld	hl, #_cursor_title_position_old
      002D08 36 00                 9554 	ld	(hl), #0x00
      002D0A                       9555 00139$:
                                   9556 ;geometry_boy.c:1181: prev_jpad = jpad;
      002D0A FAr09r00              9557 	ld	a, (#_jpad)
      002D0D EAr08r00              9558 	ld	(#_prev_jpad),a
                                   9559 ;geometry_boy.c:1182: jpad = joypad();
      002D10 CDr00r00              9560 	call	_joypad
      002D13 21r09r00              9561 	ld	hl, #_jpad
      002D16 73                    9562 	ld	(hl), e
                                   9563 ;geometry_boy.c:1183: render = 0;
      002D17 F8 02                 9564 	ldhl	sp,	#2
      002D19 36 00                 9565 	ld	(hl), #0x00
                                   9566 ;geometry_boy.c:1185: if (debounce_input(J_DOWN, jpad, prev_jpad))
      002D1B FAr08r00              9567 	ld	a, (#_prev_jpad)
      002D1E F8 03                 9568 	ldhl	sp,	#3
      002D20 77                    9569 	ld	(hl), a
                                   9570 ;geometry_boy.c:1181: prev_jpad = jpad;
      002D21 FAr09r00              9571 	ld	a, (#_jpad)
      002D24 F8 04                 9572 	ldhl	sp,	#4
                                   9573 ;geometry_boy.c:361: return (button == target) && !(prev_button == target);
      002D26 32                    9574 	ld	(hl-), a
      002D27 7E                    9575 	ld	a, (hl)
      002D28 D6 08                 9576 	sub	a, #0x08
      002D2A 20 07                 9577 	jr	NZ, 00186$
      002D2C F8 04                 9578 	ldhl	sp,	#4
      002D2E 7E                    9579 	ld	a, (hl)
      002D2F D6 08                 9580 	sub	a, #0x08
      002D31 20 03                 9581 	jr	NZ, 00187$
      002D33                       9582 00186$:
      002D33 AF                    9583 	xor	a, a
      002D34 18 02                 9584 	jr	00188$
      002D36                       9585 00187$:
      002D36 3E 01                 9586 	ld	a, #0x01
      002D38                       9587 00188$:
      002D38 F8 05                 9588 	ldhl	sp,	#5
      002D3A 77                    9589 	ld	(hl), a
                                   9590 ;geometry_boy.c:1185: if (debounce_input(J_DOWN, jpad, prev_jpad))
      002D3B 7E                    9591 	ld	a, (hl)
      002D3C B7                    9592 	or	a, a
      002D3D 28 12                 9593 	jr	Z, 00131$
                                   9594 ;geometry_boy.c:1187: cursor_title_position = 1;
      002D3F 21r26r00              9595 	ld	hl, #_cursor_title_position
      002D42 36 01                 9596 	ld	(hl), #0x01
                                   9597 ;../gbdk/include/gb/gb.h:1399: OAM_item_t * itm = &shadow_OAM[nb];
                                   9598 ;../gbdk/include/gb/gb.h:1400: itm->y=y, itm->x=x;
      002D44 21r28r00              9599 	ld	hl, #(_shadow_OAM + 40)
      002D47 36 78                 9600 	ld	(hl), #0x78
      002D49 21r29r00              9601 	ld	hl, #(_shadow_OAM + 41)
      002D4C 36 30                 9602 	ld	(hl), #0x30
                                   9603 ;geometry_boy.c:1188: move_sprite(CURSOR_TEXT_OAM, (START_TEXT_START_COL << 3) + XOFF - 16, (BACK_TEXT_ROW << 3) + YOFF);
      002D4E C3r1Dr2E              9604 	jp	00132$
      002D51                       9605 00131$:
                                   9606 ;geometry_boy.c:361: return (button == target) && !(prev_button == target);
      002D51 F8 03                 9607 	ldhl	sp,	#3
      002D53 7E                    9608 	ld	a, (hl)
      002D54 D6 04                 9609 	sub	a, #0x04
      002D56 20 07                 9610 	jr	NZ, 00189$
      002D58 F8 04                 9611 	ldhl	sp,	#4
      002D5A 7E                    9612 	ld	a, (hl)
      002D5B D6 04                 9613 	sub	a, #0x04
      002D5D 20 03                 9614 	jr	NZ, 00190$
      002D5F                       9615 00189$:
      002D5F AF                    9616 	xor	a, a
      002D60 18 02                 9617 	jr	00191$
      002D62                       9618 00190$:
      002D62 3E 01                 9619 	ld	a, #0x01
      002D64                       9620 00191$:
                                   9621 ;geometry_boy.c:1190: else if (debounce_input(J_UP, jpad, prev_jpad))
      002D64 B7                    9622 	or	a, a
      002D65 28 12                 9623 	jr	Z, 00128$
                                   9624 ;geometry_boy.c:1192: cursor_title_position = 0;
      002D67 21r26r00              9625 	ld	hl, #_cursor_title_position
      002D6A 36 00                 9626 	ld	(hl), #0x00
                                   9627 ;../gbdk/include/gb/gb.h:1399: OAM_item_t * itm = &shadow_OAM[nb];
                                   9628 ;../gbdk/include/gb/gb.h:1400: itm->y=y, itm->x=x;
      002D6C 21r28r00              9629 	ld	hl, #(_shadow_OAM + 40)
      002D6F 36 68                 9630 	ld	(hl), #0x68
      002D71 21r29r00              9631 	ld	hl, #(_shadow_OAM + 41)
      002D74 36 30                 9632 	ld	(hl), #0x30
                                   9633 ;geometry_boy.c:1193: move_sprite(CURSOR_TEXT_OAM, (START_TEXT_START_COL << 3) + XOFF - 16, (START_TEXT_ROW << 3) + YOFF);
      002D76 C3r1Dr2E              9634 	jp	00132$
      002D79                       9635 00128$:
                                   9636 ;geometry_boy.c:361: return (button == target) && !(prev_button == target);
      002D79 F8 03                 9637 	ldhl	sp,	#3
      002D7B 7E                    9638 	ld	a, (hl)
      002D7C D6 02                 9639 	sub	a, #0x02
      002D7E 20 07                 9640 	jr	NZ, 00192$
      002D80 F8 04                 9641 	ldhl	sp,	#4
      002D82 7E                    9642 	ld	a, (hl)
      002D83 D6 02                 9643 	sub	a, #0x02
      002D85 20 03                 9644 	jr	NZ, 00193$
      002D87                       9645 00192$:
      002D87 AF                    9646 	xor	a, a
      002D88 18 02                 9647 	jr	00194$
      002D8A                       9648 00193$:
      002D8A 3E 01                 9649 	ld	a, #0x01
      002D8C                       9650 00194$:
                                   9651 ;geometry_boy.c:1196: else if (debounce_input(J_LEFT, jpad, prev_jpad))
      002D8C B7                    9652 	or	a, a
      002D8D 28 10                 9653 	jr	Z, 00125$
                                   9654 ;geometry_boy.c:1198: if (level_ind > 0){
      002D8F 21r12r00              9655 	ld	hl, #_level_ind
      002D92 7E                    9656 	ld	a, (hl)
      002D93 B7                    9657 	or	a, a
      002D94 CAr1Dr2E              9658 	jp	Z, 00132$
                                   9659 ;geometry_boy.c:1199: level_ind--;
      002D97 35                    9660 	dec	(hl)
                                   9661 ;geometry_boy.c:1200: render = 1;
      002D98 F8 02                 9662 	ldhl	sp,	#2
      002D9A 36 01                 9663 	ld	(hl), #0x01
      002D9C C3r1Dr2E              9664 	jp	00132$
      002D9F                       9665 00125$:
                                   9666 ;geometry_boy.c:361: return (button == target) && !(prev_button == target);
      002D9F F8 03                 9667 	ldhl	sp,	#3
      002DA1 7E                    9668 	ld	a, (hl)
      002DA2 3D                    9669 	dec	a
      002DA3 20 06                 9670 	jr	NZ, 00195$
      002DA5 F8 04                 9671 	ldhl	sp,	#4
      002DA7 7E                    9672 	ld	a, (hl)
      002DA8 3D                    9673 	dec	a
      002DA9 20 03                 9674 	jr	NZ, 00196$
      002DAB                       9675 00195$:
      002DAB AF                    9676 	xor	a, a
      002DAC 18 02                 9677 	jr	00197$
      002DAE                       9678 00196$:
      002DAE 3E 01                 9679 	ld	a, #0x01
      002DB0                       9680 00197$:
                                   9681 ;geometry_boy.c:1204: else if (debounce_input(J_RIGHT, jpad, prev_jpad))
      002DB0 B7                    9682 	or	a, a
      002DB1 28 11                 9683 	jr	Z, 00122$
                                   9684 ;geometry_boy.c:1206: if (level_ind < NUM_LEVELS - 1){
      002DB3 21r12r00              9685 	ld	hl, #_level_ind
      002DB6 7E                    9686 	ld	a, (hl)
      002DB7 EE 80                 9687 	xor	a, #0x80
      002DB9 D6 81                 9688 	sub	a, #0x81
      002DBB 30 60                 9689 	jr	NC, 00132$
                                   9690 ;geometry_boy.c:1207: level_ind ++;
      002DBD 34                    9691 	inc	(hl)
                                   9692 ;geometry_boy.c:1208: render = 1;
      002DBE F8 02                 9693 	ldhl	sp,	#2
      002DC0 36 01                 9694 	ld	(hl), #0x01
      002DC2 18 59                 9695 	jr	00132$
      002DC4                       9696 00122$:
                                   9697 ;geometry_boy.c:361: return (button == target) && !(prev_button == target);
      002DC4 F8 03                 9698 	ldhl	sp,	#3
      002DC6 7E                    9699 	ld	a, (hl)
      002DC7 D6 40                 9700 	sub	a, #0x40
      002DC9 20 07                 9701 	jr	NZ, 00198$
      002DCB F8 04                 9702 	ldhl	sp,	#4
      002DCD 7E                    9703 	ld	a, (hl)
      002DCE D6 40                 9704 	sub	a, #0x40
      002DD0 20 03                 9705 	jr	NZ, 00199$
      002DD2                       9706 00198$:
      002DD2 AF                    9707 	xor	a, a
      002DD3 18 02                 9708 	jr	00200$
      002DD5                       9709 00199$:
      002DD5 3E 01                 9710 	ld	a, #0x01
      002DD7                       9711 00200$:
                                   9712 ;geometry_boy.c:1212: else if (debounce_input(J_SELECT, jpad, prev_jpad)) // || debounce_input(J_START, jpad, prev_jpad))
      002DD7 B7                    9713 	or	a, a
      002DD8 28 43                 9714 	jr	Z, 00132$
                                   9715 ;geometry_boy.c:1216: for (uint8_t i = 0; i < 40; i++)
      002DDA F8 05                 9716 	ldhl	sp,	#5
      002DDC 36 00                 9717 	ld	(hl), #0x00
      002DDE                       9718 00176$:
      002DDE F8 05                 9719 	ldhl	sp,	#5
      002DE0 7E                    9720 	ld	a, (hl)
      002DE1 D6 28                 9721 	sub	a, #0x28
      002DE3 30 1B                 9722 	jr	NC, 00113$
                                   9723 ;../gbdk/include/gb/gb.h:1425: shadow_OAM[nb].y = 0;
      002DE5 3A                    9724 	ld	a, (hl-)
      002DE6 2B                    9725 	dec	hl
      002DE7 22                    9726 	ld	(hl+), a
      002DE8 AF                    9727 	xor	a, a
      002DE9 32                    9728 	ld	(hl-), a
      002DEA 2A                    9729 	ld	a, (hl+)
      002DEB 4F                    9730 	ld	c, a
      002DEC 46                    9731 	ld	b, (hl)
      002DED CB 21                 9732 	sla	c
      002DEF CB 10                 9733 	rl	b
      002DF1 CB 21                 9734 	sla	c
      002DF3 CB 10                 9735 	rl	b
      002DF5 21r00r00              9736 	ld	hl, #_shadow_OAM
      002DF8 09                    9737 	add	hl, bc
      002DF9 36 00                 9738 	ld	(hl), #0x00
                                   9739 ;geometry_boy.c:1216: for (uint8_t i = 0; i < 40; i++)
      002DFB F8 05                 9740 	ldhl	sp,	#5
      002DFD 34                    9741 	inc	(hl)
      002DFE 18 DE                 9742 	jr	00176$
      002E00                       9743 00113$:
                                   9744 ;geometry_boy.c:1221: if (cursor_title_position == 0)
      002E00 21r26r00              9745 	ld	hl, #_cursor_title_position
      002E03 7E                    9746 	ld	a, (hl)
                                   9747 ;geometry_boy.c:1223: cursor_title_position = 0;
      002E04 B7                    9748 	or	a,a
      002E05 20 06                 9749 	jr	NZ, 00117$
      002E07 77                    9750 	ld	(hl),a
                                   9751 ;geometry_boy.c:1224: return GAME;
      002E08 1E 01                 9752 	ld	e, #0x01
      002E0A C3rBEr2F              9753 	jp	00184$
      002E0D                       9754 00117$:
                                   9755 ;geometry_boy.c:1227: else if (cursor_title_position == 1)
      002E0D FAr26r00              9756 	ld	a, (#_cursor_title_position)
      002E10 3D                    9757 	dec	a
      002E11 20 0A                 9758 	jr	NZ, 00132$
                                   9759 ;geometry_boy.c:1229: cursor_title_position = 0;
      002E13 21r26r00              9760 	ld	hl, #_cursor_title_position
      002E16 36 00                 9761 	ld	(hl), #0x00
                                   9762 ;geometry_boy.c:1230: return TITLE;
      002E18 1E 00                 9763 	ld	e, #0x00
      002E1A C3rBEr2F              9764 	jp	00184$
      002E1D                       9765 00132$:
                                   9766 ;geometry_boy.c:1234: if (render){
      002E1D F8 02                 9767 	ldhl	sp,	#2
      002E1F 7E                    9768 	ld	a, (hl)
      002E20 B7                    9769 	or	a, a
      002E21 CArB3r2F              9770 	jp	Z, 00137$
                                   9771 ;geometry_boy.c:1236: tmp = level_ind + 1;
      002E24 21r12r00              9772 	ld	hl, #_level_ind
      002E27 4E                    9773 	ld	c, (hl)
      002E28 0C                    9774 	inc	c
                                   9775 ;geometry_boy.c:1237: for (render_col = 1; render_col != 0xFF; render_col--){
      002E29 21r02r00              9776 	ld	hl, #_render_col
      002E2C 36 01                 9777 	ld	(hl), #0x01
      002E2E                       9778 00178$:
                                   9779 ;geometry_boy.c:1238: set_bkg_tile_xy(LEVEL_TEXT_START_COL + 6 + render_col, LEVEL_TEXT_ROW, NUMBER_TILES + (tmp % 10));
      002E2E 06 00                 9780 	ld	b, #0x00
      002E30 C5                    9781 	push	bc
      002E31 11 0A 00              9782 	ld	de, #0x000a
      002E34 D5                    9783 	push	de
      002E35 C5                    9784 	push	bc
      002E36 CDr00r00              9785 	call	__modsint
      002E39 E8 04                 9786 	add	sp, #4
      002E3B C1                    9787 	pop	bc
      002E3C 7B                    9788 	ld	a, e
      002E3D C6 0D                 9789 	add	a, #0x0d
      002E3F 57                    9790 	ld	d, a
      002E40 21r02r00              9791 	ld	hl, #_render_col
      002E43 7E                    9792 	ld	a, (hl)
      002E44 C6 0C                 9793 	add	a, #0x0c
      002E46 D5                    9794 	push	de
      002E47 33                    9795 	inc	sp
      002E48 26 02                 9796 	ld	h, #0x02
                                   9797 ;	spillPairReg hl
                                   9798 ;	spillPairReg hl
      002E4A E5                    9799 	push	hl
      002E4B 33                    9800 	inc	sp
      002E4C F5                    9801 	push	af
      002E4D 33                    9802 	inc	sp
      002E4E CDr00r00              9803 	call	_set_bkg_tile_xy
      002E51 E8 03                 9804 	add	sp, #3
                                   9805 ;geometry_boy.c:1239: tmp = tmp / 10;
      002E53 11 0A 00              9806 	ld	de, #0x000a
      002E56 D5                    9807 	push	de
      002E57 C5                    9808 	push	bc
      002E58 CDr00r00              9809 	call	__divsint
      002E5B E8 04                 9810 	add	sp, #4
      002E5D 4B                    9811 	ld	c, e
                                   9812 ;geometry_boy.c:1237: for (render_col = 1; render_col != 0xFF; render_col--){
      002E5E 21r02r00              9813 	ld	hl, #_render_col
      002E61 35                    9814 	dec	(hl)
      002E62 7E                    9815 	ld	a, (hl)
      002E63 3C                    9816 	inc	a
      002E64 20 C8                 9817 	jr	NZ, 00178$
                                   9818 ;geometry_boy.c:1242: ENABLE_RAM_MBC1;
      002E66 21 00 00              9819 	ld	hl, #0x0000
      002E69 36 0A                 9820 	ld	(hl), #0x0a
                                   9821 ;geometry_boy.c:1243: progress = *(px_progress[level_ind]);
      002E6B 21r12r00              9822 	ld	hl, #_level_ind
      002E6E 6E                    9823 	ld	l, (hl)
                                   9824 ;	spillPairReg hl
                                   9825 ;	spillPairReg hl
      002E6F 26 00                 9826 	ld	h, #0x00
                                   9827 ;	spillPairReg hl
                                   9828 ;	spillPairReg hl
      002E71 29                    9829 	add	hl, hl
      002E72 4D                    9830 	ld	c, l
      002E73 44                    9831 	ld	b, h
      002E74 21r0Br00              9832 	ld	hl, #_px_progress
      002E77 09                    9833 	add	hl, bc
      002E78 2A                    9834 	ld	a,	(hl+)
      002E79 66                    9835 	ld	h, (hl)
                                   9836 ;	spillPairReg hl
                                   9837 ;	spillPairReg hl
                                   9838 ;	spillPairReg hl
      002E7A 5F                    9839 	ld	e, a
      002E7B 54                    9840 	ld	d, h
      002E7C 1A                    9841 	ld	a, (de)
      002E7D F8 04                 9842 	ldhl	sp,	#4
      002E7F 22                    9843 	ld	(hl+), a
      002E80 13                    9844 	inc	de
      002E81 1A                    9845 	ld	a, (de)
      002E82 77                    9846 	ld	(hl), a
      002E83 F8 04                 9847 	ldhl	sp,	#4
      002E85 3A                    9848 	ld	a, (hl-)
      002E86 2B                    9849 	dec	hl
      002E87 77                    9850 	ld	(hl), a
      002E88 F8 05                 9851 	ldhl	sp,	#5
      002E8A 3A                    9852 	ld	a, (hl-)
      002E8B 2B                    9853 	dec	hl
      002E8C 22                    9854 	ld	(hl+), a
      002E8D AF                    9855 	xor	a, a
      002E8E 22                    9856 	ld	(hl+), a
      002E8F 77                    9857 	ld	(hl), a
                                   9858 ;geometry_boy.c:1244: saved_attempts = *(attempts[level_ind]);
      002E90 21r07r00              9859 	ld	hl, #_attempts
      002E93 09                    9860 	add	hl, bc
      002E94 2A                    9861 	ld	a, (hl+)
      002E95 4F                    9862 	ld	c, a
      002E96 46                    9863 	ld	b, (hl)
      002E97 59                    9864 	ld	e, c
      002E98 50                    9865 	ld	d, b
      002E99 1A                    9866 	ld	a, (de)
      002E9A F8 00                 9867 	ldhl	sp,	#0
      002E9C 22                    9868 	ld	(hl+), a
      002E9D 13                    9869 	inc	de
      002E9E 1A                    9870 	ld	a, (de)
      002E9F 77                    9871 	ld	(hl), a
                                   9872 ;geometry_boy.c:1245: DISABLE_RAM_MBC1;
      002EA0 21 00 00              9873 	ld	hl, #0x0000
      002EA3 36 00                 9874 	ld	(hl), #0x00
                                   9875 ;geometry_boy.c:1246: progress = progress * 100;
      002EA5 F8 04                 9876 	ldhl	sp,	#4
      002EA7 2A                    9877 	ld	a, (hl+)
      002EA8 5F                    9878 	ld	e, a
      002EA9 56                    9879 	ld	d, (hl)
      002EAA D5                    9880 	push	de
      002EAB F8 04                 9881 	ldhl	sp,	#4
      002EAD 2A                    9882 	ld	a, (hl+)
      002EAE 5F                    9883 	ld	e, a
      002EAF 56                    9884 	ld	d, (hl)
      002EB0 D5                    9885 	push	de
      002EB1 11 00 00              9886 	ld	de, #0x0000
      002EB4 D5                    9887 	push	de
      002EB5 1E 64                 9888 	ld	e, #0x64
      002EB7 D5                    9889 	push	de
      002EB8 CDr00r00              9890 	call	__mullong
      002EBB E8 08                 9891 	add	sp, #8
      002EBD 4D                    9892 	ld	c, l
      002EBE 44                    9893 	ld	b, h
      002EBF F8 02                 9894 	ldhl	sp,	#2
      002EC1 7B                    9895 	ld	a, e
      002EC2 22                    9896 	ld	(hl+), a
      002EC3 7A                    9897 	ld	a, d
      002EC4 22                    9898 	ld	(hl+), a
      002EC5 79                    9899 	ld	a, c
      002EC6 22                    9900 	ld	(hl+), a
      002EC7 70                    9901 	ld	(hl), b
                                   9902 ;geometry_boy.c:1247: progress = progress / (level_widths[level_ind] -LEVEL_END_OFFSET);
      002EC8 21r12r00              9903 	ld	hl, #_level_ind
      002ECB 6E                    9904 	ld	l, (hl)
                                   9905 ;	spillPairReg hl
                                   9906 ;	spillPairReg hl
      002ECC 26 00                 9907 	ld	h, #0x00
                                   9908 ;	spillPairReg hl
                                   9909 ;	spillPairReg hl
      002ECE 29                    9910 	add	hl, hl
      002ECF 11r17r00              9911 	ld	de, #_level_widths
      002ED2 19                    9912 	add	hl, de
      002ED3 2A                    9913 	ld	a, (hl+)
      002ED4 46                    9914 	ld	b, (hl)
      002ED5 C6 EC                 9915 	add	a, #0xec
      002ED7 4F                    9916 	ld	c, a
      002ED8 78                    9917 	ld	a, b
      002ED9 CE FF                 9918 	adc	a, #0xff
      002EDB 47                    9919 	ld	b, a
      002EDC 11 00 00              9920 	ld	de, #0x0000
      002EDF D5                    9921 	push	de
      002EE0 C5                    9922 	push	bc
      002EE1 F8 08                 9923 	ldhl	sp,	#8
      002EE3 2A                    9924 	ld	a, (hl+)
      002EE4 5F                    9925 	ld	e, a
      002EE5 56                    9926 	ld	d, (hl)
      002EE6 D5                    9927 	push	de
      002EE7 F8 08                 9928 	ldhl	sp,	#8
      002EE9 2A                    9929 	ld	a, (hl+)
      002EEA 5F                    9930 	ld	e, a
      002EEB 56                    9931 	ld	d, (hl)
      002EEC D5                    9932 	push	de
      002EED CDr00r00              9933 	call	__divulong
      002EF0 E8 08                 9934 	add	sp, #8
      002EF2 4D                    9935 	ld	c, l
      002EF3 44                    9936 	ld	b, h
                                   9937 ;geometry_boy.c:1248: progress = progress >> 3;
      002EF4 3E 03                 9938 	ld	a, #0x03
      002EF6                       9939 00450$:
      002EF6 CB 38                 9940 	srl	b
      002EF8 CB 19                 9941 	rr	c
      002EFA CB 1A                 9942 	rr	d
      002EFC CB 1B                 9943 	rr	e
      002EFE 3D                    9944 	dec	a
      002EFF 20 F5                 9945 	jr	NZ, 00450$
      002F01 F8 02                 9946 	ldhl	sp,	#2
      002F03 7B                    9947 	ld	a, e
      002F04 22                    9948 	ld	(hl+), a
      002F05 7A                    9949 	ld	a, d
      002F06 22                    9950 	ld	(hl+), a
      002F07 79                    9951 	ld	a, c
      002F08 22                    9952 	ld	(hl+), a
      002F09 70                    9953 	ld	(hl), b
                                   9954 ;geometry_boy.c:1251: for (render_col = 2; render_col != 0xFF; render_col--){
      002F0A 21r02r00              9955 	ld	hl, #_render_col
      002F0D 36 02                 9956 	ld	(hl), #0x02
      002F0F                       9957 00180$:
                                   9958 ;geometry_boy.c:1252: set_bkg_tile_xy(PROGRESS_TEXT_START_COL + 2 + render_col, PROGRESS_TEXT_ROW + 1, NUMBER_TILES + (progress % 10));
      002F0F 11 00 00              9959 	ld	de, #0x0000
      002F12 D5                    9960 	push	de
      002F13 1E 0A                 9961 	ld	e, #0x0a
      002F15 D5                    9962 	push	de
      002F16 F8 08                 9963 	ldhl	sp,	#8
      002F18 2A                    9964 	ld	a, (hl+)
      002F19 5F                    9965 	ld	e, a
      002F1A 56                    9966 	ld	d, (hl)
      002F1B D5                    9967 	push	de
      002F1C F8 08                 9968 	ldhl	sp,	#8
      002F1E 2A                    9969 	ld	a, (hl+)
      002F1F 5F                    9970 	ld	e, a
      002F20 56                    9971 	ld	d, (hl)
      002F21 D5                    9972 	push	de
      002F22 CDr00r00              9973 	call	__modulong
      002F25 E8 08                 9974 	add	sp, #8
      002F27 7B                    9975 	ld	a, e
      002F28 C6 0D                 9976 	add	a, #0x0d
      002F2A 47                    9977 	ld	b, a
      002F2B 21r02r00              9978 	ld	hl, #_render_col
      002F2E 7E                    9979 	ld	a, (hl)
      002F2F C6 08                 9980 	add	a, #0x08
      002F31 C5                    9981 	push	bc
      002F32 33                    9982 	inc	sp
      002F33 26 05                 9983 	ld	h, #0x05
                                   9984 ;	spillPairReg hl
                                   9985 ;	spillPairReg hl
      002F35 E5                    9986 	push	hl
      002F36 33                    9987 	inc	sp
      002F37 F5                    9988 	push	af
      002F38 33                    9989 	inc	sp
      002F39 CDr00r00              9990 	call	_set_bkg_tile_xy
      002F3C E8 03                 9991 	add	sp, #3
                                   9992 ;geometry_boy.c:1253: progress = progress / 10;
      002F3E 11 00 00              9993 	ld	de, #0x0000
      002F41 D5                    9994 	push	de
      002F42 1E 0A                 9995 	ld	e, #0x0a
      002F44 D5                    9996 	push	de
      002F45 F8 08                 9997 	ldhl	sp,	#8
      002F47 2A                    9998 	ld	a, (hl+)
      002F48 5F                    9999 	ld	e, a
      002F49 56                   10000 	ld	d, (hl)
      002F4A D5                   10001 	push	de
      002F4B F8 08                10002 	ldhl	sp,	#8
      002F4D 2A                   10003 	ld	a, (hl+)
      002F4E 5F                   10004 	ld	e, a
      002F4F 56                   10005 	ld	d, (hl)
      002F50 D5                   10006 	push	de
      002F51 CDr00r00             10007 	call	__divulong
      002F54 E8 08                10008 	add	sp, #8
      002F56 4D                   10009 	ld	c, l
      002F57 44                   10010 	ld	b, h
      002F58 F8 02                10011 	ldhl	sp,	#2
      002F5A 7B                   10012 	ld	a, e
      002F5B 22                   10013 	ld	(hl+), a
      002F5C 7A                   10014 	ld	a, d
      002F5D 22                   10015 	ld	(hl+), a
      002F5E 79                   10016 	ld	a, c
      002F5F 22                   10017 	ld	(hl+), a
      002F60 70                   10018 	ld	(hl), b
                                  10019 ;geometry_boy.c:1251: for (render_col = 2; render_col != 0xFF; render_col--){
      002F61 21r02r00             10020 	ld	hl, #_render_col
      002F64 35                   10021 	dec	(hl)
      002F65 7E                   10022 	ld	a, (hl)
      002F66 3C                   10023 	inc	a
      002F67 20 A6                10024 	jr	NZ, 00180$
                                  10025 ;geometry_boy.c:1255: set_bkg_tile_xy(PROGRESS_TEXT_START_COL + 5, PROGRESS_TEXT_ROW + 1, PERCENT_TILE);
      002F69 21 05 32             10026 	ld	hl, #0x3205
      002F6C E5                   10027 	push	hl
      002F6D 3E 0B                10028 	ld	a, #0x0b
      002F6F F5                   10029 	push	af
      002F70 33                   10030 	inc	sp
      002F71 CDr00r00             10031 	call	_set_bkg_tile_xy
      002F74 E8 03                10032 	add	sp, #3
                                  10033 ;geometry_boy.c:1257: for (render_col = 3; render_col != 0xFF; render_col--){
      002F76 21r02r00             10034 	ld	hl, #_render_col
      002F79 36 03                10035 	ld	(hl), #0x03
      002F7B                      10036 00182$:
                                  10037 ;geometry_boy.c:1258: set_bkg_tile_xy(PROGRESS_TEXT_START_COL + 2 + render_col, ATTEMPTS_TEXT_ROW + 1, NUMBER_TILES + (saved_attempts % 10));
      002F7B C1                   10038 	pop	bc
      002F7C C5                   10039 	push	bc
      002F7D C5                   10040 	push	bc
      002F7E 11 0A 00             10041 	ld	de, #0x000a
      002F81 D5                   10042 	push	de
      002F82 C5                   10043 	push	bc
      002F83 CDr00r00             10044 	call	__moduint
      002F86 E8 04                10045 	add	sp, #4
      002F88 C1                   10046 	pop	bc
      002F89 7B                   10047 	ld	a, e
      002F8A C6 0D                10048 	add	a, #0x0d
      002F8C 57                   10049 	ld	d, a
      002F8D 21r02r00             10050 	ld	hl, #_render_col
      002F90 7E                   10051 	ld	a, (hl)
      002F91 C6 08                10052 	add	a, #0x08
      002F93 D5                   10053 	push	de
      002F94 33                   10054 	inc	sp
      002F95 26 08                10055 	ld	h, #0x08
                                  10056 ;	spillPairReg hl
                                  10057 ;	spillPairReg hl
      002F97 E5                   10058 	push	hl
      002F98 33                   10059 	inc	sp
      002F99 F5                   10060 	push	af
      002F9A 33                   10061 	inc	sp
      002F9B CDr00r00             10062 	call	_set_bkg_tile_xy
      002F9E E8 03                10063 	add	sp, #3
                                  10064 ;geometry_boy.c:1259: saved_attempts = saved_attempts / 10;
      002FA0 11 0A 00             10065 	ld	de, #0x000a
      002FA3 D5                   10066 	push	de
      002FA4 C5                   10067 	push	bc
      002FA5 CDr00r00             10068 	call	__divuint
      002FA8 E8 06                10069 	add	sp, #6
      002FAA D5                   10070 	push	de
                                  10071 ;geometry_boy.c:1257: for (render_col = 3; render_col != 0xFF; render_col--){
      002FAB 21r02r00             10072 	ld	hl, #_render_col
      002FAE 35                   10073 	dec	(hl)
      002FAF 7E                   10074 	ld	a, (hl)
      002FB0 3C                   10075 	inc	a
      002FB1 20 C8                10076 	jr	NZ, 00182$
      002FB3                      10077 00137$:
                                  10078 ;geometry_boy.c:1263: delay(LOOP_DELAY);
      002FB3 11 14 00             10079 	ld	de, #0x0014
      002FB6 D5                   10080 	push	de
      002FB7 CDr00r00             10081 	call	_delay
      002FBA E1                   10082 	pop	hl
      002FBB C3r0Ar2D             10083 	jp	00139$
      002FBE                      10084 00184$:
                                  10085 ;geometry_boy.c:1265: }
      002FBE E8 06                10086 	add	sp, #6
      002FC0 C9                   10087 	ret
      002FC1                      10088 _level_text:
      002FC1 4C                   10089 	.db #0x4c	;  76	'L'
      002FC2 45                   10090 	.db #0x45	;  69	'E'
      002FC3 56                   10091 	.db #0x56	;  86	'V'
      002FC4 45                   10092 	.db #0x45	;  69	'E'
      002FC5 4C                   10093 	.db #0x4c	;  76	'L'
      002FC6                      10094 _progress_text:
      002FC6 50                   10095 	.db #0x50	;  80	'P'
      002FC7 52                   10096 	.db #0x52	;  82	'R'
      002FC8 4F                   10097 	.db #0x4f	;  79	'O'
      002FC9 47                   10098 	.db #0x47	;  71	'G'
      002FCA 52                   10099 	.db #0x52	;  82	'R'
      002FCB 45                   10100 	.db #0x45	;  69	'E'
      002FCC 53                   10101 	.db #0x53	;  83	'S'
      002FCD 53                   10102 	.db #0x53	;  83	'S'
      002FCE                      10103 _attempts_text:
      002FCE 41                   10104 	.db #0x41	;  65	'A'
      002FCF 54                   10105 	.db #0x54	;  84	'T'
      002FD0 54                   10106 	.db #0x54	;  84	'T'
      002FD1 45                   10107 	.db #0x45	;  69	'E'
      002FD2 4D                   10108 	.db #0x4d	;  77	'M'
      002FD3 50                   10109 	.db #0x50	;  80	'P'
      002FD4 54                   10110 	.db #0x54	;  84	'T'
      002FD5 53                   10111 	.db #0x53	;  83	'S'
      002FD6                      10112 _back_text:
      002FD6 42                   10113 	.db #0x42	;  66	'B'
      002FD7 41                   10114 	.db #0x41	;  65	'A'
      002FD8 43                   10115 	.db #0x43	;  67	'C'
      002FD9 4B                   10116 	.db #0x4b	;  75	'K'
                                  10117 ;geometry_boy.c:1267: void main()
                                  10118 ;	---------------------------------
                                  10119 ; Function main
                                  10120 ; ---------------------------------
      002FDA                      10121 _main::
      002FDA E8 F9                10122 	add	sp, #-7
                                  10123 ;geometry_boy.c:175: vbl_count = 0;
      002FDC 21r06r00             10124 	ld	hl, #_vbl_count
      002FDF 36 00                10125 	ld	(hl), #0x00
                                  10126 ;geometry_boy.c:176: background_x_shift = 0;
      002FE1 AF                   10127 	xor	a, a
      002FE2 21r0Br00             10128 	ld	hl, #_background_x_shift
      002FE5 22                   10129 	ld	(hl+), a
      002FE6 77                   10130 	ld	(hl), a
                                  10131 ;geometry_boy.c:177: old_scroll_x = 0;
      002FE7 AF                   10132 	xor	a, a
      002FE8 21r0Fr00             10133 	ld	hl, #_old_scroll_x
      002FEB 22                   10134 	ld	(hl+), a
      002FEC 77                   10135 	ld	(hl), a
                                  10136 ;geometry_boy.c:178: old_background_x_shift = 8 + 3;
      002FED 21r0Dr00             10137 	ld	hl, #_old_background_x_shift
      002FF0 3E 0B                10138 	ld	a, #0x0b
      002FF2 22                   10139 	ld	(hl+), a
      002FF3 AF                   10140 	xor	a, a
      002FF4 77                   10141 	ld	(hl), a
                                  10142 ;geometry_boy.c:179: player_y = PLAYER_START_Y;
      002FF5 21r02r00             10143 	ld	hl, #_player_y
      002FF8 36 90                10144 	ld	(hl), #0x90
                                  10145 ;geometry_boy.c:180: player_x = PLAYER_START_X;
      002FFA 21r03r00             10146 	ld	hl, #_player_x
      002FFD 36 20                10147 	ld	(hl), #0x20
                                  10148 ;geometry_boy.c:181: player_dx = 3;
      002FFF 21r01r00             10149 	ld	hl, #_player_dx
      003002 36 03                10150 	ld	(hl), #0x03
                                  10151 ;geometry_boy.c:182: on_ground = 1;
      003004 21r05r00             10152 	ld	hl, #_on_ground
      003007 36 01                10153 	ld	(hl), #0x01
                                  10154 ;geometry_boy.c:183: lose = 0;
      003009 21r07r00             10155 	ld	hl, #_lose
      00300C 36 00                10156 	ld	(hl), #0x00
                                  10157 ;geometry_boy.c:184: win = 0;
      00300E 21r06r00             10158 	ld	hl, #_win
      003011 36 00                10159 	ld	(hl), #0x00
                                  10160 ;geometry_boy.c:185: tick = 0;
      003013 21r0Ar00             10161 	ld	hl, #_tick
      003016 36 00                10162 	ld	(hl), #0x00
                                  10163 ;geometry_boy.c:186: parallax_tile_ind = 0;
      003018 21r11r00             10164 	ld	hl, #_parallax_tile_ind
      00301B 36 00                10165 	ld	(hl), #0x00
                                  10166 ;geometry_boy.c:189: prev_jpad = 0;
      00301D 21r08r00             10167 	ld	hl, #_prev_jpad
      003020 36 00                10168 	ld	(hl), #0x00
                                  10169 ;geometry_boy.c:190: jpad = 0;
      003022 21r09r00             10170 	ld	hl, #_jpad
      003025 36 00                10171 	ld	(hl), #0x00
                                  10172 ;geometry_boy.c:191: SCX_REG = 0;
      003027 3E 00                10173 	ld	a, #0x00
      003029 E0r00                10174 	ldh	(_SCX_REG + 0), a
                                  10175 ;../gbdk/include/gb/gb.h:660: __asm__("di");
      00302B F3                   10176 	di
                                  10177 ;geometry_boy.c:1272: gbt_play(song_Data, 2, 1);
      00302C 21 02 01             10178 	ld	hl, #0x102
      00302F E5                   10179 	push	hl
      003030 11r00r00             10180 	ld	de, #_song_Data
      003033 D5                   10181 	push	de
      003034 CDr00r00             10182 	call	_gbt_play
      003037 E8 04                10183 	add	sp, #4
                                  10184 ;geometry_boy.c:1273: gbt_loop(1);
      003039 3E 01                10185 	ld	a, #0x01
      00303B F5                   10186 	push	af
      00303C 33                   10187 	inc	sp
      00303D CDr00r00             10188 	call	_gbt_loop
      003040 33                   10189 	inc	sp
                                  10190 ;geometry_boy.c:1275: set_interrupts(VBL_IFLAG); // interrupt set after finished drawing the screen
      003041 3E 01                10191 	ld	a, #0x01
      003043 F5                   10192 	push	af
      003044 33                   10193 	inc	sp
      003045 CDr00r00             10194 	call	_set_interrupts
      003048 33                   10195 	inc	sp
                                  10196 ;../gbdk/include/gb/gb.h:644: __asm__("ei");
      003049 FB                   10197 	ei
                                  10198 ;geometry_boy.c:1280: SPRITES_8x8;
      00304A F0r00                10199 	ldh	a, (_LCDC_REG + 0)
      00304C E6 FB                10200 	and	a, #0xfb
      00304E E0r00                10201 	ldh	(_LCDC_REG + 0), a
                                  10202 ;geometry_boy.c:1281: saved_bank = _current_bank;
      003050 F0r00                10203 	ldh	a, (__current_bank + 0)
      003052 EAr05r00             10204 	ld	(#_saved_bank),a
                                  10205 ;geometry_boy.c:1282: screen_t current_screen = TITLE;
      003055 0E 00                10206 	ld	c, #0x00
                                  10207 ;geometry_boy.c:1284: ENABLE_RAM_MBC1;
      003057 21 00 00             10208 	ld	hl, #0x0000
      00305A 36 0A                10209 	ld	(hl), #0x0a
                                  10210 ;geometry_boy.c:1285: for (uint8_t i = 0; i < NUM_LEVELS; i++){
      00305C F8 06                10211 	ldhl	sp,	#6
      00305E 36 00                10212 	ld	(hl), #0x00
      003060                      10213 00123$:
      003060 F8 06                10214 	ldhl	sp,	#6
      003062 7E                   10215 	ld	a, (hl)
      003063 D6 02                10216 	sub	a, #0x02
      003065 30 4F                10217 	jr	NC, 00101$
                                  10218 ;geometry_boy.c:1286: attempts[i] = (uint16_t *) (START_ATTEMPTS + (i << 1));
      003067 7E                   10219 	ld	a, (hl)
      003068 06 00                10220 	ld	b, #0x00
      00306A 87                   10221 	add	a, a
      00306B CB 10                10222 	rl	b
      00306D F8 00                10223 	ldhl	sp,	#0
      00306F 22                   10224 	ld	(hl+), a
      003070 70                   10225 	ld	(hl), b
      003071 11r07r00             10226 	ld	de, #_attempts
      003074 E1                   10227 	pop	hl
      003075 E5                   10228 	push	hl
      003076 19                   10229 	add	hl, de
      003077 5D                   10230 	ld	e, l
      003078 54                   10231 	ld	d, h
      003079 F8 00                10232 	ldhl	sp,	#0
      00307B 2A                   10233 	ld	a, (hl+)
      00307C 23                   10234 	inc	hl
      00307D 32                   10235 	ld	(hl-), a
      00307E 2A                   10236 	ld	a, (hl+)
      00307F 23                   10237 	inc	hl
      003080 32                   10238 	ld	(hl-), a
      003081 D5                   10239 	push	de
      003082 2A                   10240 	ld	a, (hl+)
      003083 5F                   10241 	ld	e, a
      003084 56                   10242 	ld	d, (hl)
      003085 21 01 A0             10243 	ld	hl, #0xa001
      003088 19                   10244 	add	hl, de
      003089 D1                   10245 	pop	de
      00308A 45                   10246 	ld	b, l
      00308B 7C                   10247 	ld	a, h
      00308C F8 04                10248 	ldhl	sp,	#4
      00308E 70                   10249 	ld	(hl), b
      00308F 23                   10250 	inc	hl
      003090 32                   10251 	ld	(hl-), a
      003091 2A                   10252 	ld	a, (hl+)
      003092 12                   10253 	ld	(de), a
      003093 13                   10254 	inc	de
      003094 7E                   10255 	ld	a, (hl)
      003095 12                   10256 	ld	(de), a
                                  10257 ;geometry_boy.c:1287: px_progress[i] = (uint16_t *) (START_PROGRESS + (i << 1));
      003096 D1                   10258 	pop	de
      003097 D5                   10259 	push	de
      003098 21r0Br00             10260 	ld	hl, #_px_progress
      00309B 19                   10261 	add	hl, de
      00309C E5                   10262 	push	hl
      00309D F8 04                10263 	ldhl	sp,#4
      00309F 2A                   10264 	ld	a, (hl+)
      0030A0 5F                   10265 	ld	e, a
      0030A1 56                   10266 	ld	d, (hl)
      0030A2 21 00 A1             10267 	ld	hl, #0xa100
      0030A5 19                   10268 	add	hl, de
      0030A6 D1                   10269 	pop	de
      0030A7 45                   10270 	ld	b, l
      0030A8 7C                   10271 	ld	a, h
      0030A9 F8 04                10272 	ldhl	sp,	#4
      0030AB 70                   10273 	ld	(hl), b
      0030AC 23                   10274 	inc	hl
      0030AD 32                   10275 	ld	(hl-), a
      0030AE 2A                   10276 	ld	a, (hl+)
      0030AF 12                   10277 	ld	(de), a
      0030B0 13                   10278 	inc	de
                                  10279 ;geometry_boy.c:1285: for (uint8_t i = 0; i < NUM_LEVELS; i++){
      0030B1 2A                   10280 	ld	a, (hl+)
      0030B2 12                   10281 	ld	(de), a
      0030B3 34                   10282 	inc	(hl)
      0030B4 18 AA                10283 	jr	00123$
      0030B6                      10284 00101$:
                                  10285 ;geometry_boy.c:1290: if (*saved != 's')
      0030B6 21r23r00             10286 	ld	hl, #_saved
      0030B9 6E                   10287 	ld	l, (hl)
                                  10288 ;	spillPairReg hl
                                  10289 ;	spillPairReg hl
      0030BA FAr24r00             10290 	ld	a, (_saved + 1)
      0030BD 67                   10291 	ld	h, a
                                  10292 ;	spillPairReg hl
                                  10293 ;	spillPairReg hl
      0030BE 7E                   10294 	ld	a, (hl)
      0030BF D6 73                10295 	sub	a, #0x73
      0030C1 28 56                10296 	jr	Z, 00104$
                                  10297 ;geometry_boy.c:1292: *saved = 's';
      0030C3 36 73                10298 	ld	(hl), #0x73
                                  10299 ;geometry_boy.c:1293: for (uint8_t i = 0; i < NUM_LEVELS; i++)
      0030C5 F8 06                10300 	ldhl	sp,	#6
      0030C7 36 00                10301 	ld	(hl), #0x00
      0030C9                      10302 00126$:
      0030C9 F8 06                10303 	ldhl	sp,	#6
      0030CB 7E                   10304 	ld	a, (hl)
      0030CC D6 02                10305 	sub	a, #0x02
      0030CE 30 49                10306 	jr	NC, 00104$
                                  10307 ;geometry_boy.c:1295: *(attempts[i]) = 0;
      0030D0 7E                   10308 	ld	a, (hl)
      0030D1 06 00                10309 	ld	b, #0x00
      0030D3 87                   10310 	add	a, a
      0030D4 CB 10                10311 	rl	b
      0030D6 F8 02                10312 	ldhl	sp,	#2
      0030D8 22                   10313 	ld	(hl+), a
      0030D9 70                   10314 	ld	(hl), b
      0030DA 11r07r00             10315 	ld	de, #_attempts
      0030DD 3A                   10316 	ld	a, (hl-)
      0030DE 6E                   10317 	ld	l, (hl)
      0030DF 67                   10318 	ld	h, a
      0030E0 19                   10319 	add	hl, de
      0030E1 E5                   10320 	push	hl
      0030E2 7D                   10321 	ld	a, l
      0030E3 F8 06                10322 	ldhl	sp,	#6
      0030E5 77                   10323 	ld	(hl), a
      0030E6 E1                   10324 	pop	hl
      0030E7 7C                   10325 	ld	a, h
      0030E8 F8 05                10326 	ldhl	sp,	#5
      0030EA 32                   10327 	ld	(hl-), a
      0030EB 2A                   10328 	ld	a, (hl+)
      0030EC 5F                   10329 	ld	e, a
      0030ED 56                   10330 	ld	d, (hl)
      0030EE 1A                   10331 	ld	a, (de)
      0030EF 6F                   10332 	ld	l, a
                                  10333 ;	spillPairReg hl
                                  10334 ;	spillPairReg hl
      0030F0 13                   10335 	inc	de
      0030F1 1A                   10336 	ld	a, (de)
      0030F2 67                   10337 	ld	h, a
                                  10338 ;	spillPairReg hl
                                  10339 ;	spillPairReg hl
      0030F3 AF                   10340 	xor	a, a
      0030F4 22                   10341 	ld	(hl+), a
      0030F5 77                   10342 	ld	(hl), a
                                  10343 ;geometry_boy.c:1296: *(px_progress[i]) = 0;
      0030F6 F8 02                10344 	ldhl	sp,#2
      0030F8 2A                   10345 	ld	a, (hl+)
      0030F9 5F                   10346 	ld	e, a
      0030FA 56                   10347 	ld	d, (hl)
      0030FB 21r0Br00             10348 	ld	hl, #_px_progress
      0030FE 19                   10349 	add	hl, de
      0030FF E5                   10350 	push	hl
      003100 7D                   10351 	ld	a, l
      003101 F8 06                10352 	ldhl	sp,	#6
      003103 77                   10353 	ld	(hl), a
      003104 E1                   10354 	pop	hl
      003105 7C                   10355 	ld	a, h
      003106 F8 05                10356 	ldhl	sp,	#5
      003108 32                   10357 	ld	(hl-), a
      003109 2A                   10358 	ld	a, (hl+)
      00310A 5F                   10359 	ld	e, a
      00310B 56                   10360 	ld	d, (hl)
      00310C 1A                   10361 	ld	a, (de)
      00310D 6F                   10362 	ld	l, a
                                  10363 ;	spillPairReg hl
                                  10364 ;	spillPairReg hl
      00310E 13                   10365 	inc	de
      00310F 1A                   10366 	ld	a, (de)
      003110 67                   10367 	ld	h, a
                                  10368 ;	spillPairReg hl
                                  10369 ;	spillPairReg hl
      003111 AF                   10370 	xor	a, a
      003112 22                   10371 	ld	(hl+), a
      003113 77                   10372 	ld	(hl), a
                                  10373 ;geometry_boy.c:1293: for (uint8_t i = 0; i < NUM_LEVELS; i++)
      003114 F8 06                10374 	ldhl	sp,	#6
      003116 34                   10375 	inc	(hl)
      003117 18 B0                10376 	jr	00126$
      003119                      10377 00104$:
                                  10378 ;geometry_boy.c:1299: DISABLE_RAM_MBC1;
      003119 21 00 00             10379 	ld	hl, #0x0000
      00311C 36 00                10380 	ld	(hl), #0x00
                                  10381 ;geometry_boy.c:1301: while (1)
      00311E                      10382 00117$:
                                  10383 ;geometry_boy.c:1303: wait_vbl_done(); // wait until finished drawing the screen
      00311E CDr00r00             10384 	call	_wait_vbl_done
                                  10385 ;geometry_boy.c:1306: if (current_screen == TITLE)
      003121 79                   10386 	ld	a, c
      003122 B7                   10387 	or	a, a
      003123 20 06                10388 	jr	NZ, 00114$
                                  10389 ;geometry_boy.c:1308: current_screen = title();
      003125 CDr23r1E             10390 	call	_title
      003128 4B                   10391 	ld	c, e
      003129 18 F3                10392 	jr	00117$
      00312B                      10393 00114$:
                                  10394 ;geometry_boy.c:1310: else if (current_screen == LEVEL_SELECT)
      00312B 79                   10395 	ld	a, c
      00312C D6 02                10396 	sub	a, #0x02
      00312E 20 0B                10397 	jr	NZ, 00111$
                                  10398 ;geometry_boy.c:1312: level_ind = 0;
      003130 21r12r00             10399 	ld	hl, #_level_ind
      003133 36 00                10400 	ld	(hl), #0x00
                                  10401 ;geometry_boy.c:1313: current_screen = level_select();
      003135 CDrE9r29             10402 	call	_level_select
      003138 4B                   10403 	ld	c, e
      003139 18 E3                10404 	jr	00117$
      00313B                      10405 00111$:
                                  10406 ;geometry_boy.c:1315: else if (current_screen == PLAYER_SELECT)
      00313B 79                   10407 	ld	a, c
      00313C D6 03                10408 	sub	a, #0x03
      00313E 20 06                10409 	jr	NZ, 00108$
                                  10410 ;geometry_boy.c:1317: current_screen = player_select();
      003140 CDr40r25             10411 	call	_player_select
      003143 4B                   10412 	ld	c, e
      003144 18 D8                10413 	jr	00117$
      003146                      10414 00108$:
                                  10415 ;geometry_boy.c:1319: else if (current_screen == GAME)
      003146 79                   10416 	ld	a, c
      003147 3D                   10417 	dec	a
      003148 20 D4                10418 	jr	NZ, 00117$
                                  10419 ;geometry_boy.c:1321: current_screen = game();
      00314A CDr2Ar18             10420 	call	_game
      00314D 4B                   10421 	ld	c, e
      00314E 18 CE                10422 	jr	00117$
                                  10423 ;geometry_boy.c:1324: }
      003150 E8 07                10424 	add	sp, #7
      003152 C9                   10425 	ret
                                  10426 	.area _CODE
                                  10427 	.area _INITIALIZER
      000000                      10428 __xinit__player_dy:
      000000 00                   10429 	.db #0x00	;  0
      000001                      10430 __xinit__player_dx:
      000001 03                   10431 	.db #0x03	;  3
      000002                      10432 __xinit__player_y:
      000002 90                   10433 	.db #0x90	; 144
      000003                      10434 __xinit__player_x:
      000003 20                   10435 	.db #0x20	; 32
      000004                      10436 __xinit__player_sprite_num:
      000004 00                   10437 	.db #0x00	; 0
      000005                      10438 __xinit__on_ground:
      000005 01                   10439 	.db #0x01	; 1
      000006                      10440 __xinit__win:
      000006 00                   10441 	.db #0x00	; 0
      000007                      10442 __xinit__lose:
      000007 00                   10443 	.db #0x00	; 0
      000008                      10444 __xinit__prev_jpad:
      000008 00                   10445 	.db #0x00	; 0
      000009                      10446 __xinit__jpad:
      000009 00                   10447 	.db #0x00	; 0
      00000A                      10448 __xinit__tick:
      00000A 00                   10449 	.db #0x00	; 0
      00000B                      10450 __xinit__background_x_shift:
      00000B 00 00                10451 	.dw #0x0000
      00000D                      10452 __xinit__old_background_x_shift:
      00000D 0B 00                10453 	.dw #0x000b
      00000F                      10454 __xinit__old_scroll_x:
      00000F 00 00                10455 	.dw #0x0000
      000011                      10456 __xinit__parallax_tile_ind:
      000011 00                   10457 	.db #0x00	; 0
      000012                      10458 __xinit__level_ind:
      000012 00                   10459 	.db #0x00	; 0
      000013                      10460 __xinit__level_maps:
      000013r00r00                10461 	.dw _level1_v2
      000015r00r00                10462 	.dw _level2
      000017                      10463 __xinit__level_widths:
      000017 C7 01                10464 	.dw #0x01c7
      000019 C7 01                10465 	.dw #0x01c7
      00001B                      10466 __xinit__level_banks:
      00001B 04                   10467 	.db #0x04	; 4
      00001C 04                   10468 	.db #0x04	; 4
      00001D                      10469 __xinit__current_attempts:
      00001D 00 00                10470 	.dw #0x0000
      00001F                      10471 __xinit__px_progress_bar:
      00001F 00 00                10472 	.dw #0x0000
      000021                      10473 __xinit__old_px_progress_bar:
      000021 00 00                10474 	.dw #0x0000
      000023                      10475 __xinit__saved:
      000023 00 A0                10476 	.dw #0xa000
      000025                      10477 __xinit__title_loaded:
      000025 00                   10478 	.db #0x00	; 0
      000026                      10479 __xinit__cursor_title_position:
      000026 00                   10480 	.db #0x00	; 0
      000027                      10481 __xinit__cursor_title_position_old:
      000027 00                   10482 	.db #0x00	; 0
                                  10483 	.area _CABS (ABS)
