                                      1 ;--------------------------------------------------------
                                      2 ; File Created by SDCC : free open source ANSI-C Compiler
                                      3 ; Version 4.1.6 #12539 (Linux)
                                      4 ;--------------------------------------------------------
                                      5 	.module geometry_boy
                                      6 	.optsdcc -mgbz80
                                      7 	
                                      8 ;--------------------------------------------------------
                                      9 ; Public variables in this module
                                     10 ;--------------------------------------------------------
                                     11 	.globl _main
                                     12 	.globl _title
                                     13 	.globl _game
                                     14 	.globl _init_tiles
                                     15 	.globl _initialize_player
                                     16 	.globl _render_player
                                     17 	.globl _tick_player
                                     18 	.globl _collide
                                     19 	.globl _debounce_input
                                     20 	.globl _get_tile_by_px
                                     21 	.globl _y_px_to_tile_ind
                                     22 	.globl _x_px_to_tile_ind
                                     23 	.globl _init_background
                                     24 	.globl _scroll_bkg_x
                                     25 	.globl _set_sprite_data
                                     26 	.globl _get_bkg_tile_xy
                                     27 	.globl _set_bkg_tiles
                                     28 	.globl _set_bkg_data
                                     29 	.globl _wait_vbl_done
                                     30 	.globl _joypad
                                     31 	.globl _delay
                                     32 	.globl _game_title
                                     33 	.globl _old_background_x_shift
                                     34 	.globl _background_x_shift
                                     35 	.globl _tick
                                     36 	.globl _jpad
                                     37 	.globl _prev_jpad
                                     38 	.globl _lose
                                     39 	.globl _win
                                     40 	.globl _on_ground
                                     41 	.globl _player_x
                                     42 	.globl _player_y
                                     43 	.globl _player_dx
                                     44 	.globl _player_dy
                                     45 	.globl _saved_bank
                                     46 	.globl _count
                                     47 	.globl _render_row
                                     48 	.globl _scx_cnt
                                     49 	.globl _out_test
                                     50 	.globl _parallax_tileset
                                     51 	.globl _gb_tileset
                                     52 	.globl _player
                                     53 ;--------------------------------------------------------
                                     54 ; special function registers
                                     55 ;--------------------------------------------------------
                                     56 ;--------------------------------------------------------
                                     57 ; ram data
                                     58 ;--------------------------------------------------------
                                     59 	.area _DATA
      000000                         60 _scx_cnt::
      000000                         61 	.ds 1
      000001                         62 _render_row::
      000001                         63 	.ds 1
      000002                         64 _count::
      000002                         65 	.ds 2
      000004                         66 _saved_bank::
      000004                         67 	.ds 1
                                     68 ;--------------------------------------------------------
                                     69 ; ram data
                                     70 ;--------------------------------------------------------
                                     71 	.area _INITIALIZED
      000000                         72 _player_dy::
      000000                         73 	.ds 1
      000001                         74 _player_dx::
      000001                         75 	.ds 1
      000002                         76 _player_y::
      000002                         77 	.ds 1
      000003                         78 _player_x::
      000003                         79 	.ds 1
      000004                         80 _on_ground::
      000004                         81 	.ds 1
      000005                         82 _win::
      000005                         83 	.ds 1
      000006                         84 _lose::
      000006                         85 	.ds 1
      000007                         86 _prev_jpad::
      000007                         87 	.ds 1
      000008                         88 _jpad::
      000008                         89 	.ds 1
      000009                         90 _tick::
      000009                         91 	.ds 1
      00000A                         92 _background_x_shift::
      00000A                         93 	.ds 2
      00000C                         94 _old_background_x_shift::
      00000C                         95 	.ds 2
      00000E                         96 _game_title::
      00000E                         97 	.ds 16
                                     98 ;--------------------------------------------------------
                                     99 ; absolute external ram data
                                    100 ;--------------------------------------------------------
                                    101 	.area _DABS (ABS)
                                    102 ;--------------------------------------------------------
                                    103 ; global & static initialisations
                                    104 ;--------------------------------------------------------
                                    105 	.area _HOME
                                    106 	.area _GSINIT
                                    107 	.area _GSFINAL
                                    108 	.area _GSINIT
                                    109 ;--------------------------------------------------------
                                    110 ; Home
                                    111 ;--------------------------------------------------------
                                    112 	.area _HOME
                                    113 	.area _HOME
                                    114 ;--------------------------------------------------------
                                    115 ; code
                                    116 ;--------------------------------------------------------
                                    117 	.area _CODE
                                    118 ;geometry_boy.c:94: void scroll_bkg_x(uint8_t x_shift, char* map, uint16_t map_width){
                                    119 ;	---------------------------------
                                    120 ; Function scroll_bkg_x
                                    121 ; ---------------------------------
      000000                        122 _scroll_bkg_x::
                                    123 ;geometry_boy.c:95: scroll_bkg(x_shift, 0);
      000000 F8 02                  124 	ldhl	sp,	#2
      000002 4E                     125 	ld	c, (hl)
                                    126 ;../gbdk/include/gb/gb.h:1023: SCX_REG+=x, SCY_REG+=y;
      000003 F0r00                  127 	ldh	a, (_SCX_REG + 0)
      000005 81                     128 	add	a, c
      000006 E0r00                  129 	ldh	(_SCX_REG + 0), a
                                    130 ;geometry_boy.c:96: background_x_shift = (background_x_shift + x_shift);
      000008 4E                     131 	ld	c, (hl)
      000009 06 00                  132 	ld	b, #0x00
      00000B 21r0Ar00               133 	ld	hl, #_background_x_shift
      00000E 6E                     134 	ld	l, (hl)
                                    135 ;	spillPairReg hl
                                    136 ;	spillPairReg hl
      00000F FAr0Br00               137 	ld	a, (_background_x_shift + 1)
      000012 67                     138 	ld	h, a
                                    139 ;	spillPairReg hl
                                    140 ;	spillPairReg hl
      000013 09                     141 	add	hl, bc
      000014 4D                     142 	ld	c, l
      000015 7C                     143 	ld	a, h
      000016 21r0Ar00               144 	ld	hl, #_background_x_shift
      000019 71                     145 	ld	(hl), c
      00001A 23                     146 	inc	hl
      00001B 77                     147 	ld	(hl), a
                                    148 ;geometry_boy.c:98: if (background_x_shift >= old_background_x_shift){
      00001C 11r0Ar00               149 	ld	de, #_background_x_shift
      00001F 21r0Cr00               150 	ld	hl, #_old_background_x_shift
      000022 1A                     151 	ld	a, (de)
      000023 13                     152 	inc	de
      000024 96                     153 	sub	a, (hl)
      000025 23                     154 	inc	hl
      000026 1A                     155 	ld	a, (de)
      000027 9E                     156 	sbc	a, (hl)
      000028 D8                     157 	ret	C
                                    158 ;geometry_boy.c:99: old_background_x_shift = (background_x_shift/8)*8 + 8;
      000029 21r0Ar00               159 	ld	hl, #_background_x_shift
      00002C 2A                     160 	ld	a, (hl+)
      00002D 5F                     161 	ld	e, a
      00002E 56                     162 	ld	d, (hl)
      00002F CB 3A                  163 	srl	d
      000031 CB 1B                  164 	rr	e
      000033 CB 3A                  165 	srl	d
      000035 CB 1B                  166 	rr	e
      000037 CB 3A                  167 	srl	d
      000039 CB 1B                  168 	rr	e
      00003B 6B                     169 	ld	l, e
      00003C 62                     170 	ld	h, d
      00003D 29                     171 	add	hl, hl
      00003E 29                     172 	add	hl, hl
      00003F 29                     173 	add	hl, hl
      000040 01 08 00               174 	ld	bc, #0x0008
      000043 09                     175 	add	hl, bc
      000044 7D                     176 	ld	a, l
      000045 EAr0Cr00               177 	ld	(_old_background_x_shift), a
      000048 7C                     178 	ld	a, h
      000049 EAr0Dr00               179 	ld	(_old_background_x_shift + 1), a
                                    180 ;geometry_boy.c:101: count = background_x_shift/8 - 1;
      00004C 1B                     181 	dec	de
      00004D 21r02r00               182 	ld	hl, #_count
      000050 7B                     183 	ld	a, e
      000051 22                     184 	ld	(hl+), a
                                    185 ;geometry_boy.c:102: count = (count + 32)%map_width;
      000052 7A                     186 	ld	a, d
      000053 32                     187 	ld	(hl-), a
      000054 2A                     188 	ld	a, (hl+)
      000055 46                     189 	ld	b, (hl)
      000056 C6 20                  190 	add	a, #0x20
      000058 4F                     191 	ld	c, a
      000059 30 01                  192 	jr	NC, 00119$
      00005B 04                     193 	inc	b
      00005C                        194 00119$:
      00005C F8 05                  195 	ldhl	sp,	#5
      00005E 2A                     196 	ld	a, (hl+)
      00005F 5F                     197 	ld	e, a
      000060 56                     198 	ld	d, (hl)
      000061 D5                     199 	push	de
      000062 C5                     200 	push	bc
      000063 CDr00r00               201 	call	__moduint
      000066 E8 04                  202 	add	sp, #4
      000068 21r02r00               203 	ld	hl, #_count
      00006B 7B                     204 	ld	a, e
      00006C 22                     205 	ld	(hl+), a
      00006D 72                     206 	ld	(hl), d
                                    207 ;geometry_boy.c:103: for (render_row = 0; render_row < 18; render_row++){
      00006E 21r01r00               208 	ld	hl, #_render_row
      000071 36 00                  209 	ld	(hl), #0x00
      000073                        210 00105$:
                                    211 ;geometry_boy.c:104: set_bkg_tiles((background_x_shift/8 - 1)%32, render_row, 1, 1, map + count);
      000073 F8 03                  212 	ldhl	sp,#3
      000075 2A                     213 	ld	a, (hl+)
      000076 5F                     214 	ld	e, a
      000077 56                     215 	ld	d, (hl)
      000078 21r02r00               216 	ld	hl, #_count
      00007B 2A                     217 	ld	a,	(hl+)
      00007C 66                     218 	ld	h, (hl)
      00007D 6F                     219 	ld	l, a
      00007E 19                     220 	add	hl, de
      00007F 4D                     221 	ld	c, l
      000080 44                     222 	ld	b, h
      000081 21r0Ar00               223 	ld	hl, #_background_x_shift
      000084 2A                     224 	ld	a, (hl+)
      000085 5F                     225 	ld	e, a
      000086 56                     226 	ld	d, (hl)
      000087 CB 3A                  227 	srl	d
      000089 CB 1B                  228 	rr	e
      00008B CB 3A                  229 	srl	d
      00008D CB 1B                  230 	rr	e
      00008F CB 3A                  231 	srl	d
      000091 CB 1B                  232 	rr	e
      000093 1B                     233 	dec	de
      000094 7B                     234 	ld	a, e
      000095 E6 1F                  235 	and	a, #0x1f
      000097 C5                     236 	push	bc
      000098 26 01                  237 	ld	h, #0x01
                                    238 ;	spillPairReg hl
                                    239 ;	spillPairReg hl
      00009A E5                     240 	push	hl
      00009B 33                     241 	inc	sp
      00009C 26 01                  242 	ld	h, #0x01
                                    243 ;	spillPairReg hl
                                    244 ;	spillPairReg hl
      00009E E5                     245 	push	hl
      00009F 33                     246 	inc	sp
      0000A0 21r01r00               247 	ld	hl, #_render_row
      0000A3 66                     248 	ld	h, (hl)
                                    249 ;	spillPairReg hl
                                    250 ;	spillPairReg hl
      0000A4 E5                     251 	push	hl
      0000A5 33                     252 	inc	sp
      0000A6 F5                     253 	push	af
      0000A7 33                     254 	inc	sp
      0000A8 CDr00r00               255 	call	_set_bkg_tiles
      0000AB E8 06                  256 	add	sp, #6
                                    257 ;geometry_boy.c:105: count += map_width;
      0000AD 21r02r00               258 	ld	hl, #_count
      0000B0 2A                     259 	ld	a, (hl+)
      0000B1 5F                     260 	ld	e, a
      0000B2 56                     261 	ld	d, (hl)
      0000B3 F8 05                  262 	ldhl	sp,	#5
      0000B5 2A                     263 	ld	a,	(hl+)
      0000B6 66                     264 	ld	h, (hl)
      0000B7 6F                     265 	ld	l, a
      0000B8 19                     266 	add	hl, de
      0000B9 5D                     267 	ld	e, l
      0000BA 54                     268 	ld	d, h
      0000BB 21r02r00               269 	ld	hl, #_count
      0000BE 7B                     270 	ld	a, e
      0000BF 22                     271 	ld	(hl+), a
      0000C0 72                     272 	ld	(hl), d
                                    273 ;geometry_boy.c:103: for (render_row = 0; render_row < 18; render_row++){
      0000C1 21r01r00               274 	ld	hl, #_render_row
      0000C4 34                     275 	inc	(hl)
      0000C5 7E                     276 	ld	a, (hl)
      0000C6 D6 12                  277 	sub	a, #0x12
      0000C8 38 A9                  278 	jr	C, 00105$
                                    279 ;geometry_boy.c:108: }
      0000CA C9                     280 	ret
      0000CB                        281 _player:
      0000CB 00                     282 	.db #0x00	; 0
      0000CC FF                     283 	.db #0xff	; 255
      0000CD 66                     284 	.db #0x66	; 102	'f'
      0000CE 99                     285 	.db #0x99	; 153
      0000CF 66                     286 	.db #0x66	; 102	'f'
      0000D0 99                     287 	.db #0x99	; 153
      0000D1 00                     288 	.db #0x00	; 0
      0000D2 FF                     289 	.db #0xff	; 255
      0000D3 00                     290 	.db #0x00	; 0
      0000D4 FF                     291 	.db #0xff	; 255
      0000D5 7E                     292 	.db #0x7e	; 126
      0000D6 81                     293 	.db #0x81	; 129
      0000D7 7E                     294 	.db #0x7e	; 126
      0000D8 81                     295 	.db #0x81	; 129
      0000D9 00                     296 	.db #0x00	; 0
      0000DA FF                     297 	.db #0xff	; 255
      0000DB                        298 _gb_tileset:
      0000DB 00                     299 	.db #0x00	; 0
      0000DC 00                     300 	.db #0x00	; 0
      0000DD 00                     301 	.db #0x00	; 0
      0000DE 00                     302 	.db #0x00	; 0
      0000DF 00                     303 	.db #0x00	; 0
      0000E0 00                     304 	.db #0x00	; 0
      0000E1 00                     305 	.db #0x00	; 0
      0000E2 00                     306 	.db #0x00	; 0
      0000E3 00                     307 	.db #0x00	; 0
      0000E4 00                     308 	.db #0x00	; 0
      0000E5 00                     309 	.db #0x00	; 0
      0000E6 00                     310 	.db #0x00	; 0
      0000E7 00                     311 	.db #0x00	; 0
      0000E8 00                     312 	.db #0x00	; 0
      0000E9 00                     313 	.db #0x00	; 0
      0000EA 00                     314 	.db #0x00	; 0
      0000EB FF                     315 	.db #0xff	; 255
      0000EC 00                     316 	.db #0x00	; 0
      0000ED FF                     317 	.db #0xff	; 255
      0000EE 00                     318 	.db #0x00	; 0
      0000EF FF                     319 	.db #0xff	; 255
      0000F0 00                     320 	.db #0x00	; 0
      0000F1 FF                     321 	.db #0xff	; 255
      0000F2 00                     322 	.db #0x00	; 0
      0000F3 FF                     323 	.db #0xff	; 255
      0000F4 00                     324 	.db #0x00	; 0
      0000F5 FF                     325 	.db #0xff	; 255
      0000F6 00                     326 	.db #0x00	; 0
      0000F7 FF                     327 	.db #0xff	; 255
      0000F8 00                     328 	.db #0x00	; 0
      0000F9 FF                     329 	.db #0xff	; 255
      0000FA 00                     330 	.db #0x00	; 0
      0000FB 00                     331 	.db #0x00	; 0
      0000FC FF                     332 	.db #0xff	; 255
      0000FD 00                     333 	.db #0x00	; 0
      0000FE FF                     334 	.db #0xff	; 255
      0000FF 00                     335 	.db #0x00	; 0
      000100 FF                     336 	.db #0xff	; 255
      000101 00                     337 	.db #0x00	; 0
      000102 FF                     338 	.db #0xff	; 255
      000103 00                     339 	.db #0x00	; 0
      000104 FF                     340 	.db #0xff	; 255
      000105 00                     341 	.db #0x00	; 0
      000106 FF                     342 	.db #0xff	; 255
      000107 00                     343 	.db #0x00	; 0
      000108 FF                     344 	.db #0xff	; 255
      000109 00                     345 	.db #0x00	; 0
      00010A FF                     346 	.db #0xff	; 255
      00010B FF                     347 	.db #0xff	; 255
      00010C FF                     348 	.db #0xff	; 255
      00010D FF                     349 	.db #0xff	; 255
      00010E FF                     350 	.db #0xff	; 255
      00010F FF                     351 	.db #0xff	; 255
      000110 FF                     352 	.db #0xff	; 255
      000111 FF                     353 	.db #0xff	; 255
      000112 FF                     354 	.db #0xff	; 255
      000113 FF                     355 	.db #0xff	; 255
      000114 FF                     356 	.db #0xff	; 255
      000115 FF                     357 	.db #0xff	; 255
      000116 FF                     358 	.db #0xff	; 255
      000117 FF                     359 	.db #0xff	; 255
      000118 FF                     360 	.db #0xff	; 255
      000119 FF                     361 	.db #0xff	; 255
      00011A FF                     362 	.db #0xff	; 255
      00011B 18                     363 	.db #0x18	; 24
      00011C 18                     364 	.db #0x18	; 24
      00011D 18                     365 	.db #0x18	; 24
      00011E 18                     366 	.db #0x18	; 24
      00011F 3C                     367 	.db #0x3c	; 60
      000120 3C                     368 	.db #0x3c	; 60
      000121 3C                     369 	.db #0x3c	; 60
      000122 3C                     370 	.db #0x3c	; 60
      000123 7E                     371 	.db #0x7e	; 126
      000124 7E                     372 	.db #0x7e	; 126
      000125 7E                     373 	.db #0x7e	; 126
      000126 7E                     374 	.db #0x7e	; 126
      000127 FF                     375 	.db #0xff	; 255
      000128 FF                     376 	.db #0xff	; 255
      000129 FF                     377 	.db #0xff	; 255
      00012A FF                     378 	.db #0xff	; 255
      00012B FF                     379 	.db #0xff	; 255
      00012C 00                     380 	.db #0x00	; 0
      00012D FF                     381 	.db #0xff	; 255
      00012E 00                     382 	.db #0x00	; 0
      00012F FF                     383 	.db #0xff	; 255
      000130 00                     384 	.db #0x00	; 0
      000131 FF                     385 	.db #0xff	; 255
      000132 00                     386 	.db #0x00	; 0
      000133 FF                     387 	.db #0xff	; 255
      000134 18                     388 	.db #0x18	; 24
      000135 FF                     389 	.db #0xff	; 255
      000136 3C                     390 	.db #0x3c	; 60
      000137 FF                     391 	.db #0xff	; 255
      000138 7E                     392 	.db #0x7e	; 126
      000139 FF                     393 	.db #0xff	; 255
      00013A FF                     394 	.db #0xff	; 255
      00013B 00                     395 	.db #0x00	; 0
      00013C 00                     396 	.db #0x00	; 0
      00013D 00                     397 	.db #0x00	; 0
      00013E 00                     398 	.db #0x00	; 0
      00013F 00                     399 	.db #0x00	; 0
      000140 00                     400 	.db #0x00	; 0
      000141 00                     401 	.db #0x00	; 0
      000142 00                     402 	.db #0x00	; 0
      000143 00                     403 	.db #0x00	; 0
      000144 00                     404 	.db #0x00	; 0
      000145 00                     405 	.db #0x00	; 0
      000146 00                     406 	.db #0x00	; 0
      000147 00                     407 	.db #0x00	; 0
      000148 00                     408 	.db #0x00	; 0
      000149 00                     409 	.db #0x00	; 0
      00014A 00                     410 	.db #0x00	; 0
      00014B FF                     411 	.db #0xff	; 255
      00014C 00                     412 	.db #0x00	; 0
      00014D FF                     413 	.db #0xff	; 255
      00014E 00                     414 	.db #0x00	; 0
      00014F FF                     415 	.db #0xff	; 255
      000150 00                     416 	.db #0x00	; 0
      000151 FF                     417 	.db #0xff	; 255
      000152 00                     418 	.db #0x00	; 0
      000153 FF                     419 	.db #0xff	; 255
      000154 00                     420 	.db #0x00	; 0
      000155 FF                     421 	.db #0xff	; 255
      000156 00                     422 	.db #0x00	; 0
      000157 FF                     423 	.db #0xff	; 255
      000158 00                     424 	.db #0x00	; 0
      000159 FF                     425 	.db #0xff	; 255
      00015A 00                     426 	.db #0x00	; 0
      00015B 00                     427 	.db #0x00	; 0
      00015C FF                     428 	.db #0xff	; 255
      00015D 00                     429 	.db #0x00	; 0
      00015E FF                     430 	.db #0xff	; 255
      00015F 00                     431 	.db #0x00	; 0
      000160 FF                     432 	.db #0xff	; 255
      000161 00                     433 	.db #0x00	; 0
      000162 FF                     434 	.db #0xff	; 255
      000163 00                     435 	.db #0x00	; 0
      000164 FF                     436 	.db #0xff	; 255
      000165 00                     437 	.db #0x00	; 0
      000166 FF                     438 	.db #0xff	; 255
      000167 00                     439 	.db #0x00	; 0
      000168 FF                     440 	.db #0xff	; 255
      000169 00                     441 	.db #0x00	; 0
      00016A FF                     442 	.db #0xff	; 255
      00016B FF                     443 	.db #0xff	; 255
      00016C FF                     444 	.db #0xff	; 255
      00016D FF                     445 	.db #0xff	; 255
      00016E FF                     446 	.db #0xff	; 255
      00016F FF                     447 	.db #0xff	; 255
      000170 FF                     448 	.db #0xff	; 255
      000171 FF                     449 	.db #0xff	; 255
      000172 FF                     450 	.db #0xff	; 255
      000173 FF                     451 	.db #0xff	; 255
      000174 FF                     452 	.db #0xff	; 255
      000175 FF                     453 	.db #0xff	; 255
      000176 FF                     454 	.db #0xff	; 255
      000177 FF                     455 	.db #0xff	; 255
      000178 FF                     456 	.db #0xff	; 255
      000179 FF                     457 	.db #0xff	; 255
      00017A FF                     458 	.db #0xff	; 255
      00017B 00                     459 	.db #0x00	; 0
      00017C 00                     460 	.db #0x00	; 0
      00017D 00                     461 	.db #0x00	; 0
      00017E 00                     462 	.db #0x00	; 0
      00017F 18                     463 	.db #0x18	; 24
      000180 00                     464 	.db #0x00	; 0
      000181 24                     465 	.db #0x24	; 36
      000182 18                     466 	.db #0x18	; 24
      000183 24                     467 	.db #0x24	; 36
      000184 18                     468 	.db #0x18	; 24
      000185 18                     469 	.db #0x18	; 24
      000186 00                     470 	.db #0x00	; 0
      000187 00                     471 	.db #0x00	; 0
      000188 00                     472 	.db #0x00	; 0
      000189 00                     473 	.db #0x00	; 0
      00018A 00                     474 	.db #0x00	; 0
      00018B 00                     475 	.db #0x00	; 0
      00018C 00                     476 	.db #0x00	; 0
      00018D 00                     477 	.db #0x00	; 0
      00018E 00                     478 	.db #0x00	; 0
      00018F 00                     479 	.db #0x00	; 0
      000190 00                     480 	.db #0x00	; 0
      000191 00                     481 	.db #0x00	; 0
      000192 00                     482 	.db #0x00	; 0
      000193 00                     483 	.db #0x00	; 0
      000194 00                     484 	.db #0x00	; 0
      000195 00                     485 	.db #0x00	; 0
      000196 00                     486 	.db #0x00	; 0
      000197 7E                     487 	.db #0x7e	; 126
      000198 00                     488 	.db #0x00	; 0
      000199 00                     489 	.db #0x00	; 0
      00019A FF                     490 	.db #0xff	; 255
      00019B 00                     491 	.db #0x00	; 0
      00019C 00                     492 	.db #0x00	; 0
      00019D 00                     493 	.db #0x00	; 0
      00019E 00                     494 	.db #0x00	; 0
      00019F 00                     495 	.db #0x00	; 0
      0001A0 00                     496 	.db #0x00	; 0
      0001A1 00                     497 	.db #0x00	; 0
      0001A2 00                     498 	.db #0x00	; 0
      0001A3 FF                     499 	.db #0xff	; 255
      0001A4 FF                     500 	.db #0xff	; 255
      0001A5 FF                     501 	.db #0xff	; 255
      0001A6 FF                     502 	.db #0xff	; 255
      0001A7 FF                     503 	.db #0xff	; 255
      0001A8 FF                     504 	.db #0xff	; 255
      0001A9 FF                     505 	.db #0xff	; 255
      0001AA FF                     506 	.db #0xff	; 255
      0001AB                        507 _parallax_tileset:
      0001AB 00                     508 	.db #0x00	; 0
      0001AC 00                     509 	.db #0x00	; 0
      0001AD 00                     510 	.db #0x00	; 0
      0001AE 00                     511 	.db #0x00	; 0
      0001AF 00                     512 	.db #0x00	; 0
      0001B0 00                     513 	.db #0x00	; 0
      0001B1 00                     514 	.db #0x00	; 0
      0001B2 00                     515 	.db #0x00	; 0
      0001B3 00                     516 	.db #0x00	; 0
      0001B4 00                     517 	.db #0x00	; 0
      0001B5 00                     518 	.db #0x00	; 0
      0001B6 00                     519 	.db #0x00	; 0
      0001B7 00                     520 	.db #0x00	; 0
      0001B8 00                     521 	.db #0x00	; 0
      0001B9 00                     522 	.db #0x00	; 0
      0001BA 00                     523 	.db #0x00	; 0
      0001BB 01                     524 	.db #0x01	; 1
      0001BC 00                     525 	.db #0x00	; 0
      0001BD 01                     526 	.db #0x01	; 1
      0001BE 00                     527 	.db #0x00	; 0
      0001BF 01                     528 	.db #0x01	; 1
      0001C0 00                     529 	.db #0x00	; 0
      0001C1 01                     530 	.db #0x01	; 1
      0001C2 00                     531 	.db #0x00	; 0
      0001C3 01                     532 	.db #0x01	; 1
      0001C4 00                     533 	.db #0x00	; 0
      0001C5 01                     534 	.db #0x01	; 1
      0001C6 00                     535 	.db #0x00	; 0
      0001C7 01                     536 	.db #0x01	; 1
      0001C8 00                     537 	.db #0x00	; 0
      0001C9 01                     538 	.db #0x01	; 1
      0001CA 00                     539 	.db #0x00	; 0
      0001CB 03                     540 	.db #0x03	; 3
      0001CC 00                     541 	.db #0x00	; 0
      0001CD 03                     542 	.db #0x03	; 3
      0001CE 00                     543 	.db #0x00	; 0
      0001CF 03                     544 	.db #0x03	; 3
      0001D0 00                     545 	.db #0x00	; 0
      0001D1 03                     546 	.db #0x03	; 3
      0001D2 00                     547 	.db #0x00	; 0
      0001D3 03                     548 	.db #0x03	; 3
      0001D4 00                     549 	.db #0x00	; 0
      0001D5 03                     550 	.db #0x03	; 3
      0001D6 00                     551 	.db #0x00	; 0
      0001D7 03                     552 	.db #0x03	; 3
      0001D8 00                     553 	.db #0x00	; 0
      0001D9 03                     554 	.db #0x03	; 3
      0001DA 00                     555 	.db #0x00	; 0
      0001DB 07                     556 	.db #0x07	; 7
      0001DC 00                     557 	.db #0x00	; 0
      0001DD 07                     558 	.db #0x07	; 7
      0001DE 00                     559 	.db #0x00	; 0
      0001DF 07                     560 	.db #0x07	; 7
      0001E0 00                     561 	.db #0x00	; 0
      0001E1 07                     562 	.db #0x07	; 7
      0001E2 00                     563 	.db #0x00	; 0
      0001E3 07                     564 	.db #0x07	; 7
      0001E4 00                     565 	.db #0x00	; 0
      0001E5 07                     566 	.db #0x07	; 7
      0001E6 00                     567 	.db #0x00	; 0
      0001E7 07                     568 	.db #0x07	; 7
      0001E8 00                     569 	.db #0x00	; 0
      0001E9 07                     570 	.db #0x07	; 7
      0001EA 00                     571 	.db #0x00	; 0
      0001EB 0F                     572 	.db #0x0f	; 15
      0001EC 00                     573 	.db #0x00	; 0
      0001ED 0F                     574 	.db #0x0f	; 15
      0001EE 00                     575 	.db #0x00	; 0
      0001EF 0F                     576 	.db #0x0f	; 15
      0001F0 00                     577 	.db #0x00	; 0
      0001F1 0F                     578 	.db #0x0f	; 15
      0001F2 00                     579 	.db #0x00	; 0
      0001F3 0F                     580 	.db #0x0f	; 15
      0001F4 00                     581 	.db #0x00	; 0
      0001F5 0F                     582 	.db #0x0f	; 15
      0001F6 00                     583 	.db #0x00	; 0
      0001F7 0F                     584 	.db #0x0f	; 15
      0001F8 00                     585 	.db #0x00	; 0
      0001F9 0F                     586 	.db #0x0f	; 15
      0001FA 00                     587 	.db #0x00	; 0
      0001FB 1F                     588 	.db #0x1f	; 31
      0001FC 00                     589 	.db #0x00	; 0
      0001FD 1F                     590 	.db #0x1f	; 31
      0001FE 00                     591 	.db #0x00	; 0
      0001FF 1F                     592 	.db #0x1f	; 31
      000200 00                     593 	.db #0x00	; 0
      000201 1F                     594 	.db #0x1f	; 31
      000202 00                     595 	.db #0x00	; 0
      000203 1F                     596 	.db #0x1f	; 31
      000204 00                     597 	.db #0x00	; 0
      000205 1F                     598 	.db #0x1f	; 31
      000206 00                     599 	.db #0x00	; 0
      000207 1F                     600 	.db #0x1f	; 31
      000208 00                     601 	.db #0x00	; 0
      000209 1F                     602 	.db #0x1f	; 31
      00020A 00                     603 	.db #0x00	; 0
      00020B 3F                     604 	.db #0x3f	; 63
      00020C 00                     605 	.db #0x00	; 0
      00020D 3F                     606 	.db #0x3f	; 63
      00020E 00                     607 	.db #0x00	; 0
      00020F 3F                     608 	.db #0x3f	; 63
      000210 00                     609 	.db #0x00	; 0
      000211 3F                     610 	.db #0x3f	; 63
      000212 00                     611 	.db #0x00	; 0
      000213 3F                     612 	.db #0x3f	; 63
      000214 00                     613 	.db #0x00	; 0
      000215 3F                     614 	.db #0x3f	; 63
      000216 00                     615 	.db #0x00	; 0
      000217 3F                     616 	.db #0x3f	; 63
      000218 00                     617 	.db #0x00	; 0
      000219 3F                     618 	.db #0x3f	; 63
      00021A 00                     619 	.db #0x00	; 0
      00021B 7F                     620 	.db #0x7f	; 127
      00021C 00                     621 	.db #0x00	; 0
      00021D 7F                     622 	.db #0x7f	; 127
      00021E 00                     623 	.db #0x00	; 0
      00021F 7F                     624 	.db #0x7f	; 127
      000220 00                     625 	.db #0x00	; 0
      000221 7F                     626 	.db #0x7f	; 127
      000222 00                     627 	.db #0x00	; 0
      000223 7F                     628 	.db #0x7f	; 127
      000224 00                     629 	.db #0x00	; 0
      000225 7F                     630 	.db #0x7f	; 127
      000226 00                     631 	.db #0x00	; 0
      000227 7F                     632 	.db #0x7f	; 127
      000228 00                     633 	.db #0x00	; 0
      000229 7F                     634 	.db #0x7f	; 127
      00022A 00                     635 	.db #0x00	; 0
      00022B FF                     636 	.db #0xff	; 255
      00022C 00                     637 	.db #0x00	; 0
      00022D FF                     638 	.db #0xff	; 255
      00022E 00                     639 	.db #0x00	; 0
      00022F FF                     640 	.db #0xff	; 255
      000230 00                     641 	.db #0x00	; 0
      000231 FF                     642 	.db #0xff	; 255
      000232 00                     643 	.db #0x00	; 0
      000233 FF                     644 	.db #0xff	; 255
      000234 00                     645 	.db #0x00	; 0
      000235 FF                     646 	.db #0xff	; 255
      000236 00                     647 	.db #0x00	; 0
      000237 FF                     648 	.db #0xff	; 255
      000238 00                     649 	.db #0x00	; 0
      000239 FF                     650 	.db #0xff	; 255
      00023A 00                     651 	.db #0x00	; 0
      00023B FE                     652 	.db #0xfe	; 254
      00023C 00                     653 	.db #0x00	; 0
      00023D FE                     654 	.db #0xfe	; 254
      00023E 00                     655 	.db #0x00	; 0
      00023F FE                     656 	.db #0xfe	; 254
      000240 00                     657 	.db #0x00	; 0
      000241 FE                     658 	.db #0xfe	; 254
      000242 00                     659 	.db #0x00	; 0
      000243 FE                     660 	.db #0xfe	; 254
      000244 00                     661 	.db #0x00	; 0
      000245 FE                     662 	.db #0xfe	; 254
      000246 00                     663 	.db #0x00	; 0
      000247 FE                     664 	.db #0xfe	; 254
      000248 00                     665 	.db #0x00	; 0
      000249 FE                     666 	.db #0xfe	; 254
      00024A 00                     667 	.db #0x00	; 0
      00024B FC                     668 	.db #0xfc	; 252
      00024C 00                     669 	.db #0x00	; 0
      00024D FC                     670 	.db #0xfc	; 252
      00024E 00                     671 	.db #0x00	; 0
      00024F FC                     672 	.db #0xfc	; 252
      000250 00                     673 	.db #0x00	; 0
      000251 FC                     674 	.db #0xfc	; 252
      000252 00                     675 	.db #0x00	; 0
      000253 FC                     676 	.db #0xfc	; 252
      000254 00                     677 	.db #0x00	; 0
      000255 FC                     678 	.db #0xfc	; 252
      000256 00                     679 	.db #0x00	; 0
      000257 FC                     680 	.db #0xfc	; 252
      000258 00                     681 	.db #0x00	; 0
      000259 FC                     682 	.db #0xfc	; 252
      00025A 00                     683 	.db #0x00	; 0
      00025B F8                     684 	.db #0xf8	; 248
      00025C 00                     685 	.db #0x00	; 0
      00025D F8                     686 	.db #0xf8	; 248
      00025E 00                     687 	.db #0x00	; 0
      00025F F8                     688 	.db #0xf8	; 248
      000260 00                     689 	.db #0x00	; 0
      000261 F8                     690 	.db #0xf8	; 248
      000262 00                     691 	.db #0x00	; 0
      000263 F8                     692 	.db #0xf8	; 248
      000264 00                     693 	.db #0x00	; 0
      000265 F8                     694 	.db #0xf8	; 248
      000266 00                     695 	.db #0x00	; 0
      000267 F8                     696 	.db #0xf8	; 248
      000268 00                     697 	.db #0x00	; 0
      000269 F8                     698 	.db #0xf8	; 248
      00026A 00                     699 	.db #0x00	; 0
      00026B F0                     700 	.db #0xf0	; 240
      00026C 00                     701 	.db #0x00	; 0
      00026D F0                     702 	.db #0xf0	; 240
      00026E 00                     703 	.db #0x00	; 0
      00026F F0                     704 	.db #0xf0	; 240
      000270 00                     705 	.db #0x00	; 0
      000271 F0                     706 	.db #0xf0	; 240
      000272 00                     707 	.db #0x00	; 0
      000273 F0                     708 	.db #0xf0	; 240
      000274 00                     709 	.db #0x00	; 0
      000275 F0                     710 	.db #0xf0	; 240
      000276 00                     711 	.db #0x00	; 0
      000277 F0                     712 	.db #0xf0	; 240
      000278 00                     713 	.db #0x00	; 0
      000279 F0                     714 	.db #0xf0	; 240
      00027A 00                     715 	.db #0x00	; 0
      00027B E0                     716 	.db #0xe0	; 224
      00027C 00                     717 	.db #0x00	; 0
      00027D E0                     718 	.db #0xe0	; 224
      00027E 00                     719 	.db #0x00	; 0
      00027F E0                     720 	.db #0xe0	; 224
      000280 00                     721 	.db #0x00	; 0
      000281 E0                     722 	.db #0xe0	; 224
      000282 00                     723 	.db #0x00	; 0
      000283 E0                     724 	.db #0xe0	; 224
      000284 00                     725 	.db #0x00	; 0
      000285 E0                     726 	.db #0xe0	; 224
      000286 00                     727 	.db #0x00	; 0
      000287 E0                     728 	.db #0xe0	; 224
      000288 00                     729 	.db #0x00	; 0
      000289 E0                     730 	.db #0xe0	; 224
      00028A 00                     731 	.db #0x00	; 0
      00028B C0                     732 	.db #0xc0	; 192
      00028C 00                     733 	.db #0x00	; 0
      00028D C0                     734 	.db #0xc0	; 192
      00028E 00                     735 	.db #0x00	; 0
      00028F C0                     736 	.db #0xc0	; 192
      000290 00                     737 	.db #0x00	; 0
      000291 C0                     738 	.db #0xc0	; 192
      000292 00                     739 	.db #0x00	; 0
      000293 C0                     740 	.db #0xc0	; 192
      000294 00                     741 	.db #0x00	; 0
      000295 C0                     742 	.db #0xc0	; 192
      000296 00                     743 	.db #0x00	; 0
      000297 C0                     744 	.db #0xc0	; 192
      000298 00                     745 	.db #0x00	; 0
      000299 C0                     746 	.db #0xc0	; 192
      00029A 00                     747 	.db #0x00	; 0
      00029B 80                     748 	.db #0x80	; 128
      00029C 00                     749 	.db #0x00	; 0
      00029D 80                     750 	.db #0x80	; 128
      00029E 00                     751 	.db #0x00	; 0
      00029F 80                     752 	.db #0x80	; 128
      0002A0 00                     753 	.db #0x00	; 0
      0002A1 80                     754 	.db #0x80	; 128
      0002A2 00                     755 	.db #0x00	; 0
      0002A3 80                     756 	.db #0x80	; 128
      0002A4 00                     757 	.db #0x00	; 0
      0002A5 80                     758 	.db #0x80	; 128
      0002A6 00                     759 	.db #0x00	; 0
      0002A7 80                     760 	.db #0x80	; 128
      0002A8 00                     761 	.db #0x00	; 0
      0002A9 80                     762 	.db #0x80	; 128
      0002AA 00                     763 	.db #0x00	; 0
      0002AB                        764 _out_test:
      0002AB 00                     765 	.db #0x00	; 0
      0002AC 00                     766 	.db #0x00	; 0
      0002AD 10                     767 	.db #0x10	; 16
      0002AE 18                     768 	.db #0x18	; 24
      0002AF 1C                     769 	.db #0x1c	; 28
      0002B0 1E                     770 	.db #0x1e	; 30
      0002B1 16                     771 	.db #0x16	; 22
      0002B2 1E                     772 	.db #0x1e	; 30
      0002B3 12                     773 	.db #0x12	; 18
      0002B4 16                     774 	.db #0x16	; 22
      0002B5 32                     775 	.db #0x32	; 50	'2'
      0002B6 72                     776 	.db #0x72	; 114	'r'
      0002B7 66                     777 	.db #0x66	; 102	'f'
      0002B8 7E                     778 	.db #0x7e	; 126
      0002B9 0C                     779 	.db #0x0c	; 12
      0002BA 0E                     780 	.db #0x0e	; 14
      0002BB 00                     781 	.db #0x00	; 0
      0002BC 00                     782 	.db #0x00	; 0
      0002BD 38                     783 	.db #0x38	; 56	'8'
      0002BE 38                     784 	.db #0x38	; 56	'8'
      0002BF 24                     785 	.db #0x24	; 36
      0002C0 24                     786 	.db #0x24	; 36
      0002C1 32                     787 	.db #0x32	; 50	'2'
      0002C2 3A                     788 	.db #0x3a	; 58
      0002C3 19                     789 	.db #0x19	; 25
      0002C4 1D                     790 	.db #0x1d	; 29
      0002C5 32                     791 	.db #0x32	; 50	'2'
      0002C6 3A                     792 	.db #0x3a	; 58
      0002C7 24                     793 	.db #0x24	; 36
      0002C8 24                     794 	.db #0x24	; 36
      0002C9 38                     795 	.db #0x38	; 56	'8'
      0002CA 38                     796 	.db #0x38	; 56	'8'
      0002CB 00                     797 	.db #0x00	; 0
      0002CC 00                     798 	.db #0x00	; 0
      0002CD 00                     799 	.db #0x00	; 0
      0002CE 00                     800 	.db #0x00	; 0
      0002CF 00                     801 	.db #0x00	; 0
      0002D0 00                     802 	.db #0x00	; 0
      0002D1 00                     803 	.db #0x00	; 0
      0002D2 00                     804 	.db #0x00	; 0
      0002D3 00                     805 	.db #0x00	; 0
      0002D4 00                     806 	.db #0x00	; 0
      0002D5 00                     807 	.db #0x00	; 0
      0002D6 00                     808 	.db #0x00	; 0
      0002D7 00                     809 	.db #0x00	; 0
      0002D8 00                     810 	.db #0x00	; 0
      0002D9 00                     811 	.db #0x00	; 0
      0002DA 00                     812 	.db #0x00	; 0
      0002DB 1C                     813 	.db #0x1c	; 28
      0002DC 1C                     814 	.db #0x1c	; 28
      0002DD 62                     815 	.db #0x62	; 98	'b'
      0002DE 7E                     816 	.db #0x7e	; 126
      0002DF C2                     817 	.db #0xc2	; 194
      0002E0 F3                     818 	.db #0xf3	; 243
      0002E1 C2                     819 	.db #0xc2	; 194
      0002E2 E3                     820 	.db #0xe3	; 227
      0002E3 C6                     821 	.db #0xc6	; 198
      0002E4 E7                     822 	.db #0xe7	; 231
      0002E5 FE                     823 	.db #0xfe	; 254
      0002E6 FF                     824 	.db #0xff	; 255
      0002E7 7C                     825 	.db #0x7c	; 124
      0002E8 7F                     826 	.db #0x7f	; 127
      0002E9 00                     827 	.db #0x00	; 0
      0002EA 3E                     828 	.db #0x3e	; 62
      0002EB 0C                     829 	.db #0x0c	; 12
      0002EC 0C                     830 	.db #0x0c	; 12
      0002ED 5E                     831 	.db #0x5e	; 94
      0002EE 5E                     832 	.db #0x5e	; 94
      0002EF 6C                     833 	.db #0x6c	; 108	'l'
      0002F0 6F                     834 	.db #0x6f	; 111	'o'
      0002F1 0C                     835 	.db #0x0c	; 12
      0002F2 3E                     836 	.db #0x3e	; 62
      0002F3 18                     837 	.db #0x18	; 24
      0002F4 1E                     838 	.db #0x1e	; 30
      0002F5 38                     839 	.db #0x38	; 56	'8'
      0002F6 3C                     840 	.db #0x3c	; 60
      0002F7 38                     841 	.db #0x38	; 56	'8'
      0002F8 3C                     842 	.db #0x3c	; 60
      0002F9 00                     843 	.db #0x00	; 0
      0002FA 1C                     844 	.db #0x1c	; 28
      0002FB BC                     845 	.db #0xbc	; 188
      0002FC BC                     846 	.db #0xbc	; 188
      0002FD E6                     847 	.db #0xe6	; 230
      0002FE FE                     848 	.db #0xfe	; 254
      0002FF 46                     849 	.db #0x46	; 70	'F'
      000300 77                     850 	.db #0x77	; 119	'w'
      000301 0C                     851 	.db #0x0c	; 12
      000302 2F                     852 	.db #0x2f	; 47
      000303 70                     853 	.db #0x70	; 112	'p'
      000304 76                     854 	.db #0x76	; 118	'v'
      000305 CC                     855 	.db #0xcc	; 204
      000306 FC                     856 	.db #0xfc	; 252
      000307 FE                     857 	.db #0xfe	; 254
      000308 FE                     858 	.db #0xfe	; 254
      000309 00                     859 	.db #0x00	; 0
      00030A 7F                     860 	.db #0x7f	; 127
      00030B BC                     861 	.db #0xbc	; 188
      00030C BC                     862 	.db #0xbc	; 188
      00030D 66                     863 	.db #0x66	; 102	'f'
      00030E 7E                     864 	.db #0x7e	; 126
      00030F 0E                     865 	.db #0x0e	; 14
      000310 3F                     866 	.db #0x3f	; 63
      000311 04                     867 	.db #0x04	; 4
      000312 07                     868 	.db #0x07	; 7
      000313 86                     869 	.db #0x86	; 134
      000314 86                     870 	.db #0x86	; 134
      000315 FE                     871 	.db #0xfe	; 254
      000316 FF                     872 	.db #0xff	; 255
      000317 7C                     873 	.db #0x7c	; 124
      000318 7F                     874 	.db #0x7f	; 127
      000319 00                     875 	.db #0x00	; 0
      00031A 3E                     876 	.db #0x3e	; 62
      00031B 30                     877 	.db #0x30	; 48	'0'
      00031C 30                     878 	.db #0x30	; 48	'0'
      00031D 18                     879 	.db #0x18	; 24
      00031E 18                     880 	.db #0x18	; 24
      00031F 32                     881 	.db #0x32	; 50	'2'
      000320 3E                     882 	.db #0x3e	; 62
      000321 64                     883 	.db #0x64	; 100	'd'
      000322 7D                     884 	.db #0x7d	; 125
      000323 FE                     885 	.db #0xfe	; 254
      000324 FE                     886 	.db #0xfe	; 254
      000325 0C                     887 	.db #0x0c	; 12
      000326 7F                     888 	.db #0x7f	; 127
      000327 1C                     889 	.db #0x1c	; 28
      000328 1E                     890 	.db #0x1e	; 30
      000329 00                     891 	.db #0x00	; 0
      00032A 0E                     892 	.db #0x0e	; 14
      00032B 6C                     893 	.db #0x6c	; 108	'l'
      00032C 6C                     894 	.db #0x6c	; 108	'l'
      00032D 3E                     895 	.db #0x3e	; 62
      00032E 3E                     896 	.db #0x3e	; 62
      00032F 60                     897 	.db #0x60	; 96
      000330 7F                     898 	.db #0x7f	; 127
      000331 7C                     899 	.db #0x7c	; 124
      000332 7C                     900 	.db #0x7c	; 124
      000333 86                     901 	.db #0x86	; 134
      000334 BE                     902 	.db #0xbe	; 190
      000335 FE                     903 	.db #0xfe	; 254
      000336 FF                     904 	.db #0xff	; 255
      000337 7C                     905 	.db #0x7c	; 124
      000338 7F                     906 	.db #0x7f	; 127
      000339 00                     907 	.db #0x00	; 0
      00033A 3E                     908 	.db #0x3e	; 62
      00033B 3C                     909 	.db #0x3c	; 60
      00033C 3C                     910 	.db #0x3c	; 60
      00033D 72                     911 	.db #0x72	; 114	'r'
      00033E 7E                     912 	.db #0x7e	; 126
      00033F E0                     913 	.db #0xe0	; 224
      000340 F9                     914 	.db #0xf9	; 249
      000341 FC                     915 	.db #0xfc	; 252
      000342 FC                     916 	.db #0xfc	; 252
      000343 C6                     917 	.db #0xc6	; 198
      000344 FE                     918 	.db #0xfe	; 254
      000345 FE                     919 	.db #0xfe	; 254
      000346 FF                     920 	.db #0xff	; 255
      000347 7C                     921 	.db #0x7c	; 124
      000348 7F                     922 	.db #0x7f	; 127
      000349 00                     923 	.db #0x00	; 0
      00034A 3E                     924 	.db #0x3e	; 62
      00034B 7E                     925 	.db #0x7e	; 126
      00034C 7E                     926 	.db #0x7e	; 126
      00034D CE                     927 	.db #0xce	; 206
      00034E FF                     928 	.db #0xff	; 255
      00034F CC                     929 	.db #0xcc	; 204
      000350 EF                     930 	.db #0xef	; 239
      000351 18                     931 	.db #0x18	; 24
      000352 7E                     932 	.db #0x7e	; 126
      000353 38                     933 	.db #0x38	; 56	'8'
      000354 3C                     934 	.db #0x3c	; 60
      000355 38                     935 	.db #0x38	; 56	'8'
      000356 3C                     936 	.db #0x3c	; 60
      000357 30                     937 	.db #0x30	; 48	'0'
      000358 3C                     938 	.db #0x3c	; 60
      000359 00                     939 	.db #0x00	; 0
      00035A 18                     940 	.db #0x18	; 24
      00035B 3C                     941 	.db #0x3c	; 60
      00035C 3C                     942 	.db #0x3c	; 60
      00035D 66                     943 	.db #0x66	; 102	'f'
      00035E 7E                     944 	.db #0x7e	; 126
      00035F 3E                     945 	.db #0x3e	; 62
      000360 3F                     946 	.db #0x3f	; 63
      000361 7C                     947 	.db #0x7c	; 124
      000362 7F                     948 	.db #0x7f	; 127
      000363 C6                     949 	.db #0xc6	; 198
      000364 FE                     950 	.db #0xfe	; 254
      000365 FE                     951 	.db #0xfe	; 254
      000366 FF                     952 	.db #0xff	; 255
      000367 7C                     953 	.db #0x7c	; 124
      000368 7F                     954 	.db #0x7f	; 127
      000369 00                     955 	.db #0x00	; 0
      00036A 3E                     956 	.db #0x3e	; 62
      00036B 7C                     957 	.db #0x7c	; 124
      00036C 7C                     958 	.db #0x7c	; 124
      00036D E2                     959 	.db #0xe2	; 226
      00036E FE                     960 	.db #0xfe	; 254
      00036F E6                     961 	.db #0xe6	; 230
      000370 F7                     962 	.db #0xf7	; 247
      000371 7C                     963 	.db #0x7c	; 124
      000372 7F                     964 	.db #0x7f	; 127
      000373 0C                     965 	.db #0x0c	; 12
      000374 3E                     966 	.db #0x3e	; 62
      000375 1C                     967 	.db #0x1c	; 28
      000376 1E                     968 	.db #0x1e	; 30
      000377 18                     969 	.db #0x18	; 24
      000378 1E                     970 	.db #0x1e	; 30
      000379 00                     971 	.db #0x00	; 0
      00037A 0C                     972 	.db #0x0c	; 12
      00037B 18                     973 	.db #0x18	; 24
      00037C 18                     974 	.db #0x18	; 24
      00037D 08                     975 	.db #0x08	; 8
      00037E 0C                     976 	.db #0x0c	; 12
      00037F 2C                     977 	.db #0x2c	; 44
      000380 2C                     978 	.db #0x2c	; 44
      000381 6C                     979 	.db #0x6c	; 108	'l'
      000382 7E                     980 	.db #0x7e	; 126
      000383 7E                     981 	.db #0x7e	; 126
      000384 7E                     982 	.db #0x7e	; 126
      000385 CE                     983 	.db #0xce	; 206
      000386 FF                     984 	.db #0xff	; 255
      000387 C6                     985 	.db #0xc6	; 198
      000388 E7                     986 	.db #0xe7	; 231
      000389 00                     987 	.db #0x00	; 0
      00038A 63                     988 	.db #0x63	; 99	'c'
      00038B DC                     989 	.db #0xdc	; 220
      00038C DC                     990 	.db #0xdc	; 220
      00038D 66                     991 	.db #0x66	; 102	'f'
      00038E 7E                     992 	.db #0x7e	; 126
      00038F 66                     993 	.db #0x66	; 102	'f'
      000390 77                     994 	.db #0x77	; 119	'w'
      000391 7C                     995 	.db #0x7c	; 124
      000392 7F                     996 	.db #0x7f	; 127
      000393 E6                     997 	.db #0xe6	; 230
      000394 FE                     998 	.db #0xfe	; 254
      000395 E6                     999 	.db #0xe6	; 230
      000396 F7                    1000 	.db #0xf7	; 247
      000397 F8                    1001 	.db #0xf8	; 248
      000398 FF                    1002 	.db #0xff	; 255
      000399 00                    1003 	.db #0x00	; 0
      00039A 7C                    1004 	.db #0x7c	; 124
      00039B 1C                    1005 	.db #0x1c	; 28
      00039C 1C                    1006 	.db #0x1c	; 28
      00039D 66                    1007 	.db #0x66	; 102	'f'
      00039E 7E                    1008 	.db #0x7e	; 126
      00039F C0                    1009 	.db #0xc0	; 192
      0003A0 F3                    1010 	.db #0xf3	; 243
      0003A1 C6                    1011 	.db #0xc6	; 198
      0003A2 E6                    1012 	.db #0xe6	; 230
      0003A3 CE                    1013 	.db #0xce	; 206
      0003A4 EF                    1014 	.db #0xef	; 239
      0003A5 FE                    1015 	.db #0xfe	; 254
      0003A6 FF                    1016 	.db #0xff	; 255
      0003A7 7C                    1017 	.db #0x7c	; 124
      0003A8 7F                    1018 	.db #0x7f	; 127
      0003A9 00                    1019 	.db #0x00	; 0
      0003AA 3E                    1020 	.db #0x3e	; 62
      0003AB DC                    1021 	.db #0xdc	; 220
      0003AC DC                    1022 	.db #0xdc	; 220
      0003AD 62                    1023 	.db #0x62	; 98	'b'
      0003AE 7E                    1024 	.db #0x7e	; 126
      0003AF 62                    1025 	.db #0x62	; 98	'b'
      0003B0 73                    1026 	.db #0x73	; 115	's'
      0003B1 66                    1027 	.db #0x66	; 102	'f'
      0003B2 77                    1028 	.db #0x77	; 119	'w'
      0003B3 E6                    1029 	.db #0xe6	; 230
      0003B4 F7                    1030 	.db #0xf7	; 247
      0003B5 EE                    1031 	.db #0xee	; 238
      0003B6 FF                    1032 	.db #0xff	; 255
      0003B7 FC                    1033 	.db #0xfc	; 252
      0003B8 FF                    1034 	.db #0xff	; 255
      0003B9 00                    1035 	.db #0x00	; 0
      0003BA 7E                    1036 	.db #0x7e	; 126
      0003BB FC                    1037 	.db #0xfc	; 252
      0003BC FC                    1038 	.db #0xfc	; 252
      0003BD 62                    1039 	.db #0x62	; 98	'b'
      0003BE 7E                    1040 	.db #0x7e	; 126
      0003BF 78                    1041 	.db #0x78	; 120	'x'
      0003C0 79                    1042 	.db #0x79	; 121	'y'
      0003C1 60                    1043 	.db #0x60	; 96
      0003C2 7C                    1044 	.db #0x7c	; 124
      0003C3 CE                    1045 	.db #0xce	; 206
      0003C4 FE                    1046 	.db #0xfe	; 254
      0003C5 FE                    1047 	.db #0xfe	; 254
      0003C6 FF                    1048 	.db #0xff	; 255
      0003C7 F2                    1049 	.db #0xf2	; 242
      0003C8 FF                    1050 	.db #0xff	; 255
      0003C9 00                    1051 	.db #0x00	; 0
      0003CA 79                    1052 	.db #0x79	; 121	'y'
      0003CB FC                    1053 	.db #0xfc	; 252
      0003CC FC                    1054 	.db #0xfc	; 252
      0003CD 62                    1055 	.db #0x62	; 98	'b'
      0003CE 7E                    1056 	.db #0x7e	; 126
      0003CF 60                    1057 	.db #0x60	; 96
      0003D0 71                    1058 	.db #0x71	; 113	'q'
      0003D1 78                    1059 	.db #0x78	; 120	'x'
      0003D2 78                    1060 	.db #0x78	; 120	'x'
      0003D3 E0                    1061 	.db #0xe0	; 224
      0003D4 FC                    1062 	.db #0xfc	; 252
      0003D5 E0                    1063 	.db #0xe0	; 224
      0003D6 F0                    1064 	.db #0xf0	; 240
      0003D7 C0                    1065 	.db #0xc0	; 192
      0003D8 F0                    1066 	.db #0xf0	; 240
      0003D9 00                    1067 	.db #0x00	; 0
      0003DA 60                    1068 	.db #0x60	; 96
      0003DB 1C                    1069 	.db #0x1c	; 28
      0003DC 1C                    1070 	.db #0x1c	; 28
      0003DD 66                    1071 	.db #0x66	; 102	'f'
      0003DE 7E                    1072 	.db #0x7e	; 126
      0003DF C0                    1073 	.db #0xc0	; 192
      0003E0 F3                    1074 	.db #0xf3	; 243
      0003E1 DE                    1075 	.db #0xde	; 222
      0003E2 FE                    1076 	.db #0xfe	; 254
      0003E3 CE                    1077 	.db #0xce	; 206
      0003E4 EF                    1078 	.db #0xef	; 239
      0003E5 FE                    1079 	.db #0xfe	; 254
      0003E6 FF                    1080 	.db #0xff	; 255
      0003E7 74                    1081 	.db #0x74	; 116	't'
      0003E8 7F                    1082 	.db #0x7f	; 127
      0003E9 00                    1083 	.db #0x00	; 0
      0003EA 3A                    1084 	.db #0x3a	; 58
      0003EB CC                    1085 	.db #0xcc	; 204
      0003EC CC                    1086 	.db #0xcc	; 204
      0003ED 66                    1087 	.db #0x66	; 102	'f'
      0003EE 66                    1088 	.db #0x66	; 102	'f'
      0003EF 7E                    1089 	.db #0x7e	; 126
      0003F0 7F                    1090 	.db #0x7f	; 127
      0003F1 66                    1091 	.db #0x66	; 102	'f'
      0003F2 7F                    1092 	.db #0x7f	; 127
      0003F3 6E                    1093 	.db #0x6e	; 110	'n'
      0003F4 7F                    1094 	.db #0x7f	; 127
      0003F5 CE                    1095 	.db #0xce	; 206
      0003F6 FF                    1096 	.db #0xff	; 255
      0003F7 86                    1097 	.db #0x86	; 134
      0003F8 E7                    1098 	.db #0xe7	; 231
      0003F9 00                    1099 	.db #0x00	; 0
      0003FA 43                    1100 	.db #0x43	; 67	'C'
      0003FB 30                    1101 	.db #0x30	; 48	'0'
      0003FC 30                    1102 	.db #0x30	; 48	'0'
      0003FD 18                    1103 	.db #0x18	; 24
      0003FE 18                    1104 	.db #0x18	; 24
      0003FF 18                    1105 	.db #0x18	; 24
      000400 1C                    1106 	.db #0x1c	; 28
      000401 18                    1107 	.db #0x18	; 24
      000402 1C                    1108 	.db #0x1c	; 28
      000403 38                    1109 	.db #0x38	; 56	'8'
      000404 3C                    1110 	.db #0x3c	; 60
      000405 38                    1111 	.db #0x38	; 56	'8'
      000406 3C                    1112 	.db #0x3c	; 60
      000407 30                    1113 	.db #0x30	; 48	'0'
      000408 3C                    1114 	.db #0x3c	; 60
      000409 00                    1115 	.db #0x00	; 0
      00040A 18                    1116 	.db #0x18	; 24
      00040B 78                    1117 	.db #0x78	; 120	'x'
      00040C 78                    1118 	.db #0x78	; 120	'x'
      00040D 3C                    1119 	.db #0x3c	; 60
      00040E 3C                    1120 	.db #0x3c	; 60
      00040F 18                    1121 	.db #0x18	; 24
      000410 1E                    1122 	.db #0x1e	; 30
      000411 18                    1123 	.db #0x18	; 24
      000412 1C                    1124 	.db #0x1c	; 28
      000413 38                    1125 	.db #0x38	; 56	'8'
      000414 3C                    1126 	.db #0x3c	; 60
      000415 F8                    1127 	.db #0xf8	; 248
      000416 FC                    1128 	.db #0xfc	; 252
      000417 70                    1129 	.db #0x70	; 112	'p'
      000418 7C                    1130 	.db #0x7c	; 124
      000419 00                    1131 	.db #0x00	; 0
      00041A 38                    1132 	.db #0x38	; 56	'8'
      00041B E6                    1133 	.db #0xe6	; 230
      00041C E6                    1134 	.db #0xe6	; 230
      00041D 6E                    1135 	.db #0x6e	; 110	'n'
      00041E 7F                    1136 	.db #0x7f	; 127
      00041F 78                    1137 	.db #0x78	; 120	'x'
      000420 7F                    1138 	.db #0x7f	; 127
      000421 68                    1139 	.db #0x68	; 104	'h'
      000422 7C                    1140 	.db #0x7c	; 124
      000423 64                    1141 	.db #0x64	; 100	'd'
      000424 74                    1142 	.db #0x74	; 116	't'
      000425 C6                    1143 	.db #0xc6	; 198
      000426 F6                    1144 	.db #0xf6	; 246
      000427 86                    1145 	.db #0x86	; 134
      000428 E7                    1146 	.db #0xe7	; 231
      000429 00                    1147 	.db #0x00	; 0
      00042A 43                    1148 	.db #0x43	; 67	'C'
      00042B 60                    1149 	.db #0x60	; 96
      00042C 60                    1150 	.db #0x60	; 96
      00042D 30                    1151 	.db #0x30	; 48	'0'
      00042E 30                    1152 	.db #0x30	; 48	'0'
      00042F 30                    1153 	.db #0x30	; 48	'0'
      000430 38                    1154 	.db #0x38	; 56	'8'
      000431 60                    1155 	.db #0x60	; 96
      000432 78                    1156 	.db #0x78	; 120	'x'
      000433 60                    1157 	.db #0x60	; 96
      000434 70                    1158 	.db #0x70	; 112	'p'
      000435 FC                    1159 	.db #0xfc	; 252
      000436 FC                    1160 	.db #0xfc	; 252
      000437 8E                    1161 	.db #0x8e	; 142
      000438 FE                    1162 	.db #0xfe	; 254
      000439 00                    1163 	.db #0x00	; 0
      00043A 47                    1164 	.db #0x47	; 71	'G'
      00043B C4                    1165 	.db #0xc4	; 196
      00043C C4                    1166 	.db #0xc4	; 196
      00043D 46                    1167 	.db #0x46	; 70	'F'
      00043E 66                    1168 	.db #0x66	; 102	'f'
      00043F 6E                    1169 	.db #0x6e	; 110	'n'
      000440 6F                    1170 	.db #0x6f	; 111	'o'
      000441 FE                    1171 	.db #0xfe	; 254
      000442 FF                    1172 	.db #0xff	; 255
      000443 B6                    1173 	.db #0xb6	; 182
      000444 FF                    1174 	.db #0xff	; 255
      000445 B6                    1175 	.db #0xb6	; 182
      000446 FF                    1176 	.db #0xff	; 255
      000447 A4                    1177 	.db #0xa4	; 164
      000448 FF                    1178 	.db #0xff	; 255
      000449 00                    1179 	.db #0x00	; 0
      00044A 52                    1180 	.db #0x52	; 82	'R'
      00044B CC                    1181 	.db #0xcc	; 204
      00044C CC                    1182 	.db #0xcc	; 204
      00044D 66                    1183 	.db #0x66	; 102	'f'
      00044E 66                    1184 	.db #0x66	; 102	'f'
      00044F 76                    1185 	.db #0x76	; 118	'v'
      000450 77                    1186 	.db #0x77	; 119	'w'
      000451 6E                    1187 	.db #0x6e	; 110	'n'
      000452 7F                    1188 	.db #0x7f	; 127
      000453 6E                    1189 	.db #0x6e	; 110	'n'
      000454 7F                    1190 	.db #0x7f	; 127
      000455 CE                    1191 	.db #0xce	; 206
      000456 FF                    1192 	.db #0xff	; 255
      000457 86                    1193 	.db #0x86	; 134
      000458 E7                    1194 	.db #0xe7	; 231
      000459 00                    1195 	.db #0x00	; 0
      00045A 43                    1196 	.db #0x43	; 67	'C'
      00045B 1C                    1197 	.db #0x1c	; 28
      00045C 1C                    1198 	.db #0x1c	; 28
      00045D 66                    1199 	.db #0x66	; 102	'f'
      00045E 7E                    1200 	.db #0x7e	; 126
      00045F C6                    1201 	.db #0xc6	; 198
      000460 F7                    1202 	.db #0xf7	; 247
      000461 C6                    1203 	.db #0xc6	; 198
      000462 E7                    1204 	.db #0xe7	; 231
      000463 CE                    1205 	.db #0xce	; 206
      000464 EF                    1206 	.db #0xef	; 239
      000465 FE                    1207 	.db #0xfe	; 254
      000466 FF                    1208 	.db #0xff	; 255
      000467 7C                    1209 	.db #0x7c	; 124
      000468 7F                    1210 	.db #0x7f	; 127
      000469 00                    1211 	.db #0x00	; 0
      00046A 3E                    1212 	.db #0x3e	; 62
      00046B DC                    1213 	.db #0xdc	; 220
      00046C DC                    1214 	.db #0xdc	; 220
      00046D 66                    1215 	.db #0x66	; 102	'f'
      00046E 7E                    1216 	.db #0x7e	; 126
      00046F 66                    1217 	.db #0x66	; 102	'f'
      000470 77                    1218 	.db #0x77	; 119	'w'
      000471 7C                    1219 	.db #0x7c	; 124
      000472 7F                    1220 	.db #0x7f	; 127
      000473 E0                    1221 	.db #0xe0	; 224
      000474 FE                    1222 	.db #0xfe	; 254
      000475 E0                    1223 	.db #0xe0	; 224
      000476 F0                    1224 	.db #0xf0	; 240
      000477 C0                    1225 	.db #0xc0	; 192
      000478 F0                    1226 	.db #0xf0	; 240
      000479 00                    1227 	.db #0x00	; 0
      00047A 60                    1228 	.db #0x60	; 96
      00047B 1C                    1229 	.db #0x1c	; 28
      00047C 1C                    1230 	.db #0x1c	; 28
      00047D 66                    1231 	.db #0x66	; 102	'f'
      00047E 7E                    1232 	.db #0x7e	; 126
      00047F C6                    1233 	.db #0xc6	; 198
      000480 F7                    1234 	.db #0xf7	; 247
      000481 F6                    1235 	.db #0xf6	; 246
      000482 F7                    1236 	.db #0xf7	; 247
      000483 CC                    1237 	.db #0xcc	; 204
      000484 FF                    1238 	.db #0xff	; 255
      000485 FE                    1239 	.db #0xfe	; 254
      000486 FE                    1240 	.db #0xfe	; 254
      000487 76                    1241 	.db #0x76	; 118	'v'
      000488 7F                    1242 	.db #0x7f	; 127
      000489 00                    1243 	.db #0x00	; 0
      00048A 3B                    1244 	.db #0x3b	; 59
      00048B DC                    1245 	.db #0xdc	; 220
      00048C DC                    1246 	.db #0xdc	; 220
      00048D 66                    1247 	.db #0x66	; 102	'f'
      00048E 7E                    1248 	.db #0x7e	; 126
      00048F 66                    1249 	.db #0x66	; 102	'f'
      000490 77                    1250 	.db #0x77	; 119	'w'
      000491 78                    1251 	.db #0x78	; 120	'x'
      000492 7F                    1252 	.db #0x7f	; 127
      000493 EC                    1253 	.db #0xec	; 236
      000494 FC                    1254 	.db #0xfc	; 252
      000495 EE                    1255 	.db #0xee	; 238
      000496 FE                    1256 	.db #0xfe	; 254
      000497 C6                    1257 	.db #0xc6	; 198
      000498 F7                    1258 	.db #0xf7	; 247
      000499 00                    1259 	.db #0x00	; 0
      00049A 63                    1260 	.db #0x63	; 99	'c'
      00049B 3C                    1261 	.db #0x3c	; 60
      00049C 3C                    1262 	.db #0x3c	; 60
      00049D 66                    1263 	.db #0x66	; 102	'f'
      00049E 7E                    1264 	.db #0x7e	; 126
      00049F 30                    1265 	.db #0x30	; 48	'0'
      0004A0 33                    1266 	.db #0x33	; 51	'3'
      0004A1 0C                    1267 	.db #0x0c	; 12
      0004A2 1C                    1268 	.db #0x1c	; 28
      0004A3 C6                    1269 	.db #0xc6	; 198
      0004A4 CE                    1270 	.db #0xce	; 206
      0004A5 FE                    1271 	.db #0xfe	; 254
      0004A6 FF                    1272 	.db #0xff	; 255
      0004A7 7C                    1273 	.db #0x7c	; 124
      0004A8 7F                    1274 	.db #0x7f	; 127
      0004A9 00                    1275 	.db #0x00	; 0
      0004AA 3E                    1276 	.db #0x3e	; 62
      0004AB FC                    1277 	.db #0xfc	; 252
      0004AC FC                    1278 	.db #0xfc	; 252
      0004AD 7E                    1279 	.db #0x7e	; 126
      0004AE 7E                    1280 	.db #0x7e	; 126
      0004AF 10                    1281 	.db #0x10	; 16
      0004B0 3F                    1282 	.db #0x3f	; 63
      0004B1 30                    1283 	.db #0x30	; 48	'0'
      0004B2 38                    1284 	.db #0x38	; 56	'8'
      0004B3 70                    1285 	.db #0x70	; 112	'p'
      0004B4 78                    1286 	.db #0x78	; 120	'x'
      0004B5 70                    1287 	.db #0x70	; 112	'p'
      0004B6 78                    1288 	.db #0x78	; 120	'x'
      0004B7 60                    1289 	.db #0x60	; 96
      0004B8 78                    1290 	.db #0x78	; 120	'x'
      0004B9 00                    1291 	.db #0x00	; 0
      0004BA 30                    1292 	.db #0x30	; 48	'0'
      0004BB 24                    1293 	.db #0x24	; 36
      0004BC 24                    1294 	.db #0x24	; 36
      0004BD 66                    1295 	.db #0x66	; 102	'f'
      0004BE 76                    1296 	.db #0x76	; 118	'v'
      0004BF 4E                    1297 	.db #0x4e	; 78	'N'
      0004C0 7F                    1298 	.db #0x7f	; 127
      0004C1 CE                    1299 	.db #0xce	; 206
      0004C2 EF                    1300 	.db #0xef	; 239
      0004C3 DC                    1301 	.db #0xdc	; 220
      0004C4 FF                    1302 	.db #0xff	; 255
      0004C5 FC                    1303 	.db #0xfc	; 252
      0004C6 FE                    1304 	.db #0xfe	; 254
      0004C7 78                    1305 	.db #0x78	; 120	'x'
      0004C8 7E                    1306 	.db #0x7e	; 126
      0004C9 00                    1307 	.db #0x00	; 0
      0004CA 3C                    1308 	.db #0x3c	; 60
      0004CB 86                    1309 	.db #0x86	; 134
      0004CC 86                    1310 	.db #0x86	; 134
      0004CD CE                    1311 	.db #0xce	; 206
      0004CE CF                    1312 	.db #0xcf	; 207
      0004CF 5C                    1313 	.db #0x5c	; 92
      0004D0 7F                    1314 	.db #0x7f	; 127
      0004D1 78                    1315 	.db #0x78	; 120	'x'
      0004D2 7E                    1316 	.db #0x7e	; 126
      0004D3 78                    1317 	.db #0x78	; 120	'x'
      0004D4 7C                    1318 	.db #0x7c	; 124
      0004D5 30                    1319 	.db #0x30	; 48	'0'
      0004D6 3C                    1320 	.db #0x3c	; 60
      0004D7 20                    1321 	.db #0x20	; 32
      0004D8 38                    1322 	.db #0x38	; 56	'8'
      0004D9 00                    1323 	.db #0x00	; 0
      0004DA 10                    1324 	.db #0x10	; 16
      0004DB 92                    1325 	.db #0x92	; 146
      0004DC 92                    1326 	.db #0x92	; 146
      0004DD B6                    1327 	.db #0xb6	; 182
      0004DE FF                    1328 	.db #0xff	; 255
      0004DF B6                    1329 	.db #0xb6	; 182
      0004E0 FF                    1330 	.db #0xff	; 255
      0004E1 FE                    1331 	.db #0xfe	; 254
      0004E2 FF                    1332 	.db #0xff	; 255
      0004E3 FC                    1333 	.db #0xfc	; 252
      0004E4 FF                    1334 	.db #0xff	; 255
      0004E5 DC                    1335 	.db #0xdc	; 220
      0004E6 FE                    1336 	.db #0xfe	; 254
      0004E7 98                    1337 	.db #0x98	; 152
      0004E8 FE                    1338 	.db #0xfe	; 254
      0004E9 00                    1339 	.db #0x00	; 0
      0004EA 4C                    1340 	.db #0x4c	; 76	'L'
      0004EB CC                    1341 	.db #0xcc	; 204
      0004EC CC                    1342 	.db #0xcc	; 204
      0004ED EE                    1343 	.db #0xee	; 238
      0004EE EE                    1344 	.db #0xee	; 238
      0004EF 7C                    1345 	.db #0x7c	; 124
      0004F0 7F                    1346 	.db #0x7f	; 127
      0004F1 38                    1347 	.db #0x38	; 56	'8'
      0004F2 3E                    1348 	.db #0x3e	; 62
      0004F3 7C                    1349 	.db #0x7c	; 124
      0004F4 7C                    1350 	.db #0x7c	; 124
      0004F5 4E                    1351 	.db #0x4e	; 78	'N'
      0004F6 7E                    1352 	.db #0x7e	; 126
      0004F7 82                    1353 	.db #0x82	; 130
      0004F8 E7                    1354 	.db #0xe7	; 231
      0004F9 00                    1355 	.db #0x00	; 0
      0004FA 41                    1356 	.db #0x41	; 65	'A'
      0004FB C6                    1357 	.db #0xc6	; 198
      0004FC C6                    1358 	.db #0xc6	; 198
      0004FD 6E                    1359 	.db #0x6e	; 110	'n'
      0004FE 6F                    1360 	.db #0x6f	; 111	'o'
      0004FF 1C                    1361 	.db #0x1c	; 28
      000500 3F                    1362 	.db #0x3f	; 63
      000501 18                    1363 	.db #0x18	; 24
      000502 1E                    1364 	.db #0x1e	; 30
      000503 38                    1365 	.db #0x38	; 56	'8'
      000504 3C                    1366 	.db #0x3c	; 60
      000505 30                    1367 	.db #0x30	; 48	'0'
      000506 3C                    1368 	.db #0x3c	; 60
      000507 30                    1369 	.db #0x30	; 48	'0'
      000508 38                    1370 	.db #0x38	; 56	'8'
      000509 00                    1371 	.db #0x00	; 0
      00050A 18                    1372 	.db #0x18	; 24
      00050B 9C                    1373 	.db #0x9c	; 156
      00050C 9C                    1374 	.db #0x9c	; 156
      00050D FE                    1375 	.db #0xfe	; 254
      00050E FE                    1376 	.db #0xfe	; 254
      00050F 4C                    1377 	.db #0x4c	; 76	'L'
      000510 7F                    1378 	.db #0x7f	; 127
      000511 10                    1379 	.db #0x10	; 16
      000512 3E                    1380 	.db #0x3e	; 62
      000513 2C                    1381 	.db #0x2c	; 44
      000514 3C                    1382 	.db #0x3c	; 60
      000515 FE                    1383 	.db #0xfe	; 254
      000516 FE                    1384 	.db #0xfe	; 254
      000517 72                    1385 	.db #0x72	; 114	'r'
      000518 7F                    1386 	.db #0x7f	; 127
      000519 00                    1387 	.db #0x00	; 0
      00051A 39                    1388 	.db #0x39	; 57	'9'
      00051B 00                    1389 	.db #0x00	; 0
      00051C 00                    1390 	.db #0x00	; 0
      00051D 00                    1391 	.db #0x00	; 0
      00051E 00                    1392 	.db #0x00	; 0
      00051F 00                    1393 	.db #0x00	; 0
      000520 00                    1394 	.db #0x00	; 0
      000521 FC                    1395 	.db #0xfc	; 252
      000522 FC                    1396 	.db #0xfc	; 252
      000523 7E                    1397 	.db #0x7e	; 126
      000524 7E                    1398 	.db #0x7e	; 126
      000525 00                    1399 	.db #0x00	; 0
      000526 3F                    1400 	.db #0x3f	; 63
      000527 00                    1401 	.db #0x00	; 0
      000528 00                    1402 	.db #0x00	; 0
      000529 00                    1403 	.db #0x00	; 0
      00052A 00                    1404 	.db #0x00	; 0
      00052B 08                    1405 	.db #0x08	; 8
      00052C 08                    1406 	.db #0x08	; 8
      00052D 2E                    1407 	.db #0x2e	; 46
      00052E 2E                    1408 	.db #0x2e	; 46
      00052F 7C                    1409 	.db #0x7c	; 124
      000530 7F                    1410 	.db #0x7f	; 127
      000531 EE                    1411 	.db #0xee	; 238
      000532 FE                    1412 	.db #0xfe	; 254
      000533 7C                    1413 	.db #0x7c	; 124
      000534 7F                    1414 	.db #0x7f	; 127
      000535 EC                    1415 	.db #0xec	; 236
      000536 FE                    1416 	.db #0xfe	; 254
      000537 48                    1417 	.db #0x48	; 72	'H'
      000538 7E                    1418 	.db #0x7e	; 126
      000539 00                    1419 	.db #0x00	; 0
      00053A 24                    1420 	.db #0x24	; 36
      00053B 3C                    1421 	.db #0x3c	; 60
      00053C 3C                    1422 	.db #0x3c	; 60
      00053D 46                    1423 	.db #0x46	; 70	'F'
      00053E 5E                    1424 	.db #0x5e	; 94
      00053F 4E                    1425 	.db #0x4e	; 78	'N'
      000540 6F                    1426 	.db #0x6f	; 111	'o'
      000541 18                    1427 	.db #0x18	; 24
      000542 3F                    1428 	.db #0x3f	; 63
      000543 10                    1429 	.db #0x10	; 16
      000544 1C                    1430 	.db #0x1c	; 28
      000545 00                    1431 	.db #0x00	; 0
      000546 08                    1432 	.db #0x08	; 8
      000547 30                    1433 	.db #0x30	; 48	'0'
      000548 30                    1434 	.db #0x30	; 48	'0'
      000549 00                    1435 	.db #0x00	; 0
      00054A 18                    1436 	.db #0x18	; 24
      00054B 1C                    1437 	.db #0x1c	; 28
      00054C 1C                    1438 	.db #0x1c	; 28
      00054D 3C                    1439 	.db #0x3c	; 60
      00054E 3E                    1440 	.db #0x3e	; 62
      00054F 38                    1441 	.db #0x38	; 56	'8'
      000550 3E                    1442 	.db #0x3e	; 62
      000551 30                    1443 	.db #0x30	; 48	'0'
      000552 3C                    1444 	.db #0x3c	; 60
      000553 00                    1445 	.db #0x00	; 0
      000554 18                    1446 	.db #0x18	; 24
      000555 60                    1447 	.db #0x60	; 96
      000556 60                    1448 	.db #0x60	; 96
      000557 60                    1449 	.db #0x60	; 96
      000558 70                    1450 	.db #0x70	; 112	'p'
      000559 00                    1451 	.db #0x00	; 0
      00055A 30                    1452 	.db #0x30	; 48	'0'
      00055B 7C                    1453 	.db #0x7c	; 124
      00055C 7C                    1454 	.db #0x7c	; 124
      00055D C6                    1455 	.db #0xc6	; 198
      00055E FE                    1456 	.db #0xfe	; 254
      00055F BA                    1457 	.db #0xba	; 186
      000560 FF                    1458 	.db #0xff	; 255
      000561 A2                    1459 	.db #0xa2	; 162
      000562 FF                    1460 	.db #0xff	; 255
      000563 BA                    1461 	.db #0xba	; 186
      000564 FF                    1462 	.db #0xff	; 255
      000565 C6                    1463 	.db #0xc6	; 198
      000566 FF                    1464 	.db #0xff	; 255
      000567 7C                    1465 	.db #0x7c	; 124
      000568 7F                    1466 	.db #0x7f	; 127
      000569 00                    1467 	.db #0x00	; 0
      00056A 3E                    1468 	.db #0x3e	; 62
      00056B 6C                    1469 	.db #0x6c	; 108	'l'
      00056C 6C                    1470 	.db #0x6c	; 108	'l'
      00056D FE                    1471 	.db #0xfe	; 254
      00056E FE                    1472 	.db #0xfe	; 254
      00056F FE                    1473 	.db #0xfe	; 254
      000570 FF                    1474 	.db #0xff	; 255
      000571 FC                    1475 	.db #0xfc	; 252
      000572 FF                    1476 	.db #0xff	; 255
      000573 78                    1477 	.db #0x78	; 120	'x'
      000574 7E                    1478 	.db #0x7e	; 126
      000575 70                    1479 	.db #0x70	; 112	'p'
      000576 7C                    1480 	.db #0x7c	; 124
      000577 20                    1481 	.db #0x20	; 32
      000578 38                    1482 	.db #0x38	; 56	'8'
      000579 00                    1483 	.db #0x00	; 0
      00057A 10                    1484 	.db #0x10	; 16
      00057B 00                    1485 	.db #0x00	; 0
      00057C 00                    1486 	.db #0x00	; 0
      00057D 00                    1487 	.db #0x00	; 0
      00057E 00                    1488 	.db #0x00	; 0
      00057F 00                    1489 	.db #0x00	; 0
      000580 00                    1490 	.db #0x00	; 0
      000581 30                    1491 	.db #0x30	; 48	'0'
      000582 30                    1492 	.db #0x30	; 48	'0'
      000583 18                    1493 	.db #0x18	; 24
      000584 18                    1494 	.db #0x18	; 24
      000585 18                    1495 	.db #0x18	; 24
      000586 1C                    1496 	.db #0x1c	; 28
      000587 10                    1497 	.db #0x10	; 16
      000588 1C                    1498 	.db #0x1c	; 28
      000589 00                    1499 	.db #0x00	; 0
      00058A 08                    1500 	.db #0x08	; 8
      00058B 00                    1501 	.db #0x00	; 0
      00058C 00                    1502 	.db #0x00	; 0
      00058D 00                    1503 	.db #0x00	; 0
      00058E 00                    1504 	.db #0x00	; 0
      00058F 00                    1505 	.db #0x00	; 0
      000590 00                    1506 	.db #0x00	; 0
      000591 00                    1507 	.db #0x00	; 0
      000592 00                    1508 	.db #0x00	; 0
      000593 00                    1509 	.db #0x00	; 0
      000594 00                    1510 	.db #0x00	; 0
      000595 30                    1511 	.db #0x30	; 48	'0'
      000596 30                    1512 	.db #0x30	; 48	'0'
      000597 30                    1513 	.db #0x30	; 48	'0'
      000598 38                    1514 	.db #0x38	; 56	'8'
      000599 00                    1515 	.db #0x00	; 0
      00059A 18                    1516 	.db #0x18	; 24
      00059B 30                    1517 	.db #0x30	; 48	'0'
      00059C 30                    1518 	.db #0x30	; 48	'0'
      00059D 18                    1519 	.db #0x18	; 24
      00059E 18                    1520 	.db #0x18	; 24
      00059F 00                    1521 	.db #0x00	; 0
      0005A0 0C                    1522 	.db #0x0c	; 12
      0005A1 00                    1523 	.db #0x00	; 0
      0005A2 00                    1524 	.db #0x00	; 0
      0005A3 30                    1525 	.db #0x30	; 48	'0'
      0005A4 30                    1526 	.db #0x30	; 48	'0'
      0005A5 18                    1527 	.db #0x18	; 24
      0005A6 18                    1528 	.db #0x18	; 24
      0005A7 00                    1529 	.db #0x00	; 0
      0005A8 0C                    1530 	.db #0x0c	; 12
      0005A9 00                    1531 	.db #0x00	; 0
      0005AA 00                    1532 	.db #0x00	; 0
      0005AB 00                    1533 	.db #0x00	; 0
      0005AC 00                    1534 	.db #0x00	; 0
      0005AD FC                    1535 	.db #0xfc	; 252
      0005AE FC                    1536 	.db #0xfc	; 252
      0005AF 7E                    1537 	.db #0x7e	; 126
      0005B0 7E                    1538 	.db #0x7e	; 126
      0005B1 00                    1539 	.db #0x00	; 0
      0005B2 3F                    1540 	.db #0x3f	; 63
      0005B3 FC                    1541 	.db #0xfc	; 252
      0005B4 FC                    1542 	.db #0xfc	; 252
      0005B5 7E                    1543 	.db #0x7e	; 126
      0005B6 7E                    1544 	.db #0x7e	; 126
      0005B7 00                    1545 	.db #0x00	; 0
      0005B8 3F                    1546 	.db #0x3f	; 63
      0005B9 00                    1547 	.db #0x00	; 0
      0005BA 00                    1548 	.db #0x00	; 0
      0005BB 00                    1549 	.db #0x00	; 0
      0005BC 00                    1550 	.db #0x00	; 0
      0005BD 81                    1551 	.db #0x81	; 129
      0005BE 81                    1552 	.db #0x81	; 129
      0005BF 41                    1553 	.db #0x41	; 65	'A'
      0005C0 41                    1554 	.db #0x41	; 65	'A'
      0005C1 21                    1555 	.db #0x21	; 33
      0005C2 21                    1556 	.db #0x21	; 33
      0005C3 11                    1557 	.db #0x11	; 17
      0005C4 11                    1558 	.db #0x11	; 17
      0005C5 09                    1559 	.db #0x09	; 9
      0005C6 09                    1560 	.db #0x09	; 9
      0005C7 05                    1561 	.db #0x05	; 5
      0005C8 05                    1562 	.db #0x05	; 5
      0005C9 03                    1563 	.db #0x03	; 3
      0005CA 03                    1564 	.db #0x03	; 3
      0005CB 00                    1565 	.db #0x00	; 0
      0005CC 00                    1566 	.db #0x00	; 0
      0005CD 03                    1567 	.db #0x03	; 3
      0005CE 03                    1568 	.db #0x03	; 3
      0005CF 05                    1569 	.db #0x05	; 5
      0005D0 05                    1570 	.db #0x05	; 5
      0005D1 09                    1571 	.db #0x09	; 9
      0005D2 09                    1572 	.db #0x09	; 9
      0005D3 11                    1573 	.db #0x11	; 17
      0005D4 11                    1574 	.db #0x11	; 17
      0005D5 21                    1575 	.db #0x21	; 33
      0005D6 21                    1576 	.db #0x21	; 33
      0005D7 41                    1577 	.db #0x41	; 65	'A'
      0005D8 41                    1578 	.db #0x41	; 65	'A'
      0005D9 81                    1579 	.db #0x81	; 129
      0005DA 81                    1580 	.db #0x81	; 129
      0005DB 00                    1581 	.db #0x00	; 0
      0005DC 60                    1582 	.db #0x60	; 96
      0005DD 00                    1583 	.db #0x00	; 0
      0005DE 30                    1584 	.db #0x30	; 48	'0'
      0005DF 00                    1585 	.db #0x00	; 0
      0005E0 30                    1586 	.db #0x30	; 48	'0'
      0005E1 00                    1587 	.db #0x00	; 0
      0005E2 60                    1588 	.db #0x60	; 96
      0005E3 00                    1589 	.db #0x00	; 0
      0005E4 60                    1590 	.db #0x60	; 96
      0005E5 00                    1591 	.db #0x00	; 0
      0005E6 FC                    1592 	.db #0xfc	; 252
      0005E7 00                    1593 	.db #0x00	; 0
      0005E8 8E                    1594 	.db #0x8e	; 142
      0005E9 00                    1595 	.db #0x00	; 0
      0005EA 00                    1596 	.db #0x00	; 0
      0005EB 00                    1597 	.db #0x00	; 0
      0005EC DC                    1598 	.db #0xdc	; 220
      0005ED 00                    1599 	.db #0x00	; 0
      0005EE 66                    1600 	.db #0x66	; 102	'f'
      0005EF 00                    1601 	.db #0x00	; 0
      0005F0 66                    1602 	.db #0x66	; 102	'f'
      0005F1 00                    1603 	.db #0x00	; 0
      0005F2 78                    1604 	.db #0x78	; 120	'x'
      0005F3 00                    1605 	.db #0x00	; 0
      0005F4 EC                    1606 	.db #0xec	; 236
      0005F5 00                    1607 	.db #0x00	; 0
      0005F6 EE                    1608 	.db #0xee	; 238
      0005F7 00                    1609 	.db #0x00	; 0
      0005F8 C6                    1610 	.db #0xc6	; 198
      0005F9 00                    1611 	.db #0x00	; 0
      0005FA 00                    1612 	.db #0x00	; 0
      0005FB 00                    1613 	.db #0x00	; 0
      0005FC 00                    1614 	.db #0x00	; 0
      0005FD 00                    1615 	.db #0x00	; 0
      0005FE 00                    1616 	.db #0x00	; 0
      0005FF 25                    1617 	.db #0x25	; 37
      000600 25                    1618 	.db #0x25	; 37
      000601 55                    1619 	.db #0x55	; 85	'U'
      000602 55                    1620 	.db #0x55	; 85	'U'
      000603 56                    1621 	.db #0x56	; 86	'V'
      000604 56                    1622 	.db #0x56	; 86	'V'
      000605 55                    1623 	.db #0x55	; 85	'U'
      000606 55                    1624 	.db #0x55	; 85	'U'
      000607 25                    1625 	.db #0x25	; 37
      000608 25                    1626 	.db #0x25	; 37
      000609 00                    1627 	.db #0x00	; 0
      00060A 00                    1628 	.db #0x00	; 0
      00060B 00                    1629 	.db #0x00	; 0
      00060C 00                    1630 	.db #0x00	; 0
      00060D 00                    1631 	.db #0x00	; 0
      00060E 00                    1632 	.db #0x00	; 0
      00060F 10                    1633 	.db #0x10	; 16
      000610 10                    1634 	.db #0x10	; 16
      000611 3E                    1635 	.db #0x3e	; 62
      000612 3E                    1636 	.db #0x3e	; 62
      000613 7E                    1637 	.db #0x7e	; 126
      000614 7E                    1638 	.db #0x7e	; 126
      000615 3E                    1639 	.db #0x3e	; 62
      000616 3E                    1640 	.db #0x3e	; 62
      000617 10                    1641 	.db #0x10	; 16
      000618 10                    1642 	.db #0x10	; 16
      000619 00                    1643 	.db #0x00	; 0
      00061A 00                    1644 	.db #0x00	; 0
      00061B 02                    1645 	.db #0x02	; 2
      00061C 02                    1646 	.db #0x02	; 2
      00061D 05                    1647 	.db #0x05	; 5
      00061E 07                    1648 	.db #0x07	; 7
      00061F 05                    1649 	.db #0x05	; 5
      000620 8D                    1650 	.db #0x8d	; 141
      000621 88                    1651 	.db #0x88	; 136
      000622 8D                    1652 	.db #0x8d	; 141
      000623 88                    1653 	.db #0x88	; 136
      000624 D8                    1654 	.db #0xd8	; 216
      000625 50                    1655 	.db #0x50	; 80	'P'
      000626 D8                    1656 	.db #0xd8	; 216
      000627 50                    1657 	.db #0x50	; 80	'P'
      000628 70                    1658 	.db #0x70	; 112	'p'
      000629 20                    1659 	.db #0x20	; 32
      00062A 20                    1660 	.db #0x20	; 32
      00062B 20                    1661 	.db #0x20	; 32
      00062C 20                    1662 	.db #0x20	; 32
      00062D 50                    1663 	.db #0x50	; 80	'P'
      00062E 70                    1664 	.db #0x70	; 112	'p'
      00062F 50                    1665 	.db #0x50	; 80	'P'
      000630 D8                    1666 	.db #0xd8	; 216
      000631 88                    1667 	.db #0x88	; 136
      000632 D8                    1668 	.db #0xd8	; 216
      000633 88                    1669 	.db #0x88	; 136
      000634 8D                    1670 	.db #0x8d	; 141
      000635 05                    1671 	.db #0x05	; 5
      000636 0D                    1672 	.db #0x0d	; 13
      000637 05                    1673 	.db #0x05	; 5
      000638 07                    1674 	.db #0x07	; 7
      000639 02                    1675 	.db #0x02	; 2
      00063A 02                    1676 	.db #0x02	; 2
      00063B 00                    1677 	.db #0x00	; 0
      00063C 00                    1678 	.db #0x00	; 0
      00063D 1F                    1679 	.db #0x1f	; 31
      00063E 1F                    1680 	.db #0x1f	; 31
      00063F 11                    1681 	.db #0x11	; 17
      000640 11                    1682 	.db #0x11	; 17
      000641 11                    1683 	.db #0x11	; 17
      000642 11                    1684 	.db #0x11	; 17
      000643 11                    1685 	.db #0x11	; 17
      000644 11                    1686 	.db #0x11	; 17
      000645 11                    1687 	.db #0x11	; 17
      000646 11                    1688 	.db #0x11	; 17
      000647 11                    1689 	.db #0x11	; 17
      000648 11                    1690 	.db #0x11	; 17
      000649 F1                    1691 	.db #0xf1	; 241
      00064A F1                    1692 	.db #0xf1	; 241
      00064B 00                    1693 	.db #0x00	; 0
      00064C 00                    1694 	.db #0x00	; 0
      00064D F1                    1695 	.db #0xf1	; 241
      00064E F1                    1696 	.db #0xf1	; 241
      00064F 11                    1697 	.db #0x11	; 17
      000650 11                    1698 	.db #0x11	; 17
      000651 11                    1699 	.db #0x11	; 17
      000652 11                    1700 	.db #0x11	; 17
      000653 11                    1701 	.db #0x11	; 17
      000654 11                    1702 	.db #0x11	; 17
      000655 11                    1703 	.db #0x11	; 17
      000656 11                    1704 	.db #0x11	; 17
      000657 11                    1705 	.db #0x11	; 17
      000658 11                    1706 	.db #0x11	; 17
      000659 1F                    1707 	.db #0x1f	; 31
      00065A 1F                    1708 	.db #0x1f	; 31
      00065B 20                    1709 	.db #0x20	; 32
      00065C 20                    1710 	.db #0x20	; 32
      00065D 30                    1711 	.db #0x30	; 48	'0'
      00065E 30                    1712 	.db #0x30	; 48	'0'
      00065F FC                    1713 	.db #0xfc	; 252
      000660 FC                    1714 	.db #0xfc	; 252
      000661 7E                    1715 	.db #0x7e	; 126
      000662 7E                    1716 	.db #0x7e	; 126
      000663 30                    1717 	.db #0x30	; 48	'0'
      000664 3F                    1718 	.db #0x3f	; 63
      000665 30                    1719 	.db #0x30	; 48	'0'
      000666 38                    1720 	.db #0x38	; 56	'8'
      000667 20                    1721 	.db #0x20	; 32
      000668 38                    1722 	.db #0x38	; 56	'8'
      000669 00                    1723 	.db #0x00	; 0
      00066A 10                    1724 	.db #0x10	; 16
      00066B 10                    1725 	.db #0x10	; 16
      00066C 10                    1726 	.db #0x10	; 16
      00066D 20                    1727 	.db #0x20	; 32
      00066E 28                    1728 	.db #0x28	; 40
      00066F 60                    1729 	.db #0x60	; 96
      000670 70                    1730 	.db #0x70	; 112	'p'
      000671 60                    1731 	.db #0x60	; 96
      000672 70                    1732 	.db #0x70	; 112	'p'
      000673 60                    1733 	.db #0x60	; 96
      000674 70                    1734 	.db #0x70	; 112	'p'
      000675 70                    1735 	.db #0x70	; 112	'p'
      000676 70                    1736 	.db #0x70	; 112	'p'
      000677 38                    1737 	.db #0x38	; 56	'8'
      000678 38                    1738 	.db #0x38	; 56	'8'
      000679 00                    1739 	.db #0x00	; 0
      00067A 1C                    1740 	.db #0x1c	; 28
      00067B 00                    1741 	.db #0x00	; 0
      00067C 00                    1742 	.db #0x00	; 0
      00067D E0                    1743 	.db #0xe0	; 224
      00067E E0                    1744 	.db #0xe0	; 224
      00067F A0                    1745 	.db #0xa0	; 160
      000680 A0                    1746 	.db #0xa0	; 160
      000681 A0                    1747 	.db #0xa0	; 160
      000682 A0                    1748 	.db #0xa0	; 160
      000683 A0                    1749 	.db #0xa0	; 160
      000684 A0                    1750 	.db #0xa0	; 160
      000685 A0                    1751 	.db #0xa0	; 160
      000686 A0                    1752 	.db #0xa0	; 160
      000687 A0                    1753 	.db #0xa0	; 160
      000688 A0                    1754 	.db #0xa0	; 160
      000689 BF                    1755 	.db #0xbf	; 191
      00068A BF                    1756 	.db #0xbf	; 191
      00068B 00                    1757 	.db #0x00	; 0
      00068C 00                    1758 	.db #0x00	; 0
      00068D F8                    1759 	.db #0xf8	; 248
      00068E F8                    1760 	.db #0xf8	; 248
      00068F 88                    1761 	.db #0x88	; 136
      000690 88                    1762 	.db #0x88	; 136
      000691 88                    1763 	.db #0x88	; 136
      000692 88                    1764 	.db #0x88	; 136
      000693 88                    1765 	.db #0x88	; 136
      000694 88                    1766 	.db #0x88	; 136
      000695 88                    1767 	.db #0x88	; 136
      000696 88                    1768 	.db #0x88	; 136
      000697 88                    1769 	.db #0x88	; 136
      000698 88                    1770 	.db #0x88	; 136
      000699 8F                    1771 	.db #0x8f	; 143
      00069A 8F                    1772 	.db #0x8f	; 143
      00069B 00                    1773 	.db #0x00	; 0
      00069C 00                    1774 	.db #0x00	; 0
      00069D FF                    1775 	.db #0xff	; 255
      00069E FF                    1776 	.db #0xff	; 255
      00069F 81                    1777 	.db #0x81	; 129
      0006A0 81                    1778 	.db #0x81	; 129
      0006A1 81                    1779 	.db #0x81	; 129
      0006A2 81                    1780 	.db #0x81	; 129
      0006A3 81                    1781 	.db #0x81	; 129
      0006A4 81                    1782 	.db #0x81	; 129
      0006A5 81                    1783 	.db #0x81	; 129
      0006A6 81                    1784 	.db #0x81	; 129
      0006A7 81                    1785 	.db #0x81	; 129
      0006A8 81                    1786 	.db #0x81	; 129
      0006A9 81                    1787 	.db #0x81	; 129
      0006AA 81                    1788 	.db #0x81	; 129
      0006AB 00                    1789 	.db #0x00	; 0
      0006AC 00                    1790 	.db #0x00	; 0
      0006AD 00                    1791 	.db #0x00	; 0
      0006AE 00                    1792 	.db #0x00	; 0
      0006AF 00                    1793 	.db #0x00	; 0
      0006B0 00                    1794 	.db #0x00	; 0
      0006B1 00                    1795 	.db #0x00	; 0
      0006B2 00                    1796 	.db #0x00	; 0
      0006B3 00                    1797 	.db #0x00	; 0
      0006B4 00                    1798 	.db #0x00	; 0
      0006B5 00                    1799 	.db #0x00	; 0
      0006B6 00                    1800 	.db #0x00	; 0
      0006B7 00                    1801 	.db #0x00	; 0
      0006B8 00                    1802 	.db #0x00	; 0
      0006B9 FF                    1803 	.db #0xff	; 255
      0006BA FF                    1804 	.db #0xff	; 255
      0006BB 00                    1805 	.db #0x00	; 0
      0006BC 00                    1806 	.db #0x00	; 0
      0006BD FF                    1807 	.db #0xff	; 255
      0006BE FF                    1808 	.db #0xff	; 255
      0006BF 80                    1809 	.db #0x80	; 128
      0006C0 80                    1810 	.db #0x80	; 128
      0006C1 80                    1811 	.db #0x80	; 128
      0006C2 80                    1812 	.db #0x80	; 128
      0006C3 80                    1813 	.db #0x80	; 128
      0006C4 80                    1814 	.db #0x80	; 128
      0006C5 80                    1815 	.db #0x80	; 128
      0006C6 80                    1816 	.db #0x80	; 128
      0006C7 80                    1817 	.db #0x80	; 128
      0006C8 80                    1818 	.db #0x80	; 128
      0006C9 80                    1819 	.db #0x80	; 128
      0006CA 80                    1820 	.db #0x80	; 128
      0006CB 00                    1821 	.db #0x00	; 0
      0006CC 00                    1822 	.db #0x00	; 0
      0006CD F0                    1823 	.db #0xf0	; 240
      0006CE F0                    1824 	.db #0xf0	; 240
      0006CF 10                    1825 	.db #0x10	; 16
      0006D0 10                    1826 	.db #0x10	; 16
      0006D1 10                    1827 	.db #0x10	; 16
      0006D2 10                    1828 	.db #0x10	; 16
      0006D3 10                    1829 	.db #0x10	; 16
      0006D4 10                    1830 	.db #0x10	; 16
      0006D5 10                    1831 	.db #0x10	; 16
      0006D6 10                    1832 	.db #0x10	; 16
      0006D7 10                    1833 	.db #0x10	; 16
      0006D8 10                    1834 	.db #0x10	; 16
      0006D9 1F                    1835 	.db #0x1f	; 31
      0006DA 1F                    1836 	.db #0x1f	; 31
      0006DB C2                    1837 	.db #0xc2	; 194
      0006DC C2                    1838 	.db #0xc2	; 194
      0006DD C4                    1839 	.db #0xc4	; 196
      0006DE E5                    1840 	.db #0xe5	; 229
      0006DF 0C                    1841 	.db #0x0c	; 12
      0006E0 6E                    1842 	.db #0x6e	; 110	'n'
      0006E1 38                    1843 	.db #0x38	; 56	'8'
      0006E2 3E                    1844 	.db #0x3e	; 62
      0006E3 70                    1845 	.db #0x70	; 112	'p'
      0006E4 7C                    1846 	.db #0x7c	; 124
      0006E5 E6                    1847 	.db #0xe6	; 230
      0006E6 FE                    1848 	.db #0xfe	; 254
      0006E7 C6                    1849 	.db #0xc6	; 198
      0006E8 F7                    1850 	.db #0xf7	; 247
      0006E9 00                    1851 	.db #0x00	; 0
      0006EA 63                    1852 	.db #0x63	; 99	'c'
      0006EB 38                    1853 	.db #0x38	; 56	'8'
      0006EC 38                    1854 	.db #0x38	; 56	'8'
      0006ED 1C                    1855 	.db #0x1c	; 28
      0006EE 1C                    1856 	.db #0x1c	; 28
      0006EF 0C                    1857 	.db #0x0c	; 12
      0006F0 0E                    1858 	.db #0x0e	; 14
      0006F1 0C                    1859 	.db #0x0c	; 12
      0006F2 0E                    1860 	.db #0x0e	; 14
      0006F3 0C                    1861 	.db #0x0c	; 12
      0006F4 0E                    1862 	.db #0x0e	; 14
      0006F5 08                    1863 	.db #0x08	; 8
      0006F6 0E                    1864 	.db #0x0e	; 14
      0006F7 10                    1865 	.db #0x10	; 16
      0006F8 14                    1866 	.db #0x14	; 20
      0006F9 00                    1867 	.db #0x00	; 0
      0006FA 08                    1868 	.db #0x08	; 8
      0006FB 30                    1869 	.db #0x30	; 48	'0'
      0006FC 30                    1870 	.db #0x30	; 48	'0'
      0006FD 18                    1871 	.db #0x18	; 24
      0006FE 18                    1872 	.db #0x18	; 24
      0006FF 00                    1873 	.db #0x00	; 0
      000700 0C                    1874 	.db #0x0c	; 12
      000701 30                    1875 	.db #0x30	; 48	'0'
      000702 30                    1876 	.db #0x30	; 48	'0'
      000703 18                    1877 	.db #0x18	; 24
      000704 18                    1878 	.db #0x18	; 24
      000705 18                    1879 	.db #0x18	; 24
      000706 1C                    1880 	.db #0x1c	; 28
      000707 10                    1881 	.db #0x10	; 16
      000708 1C                    1882 	.db #0x1c	; 28
      000709 00                    1883 	.db #0x00	; 0
      00070A 08                    1884 	.db #0x08	; 8
      00070B 06                    1885 	.db #0x06	; 6
      00070C 06                    1886 	.db #0x06	; 6
      00070D 0E                    1887 	.db #0x0e	; 14
      00070E 0F                    1888 	.db #0x0f	; 15
      00070F 0C                    1889 	.db #0x0c	; 12
      000710 0F                    1890 	.db #0x0f	; 15
      000711 18                    1891 	.db #0x18	; 24
      000712 1E                    1892 	.db #0x1e	; 30
      000713 30                    1893 	.db #0x30	; 48	'0'
      000714 3C                    1894 	.db #0x3c	; 60
      000715 20                    1895 	.db #0x20	; 32
      000716 38                    1896 	.db #0x38	; 56	'8'
      000717 40                    1897 	.db #0x40	; 64
      000718 50                    1898 	.db #0x50	; 80	'P'
      000719 00                    1899 	.db #0x00	; 0
      00071A 20                    1900 	.db #0x20	; 32
      00071B 00                    1901 	.db #0x00	; 0
      00071C 00                    1902 	.db #0x00	; 0
      00071D 00                    1903 	.db #0x00	; 0
      00071E 00                    1904 	.db #0x00	; 0
      00071F 00                    1905 	.db #0x00	; 0
      000720 00                    1906 	.db #0x00	; 0
      000721 00                    1907 	.db #0x00	; 0
      000722 00                    1908 	.db #0x00	; 0
      000723 00                    1909 	.db #0x00	; 0
      000724 00                    1910 	.db #0x00	; 0
      000725 00                    1911 	.db #0x00	; 0
      000726 00                    1912 	.db #0x00	; 0
      000727 00                    1913 	.db #0x00	; 0
      000728 00                    1914 	.db #0x00	; 0
      000729 00                    1915 	.db #0x00	; 0
      00072A 00                    1916 	.db #0x00	; 0
                                   1917 ;geometry_boy.c:110: void init_background(char * map, uint16_t map_width){
                                   1918 ;	---------------------------------
                                   1919 ; Function init_background
                                   1920 ; ---------------------------------
      00072B                       1921 _init_background::
                                   1922 ;geometry_boy.c:111: count = 0;
      00072B AF                    1923 	xor	a, a
      00072C 21r02r00              1924 	ld	hl, #_count
      00072F 22                    1925 	ld	(hl+), a
      000730 77                    1926 	ld	(hl), a
                                   1927 ;geometry_boy.c:112: for (render_row = 0; render_row < 18; render_row++){
      000731 21r01r00              1928 	ld	hl, #_render_row
      000734 36 00                 1929 	ld	(hl), #0x00
      000736                       1930 00102$:
                                   1931 ;geometry_boy.c:113: set_bkg_tiles(0, render_row, 32, 1, map + count);
      000736 F8 02                 1932 	ldhl	sp,#2
      000738 2A                    1933 	ld	a, (hl+)
      000739 5F                    1934 	ld	e, a
      00073A 56                    1935 	ld	d, (hl)
      00073B 21r02r00              1936 	ld	hl, #_count
      00073E 2A                    1937 	ld	a,	(hl+)
      00073F 66                    1938 	ld	h, (hl)
      000740 6F                    1939 	ld	l, a
      000741 19                    1940 	add	hl, de
      000742 E5                    1941 	push	hl
      000743 21 20 01              1942 	ld	hl, #0x120
      000746 E5                    1943 	push	hl
      000747 FAr01r00              1944 	ld	a, (#_render_row)
      00074A 67                    1945 	ld	h, a
      00074B 2E 00                 1946 	ld	l, #0x00
      00074D E5                    1947 	push	hl
      00074E CDr00r00              1948 	call	_set_bkg_tiles
      000751 E8 06                 1949 	add	sp, #6
                                   1950 ;geometry_boy.c:114: count += map_width;
      000753 21r02r00              1951 	ld	hl, #_count
      000756 2A                    1952 	ld	a, (hl+)
      000757 5F                    1953 	ld	e, a
      000758 56                    1954 	ld	d, (hl)
      000759 F8 04                 1955 	ldhl	sp,	#4
      00075B 2A                    1956 	ld	a,	(hl+)
      00075C 66                    1957 	ld	h, (hl)
      00075D 6F                    1958 	ld	l, a
      00075E 19                    1959 	add	hl, de
      00075F 5D                    1960 	ld	e, l
      000760 54                    1961 	ld	d, h
      000761 21r02r00              1962 	ld	hl, #_count
      000764 7B                    1963 	ld	a, e
      000765 22                    1964 	ld	(hl+), a
      000766 72                    1965 	ld	(hl), d
                                   1966 ;geometry_boy.c:112: for (render_row = 0; render_row < 18; render_row++){
      000767 21r01r00              1967 	ld	hl, #_render_row
      00076A 34                    1968 	inc	(hl)
      00076B 7E                    1969 	ld	a, (hl)
      00076C D6 12                 1970 	sub	a, #0x12
      00076E 38 C6                 1971 	jr	C, 00102$
                                   1972 ;geometry_boy.c:116: }
      000770 C9                    1973 	ret
                                   1974 ;geometry_boy.c:118: uint8_t x_px_to_tile_ind(uint8_t x_px){
                                   1975 ;	---------------------------------
                                   1976 ; Function x_px_to_tile_ind
                                   1977 ; ---------------------------------
      000771                       1978 _x_px_to_tile_ind::
      000771 E8 FC                 1979 	add	sp, #-4
                                   1980 ;geometry_boy.c:119: return (x_px - XOFF) / 8;
      000773 F8 06                 1981 	ldhl	sp,	#6
      000775 7E                    1982 	ld	a, (hl)
      000776 F8 00                 1983 	ldhl	sp,	#0
      000778 22                    1984 	ld	(hl+), a
      000779 36 00                 1985 	ld	(hl), #0x00
      00077B D1                    1986 	pop	de
      00077C D5                    1987 	push	de
      00077D 21 08 00              1988 	ld	hl, #0x0008
      000780 7B                    1989 	ld	a, e
      000781 95                    1990 	sub	a, l
      000782 5F                    1991 	ld	e, a
      000783 7A                    1992 	ld	a, d
      000784 9C                    1993 	sbc	a, h
      000785 F8 03                 1994 	ldhl	sp,	#3
      000787 32                    1995 	ld	(hl-), a
      000788 73                    1996 	ld	(hl), e
      000789 2A                    1997 	ld	a, (hl+)
      00078A 4F                    1998 	ld	c, a
      00078B 46                    1999 	ld	b, (hl)
      00078C CB 7E                 2000 	bit	7, (hl)
      00078E 28 08                 2001 	jr	Z, 00103$
      000790 D1                    2002 	pop	de
      000791 D5                    2003 	push	de
      000792 21 FF FF              2004 	ld	hl, #0xffff
      000795 19                    2005 	add	hl, de
      000796 4D                    2006 	ld	c, l
      000797 44                    2007 	ld	b, h
      000798                       2008 00103$:
      000798 CB 28                 2009 	sra	b
      00079A CB 19                 2010 	rr	c
      00079C CB 28                 2011 	sra	b
      00079E CB 19                 2012 	rr	c
      0007A0 CB 28                 2013 	sra	b
      0007A2 CB 19                 2014 	rr	c
      0007A4 59                    2015 	ld	e, c
                                   2016 ;geometry_boy.c:120: }
      0007A5 E8 04                 2017 	add	sp, #4
      0007A7 C9                    2018 	ret
                                   2019 ;geometry_boy.c:122: uint8_t y_px_to_tile_ind(uint8_t y_px){
                                   2020 ;	---------------------------------
                                   2021 ; Function y_px_to_tile_ind
                                   2022 ; ---------------------------------
      0007A8                       2023 _y_px_to_tile_ind::
      0007A8 E8 FC                 2024 	add	sp, #-4
                                   2025 ;geometry_boy.c:123: return (y_px - YOFF) / 8;
      0007AA F8 06                 2026 	ldhl	sp,	#6
      0007AC 7E                    2027 	ld	a, (hl)
      0007AD F8 00                 2028 	ldhl	sp,	#0
      0007AF 22                    2029 	ld	(hl+), a
      0007B0 36 00                 2030 	ld	(hl), #0x00
      0007B2 D1                    2031 	pop	de
      0007B3 D5                    2032 	push	de
      0007B4 21 10 00              2033 	ld	hl, #0x0010
      0007B7 7B                    2034 	ld	a, e
      0007B8 95                    2035 	sub	a, l
      0007B9 5F                    2036 	ld	e, a
      0007BA 7A                    2037 	ld	a, d
      0007BB 9C                    2038 	sbc	a, h
      0007BC F8 03                 2039 	ldhl	sp,	#3
      0007BE 32                    2040 	ld	(hl-), a
      0007BF 73                    2041 	ld	(hl), e
      0007C0 2A                    2042 	ld	a, (hl+)
      0007C1 4F                    2043 	ld	c, a
      0007C2 46                    2044 	ld	b, (hl)
      0007C3 CB 7E                 2045 	bit	7, (hl)
      0007C5 28 08                 2046 	jr	Z, 00103$
      0007C7 D1                    2047 	pop	de
      0007C8 D5                    2048 	push	de
      0007C9 21 F7 FF              2049 	ld	hl, #0xfff7
      0007CC 19                    2050 	add	hl, de
      0007CD 4D                    2051 	ld	c, l
      0007CE 44                    2052 	ld	b, h
      0007CF                       2053 00103$:
      0007CF CB 28                 2054 	sra	b
      0007D1 CB 19                 2055 	rr	c
      0007D3 CB 28                 2056 	sra	b
      0007D5 CB 19                 2057 	rr	c
      0007D7 CB 28                 2058 	sra	b
      0007D9 CB 19                 2059 	rr	c
      0007DB 59                    2060 	ld	e, c
                                   2061 ;geometry_boy.c:124: }
      0007DC E8 04                 2062 	add	sp, #4
      0007DE C9                    2063 	ret
                                   2064 ;geometry_boy.c:126: uint8_t get_tile_by_px(uint8_t x_px, uint8_t y_px){
                                   2065 ;	---------------------------------
                                   2066 ; Function get_tile_by_px
                                   2067 ; ---------------------------------
      0007DF                       2068 _get_tile_by_px::
                                   2069 ;geometry_boy.c:131: , y_px_to_tile_ind(y_px)
      0007DF F8 03                 2070 	ldhl	sp,	#3
      0007E1 7E                    2071 	ld	a, (hl)
      0007E2 F5                    2072 	push	af
      0007E3 33                    2073 	inc	sp
      0007E4 CDrA8r07              2074 	call	_y_px_to_tile_ind
      0007E7 33                    2075 	inc	sp
      0007E8 43                    2076 	ld	b, e
                                   2077 ;geometry_boy.c:129: x_px + background_x_shift
      0007E9 FAr0Ar00              2078 	ld	a, (#_background_x_shift)
      0007EC F8 02                 2079 	ldhl	sp,	#2
      0007EE 86                    2080 	add	a, (hl)
      0007EF C5                    2081 	push	bc
      0007F0 F5                    2082 	push	af
      0007F1 33                    2083 	inc	sp
      0007F2 CDr71r07              2084 	call	_x_px_to_tile_ind
      0007F5 33                    2085 	inc	sp
      0007F6 7B                    2086 	ld	a, e
      0007F7 33                    2087 	inc	sp
      0007F8 F5                    2088 	push	af
      0007F9 33                    2089 	inc	sp
      0007FA CDr00r00              2090 	call	_get_bkg_tile_xy
      0007FD E1                    2091 	pop	hl
                                   2092 ;geometry_boy.c:133: }
      0007FE C9                    2093 	ret
                                   2094 ;geometry_boy.c:135: uint8_t debounce_input(uint8_t target, uint8_t prev_button, uint8_t button){
                                   2095 ;	---------------------------------
                                   2096 ; Function debounce_input
                                   2097 ; ---------------------------------
      0007FF                       2098 _debounce_input::
                                   2099 ;geometry_boy.c:136: return (button == target) && !(prev_button == target);
      0007FF F8 04                 2100 	ldhl	sp,	#4
      000801 3A                    2101 	ld	a, (hl-)
      000802 2B                    2102 	dec	hl
      000803 96                    2103 	sub	a, (hl)
      000804 20 06                 2104 	jr	NZ, 00103$
      000806 F8 03                 2105 	ldhl	sp,	#3
      000808 3A                    2106 	ld	a, (hl-)
      000809 96                    2107 	sub	a, (hl)
      00080A 20 03                 2108 	jr	NZ, 00104$
      00080C                       2109 00103$:
      00080C 1E 00                 2110 	ld	e, #0x00
      00080E C9                    2111 	ret
      00080F                       2112 00104$:
      00080F 1E 01                 2113 	ld	e, #0x01
                                   2114 ;geometry_boy.c:137: }
      000811 C9                    2115 	ret
                                   2116 ;geometry_boy.c:140: void collide(int8_t vel_y){
                                   2117 ;	---------------------------------
                                   2118 ; Function collide
                                   2119 ; ---------------------------------
      000812                       2120 _collide::
      000812 E8 EE                 2121 	add	sp, #-18
                                   2122 ;geometry_boy.c:142: int tiles[4] = {
      000814 F8 00                 2123 	ldhl	sp,	#0
      000816 7D                    2124 	ld	a, l
      000817 54                    2125 	ld	d, h
      000818 F8 08                 2126 	ldhl	sp,	#8
      00081A 22                    2127 	ld	(hl+), a
      00081B 72                    2128 	ld	(hl), d
      00081C FAr03r00              2129 	ld	a, (#_player_x)
      00081F C6 07                 2130 	add	a, #0x07
      000821 21r02r00              2131 	ld	hl, #_player_y
      000824 66                    2132 	ld	h, (hl)
                                   2133 ;	spillPairReg hl
                                   2134 ;	spillPairReg hl
      000825 E5                    2135 	push	hl
      000826 33                    2136 	inc	sp
      000827 F5                    2137 	push	af
      000828 33                    2138 	inc	sp
      000829 CDrDFr07              2139 	call	_get_tile_by_px
      00082C E1                    2140 	pop	hl
      00082D 4B                    2141 	ld	c, e
      00082E 06 00                 2142 	ld	b, #0x00
      000830 F8 08                 2143 	ldhl	sp,	#8
      000832 2A                    2144 	ld	a,	(hl+)
      000833 66                    2145 	ld	h, (hl)
      000834 6F                    2146 	ld	l, a
      000835 79                    2147 	ld	a, c
      000836 22                    2148 	ld	(hl+), a
      000837 70                    2149 	ld	(hl), b
      000838 F8 08                 2150 	ldhl	sp,	#8
      00083A 2A                    2151 	ld	a, (hl+)
      00083B 4F                    2152 	ld	c, a
      00083C 46                    2153 	ld	b, (hl)
      00083D 03                    2154 	inc	bc
      00083E 03                    2155 	inc	bc
      00083F C5                    2156 	push	bc
      000840 FAr02r00              2157 	ld	a, (#_player_y)
      000843 67                    2158 	ld	h, a
      000844 FAr03r00              2159 	ld	a, (#_player_x)
      000847 6F                    2160 	ld	l, a
      000848 E5                    2161 	push	hl
      000849 CDrDFr07              2162 	call	_get_tile_by_px
      00084C E1                    2163 	pop	hl
      00084D C1                    2164 	pop	bc
      00084E 16 00                 2165 	ld	d, #0x00
      000850 7B                    2166 	ld	a, e
      000851 02                    2167 	ld	(bc), a
      000852 03                    2168 	inc	bc
      000853 7A                    2169 	ld	a, d
      000854 02                    2170 	ld	(bc), a
      000855 F8 08                 2171 	ldhl	sp,#8
      000857 2A                    2172 	ld	a, (hl+)
      000858 5F                    2173 	ld	e, a
      000859 56                    2174 	ld	d, (hl)
      00085A 21 04 00              2175 	ld	hl, #0x0004
      00085D 19                    2176 	add	hl, de
      00085E 4D                    2177 	ld	c, l
      00085F 44                    2178 	ld	b, h
      000860 FAr02r00              2179 	ld	a, (#_player_y)
      000863 C6 07                 2180 	add	a, #0x07
      000865 57                    2181 	ld	d, a
      000866 FAr03r00              2182 	ld	a, (#_player_x)
      000869 C6 07                 2183 	add	a, #0x07
      00086B C5                    2184 	push	bc
      00086C D5                    2185 	push	de
      00086D 33                    2186 	inc	sp
      00086E F5                    2187 	push	af
      00086F 33                    2188 	inc	sp
      000870 CDrDFr07              2189 	call	_get_tile_by_px
      000873 E1                    2190 	pop	hl
      000874 C1                    2191 	pop	bc
      000875 16 00                 2192 	ld	d, #0x00
      000877 7B                    2193 	ld	a, e
      000878 02                    2194 	ld	(bc), a
      000879 03                    2195 	inc	bc
      00087A 7A                    2196 	ld	a, d
      00087B 02                    2197 	ld	(bc), a
      00087C F8 08                 2198 	ldhl	sp,#8
      00087E 2A                    2199 	ld	a, (hl+)
      00087F 5F                    2200 	ld	e, a
      000880 56                    2201 	ld	d, (hl)
      000881 21 06 00              2202 	ld	hl, #0x0006
      000884 19                    2203 	add	hl, de
      000885 4D                    2204 	ld	c, l
      000886 44                    2205 	ld	b, h
      000887 FAr02r00              2206 	ld	a, (#_player_y)
      00088A C6 07                 2207 	add	a, #0x07
      00088C C5                    2208 	push	bc
      00088D F5                    2209 	push	af
      00088E 33                    2210 	inc	sp
      00088F FAr03r00              2211 	ld	a, (#_player_x)
      000892 F5                    2212 	push	af
      000893 33                    2213 	inc	sp
      000894 CDrDFr07              2214 	call	_get_tile_by_px
      000897 E1                    2215 	pop	hl
      000898 C1                    2216 	pop	bc
      000899 16 00                 2217 	ld	d, #0x00
      00089B 7B                    2218 	ld	a, e
      00089C 02                    2219 	ld	(bc), a
      00089D 03                    2220 	inc	bc
      00089E 7A                    2221 	ld	a, d
      00089F 02                    2222 	ld	(bc), a
                                   2223 ;geometry_boy.c:148: for (uint8_t i = 0; i < 4; i++){
      0008A0 F8 14                 2224 	ldhl	sp,	#20
      0008A2 5E                    2225 	ld	e, (hl)
      0008A3 AF                    2226 	xor	a, a
      0008A4 57                    2227 	ld	d, a
      0008A5 96                    2228 	sub	a, (hl)
      0008A6 CB 7B                 2229 	bit	7, e
      0008A8 28 07                 2230 	jr	Z, 00219$
      0008AA CB 7A                 2231 	bit	7, d
      0008AC 20 08                 2232 	jr	NZ, 00220$
      0008AE BF                    2233 	cp	a, a
      0008AF 18 05                 2234 	jr	00220$
      0008B1                       2235 00219$:
      0008B1 CB 7A                 2236 	bit	7, d
      0008B3 28 01                 2237 	jr	Z, 00220$
      0008B5 37                    2238 	scf
      0008B6                       2239 00220$:
      0008B6 3E 00                 2240 	ld	a, #0x00
      0008B8 17                    2241 	rla
      0008B9 F8 0A                 2242 	ldhl	sp,	#10
      0008BB 77                    2243 	ld	(hl), a
      0008BC F8 14                 2244 	ldhl	sp,	#20
      0008BE 7E                    2245 	ld	a, (hl)
      0008BF 07                    2246 	rlca
      0008C0 E6 01                 2247 	and	a,#0x01
      0008C2 F8 0B                 2248 	ldhl	sp,	#11
      0008C4 77                    2249 	ld	(hl), a
      0008C5 F8 11                 2250 	ldhl	sp,	#17
      0008C7 36 00                 2251 	ld	(hl), #0x00
      0008C9                       2252 00125$:
      0008C9 F8 11                 2253 	ldhl	sp,	#17
                                   2254 ;geometry_boy.c:149: uint8_t tile = tiles[i];
      0008CB 7E                    2255 	ld	a,(hl)
      0008CC FE 04                 2256 	cp	a,#0x04
      0008CE D2rF9r09              2257 	jp	NC,00116$
      0008D1 16 00                 2258 	ld	d, #0x00
      0008D3 87                    2259 	add	a, a
      0008D4 CB 12                 2260 	rl	d
      0008D6 5F                    2261 	ld	e, a
      0008D7 F8 08                 2262 	ldhl	sp,	#8
      0008D9 2A                    2263 	ld	a,	(hl+)
      0008DA 66                    2264 	ld	h, (hl)
      0008DB 6F                    2265 	ld	l, a
      0008DC 19                    2266 	add	hl, de
      0008DD 4D                    2267 	ld	c, l
      0008DE 44                    2268 	ld	b, h
      0008DF 0A                    2269 	ld	a, (bc)
      0008E0 F8 0C                 2270 	ldhl	sp,	#12
                                   2271 ;geometry_boy.c:151: if (tile == 0x5){ // TODO: formalize tile indices
      0008E2 77                    2272 	ld	(hl), a
      0008E3 D6 05                 2273 	sub	a, #0x05
      0008E5 20 4C                 2274 	jr	NZ, 00102$
                                   2275 ;geometry_boy.c:152: player_dx = 0;
      0008E7 21r01r00              2276 	ld	hl, #_player_dx
      0008EA 36 00                 2277 	ld	(hl), #0x00
                                   2278 ;geometry_boy.c:153: player_dy = 0;
      0008EC 21r00r00              2279 	ld	hl, #_player_dy
      0008EF 36 00                 2280 	ld	(hl), #0x00
                                   2281 ;geometry_boy.c:154: player_x = (player_x/8)*8;
      0008F1 FAr03r00              2282 	ld	a, (#_player_x)
      0008F4 F8 0D                 2283 	ldhl	sp,	#13
      0008F6 22                    2284 	ld	(hl+), a
      0008F7 AF                    2285 	xor	a, a
      0008F8 32                    2286 	ld	(hl-), a
      0008F9 2A                    2287 	ld	a, (hl+)
      0008FA 23                    2288 	inc	hl
      0008FB 32                    2289 	ld	(hl-), a
      0008FC 2A                    2290 	ld	a, (hl+)
      0008FD 23                    2291 	inc	hl
      0008FE 32                    2292 	ld	(hl-), a
      0008FF 2B                    2293 	dec	hl
      000900 CB 7E                 2294 	bit	7, (hl)
      000902 28 12                 2295 	jr	Z, 00129$
      000904 2B                    2296 	dec	hl
      000905 2A                    2297 	ld	a, (hl+)
      000906 5F                    2298 	ld	e, a
      000907 56                    2299 	ld	d, (hl)
      000908 21 07 00              2300 	ld	hl, #0x0007
      00090B 19                    2301 	add	hl, de
      00090C E5                    2302 	push	hl
      00090D 7D                    2303 	ld	a, l
      00090E F8 11                 2304 	ldhl	sp,	#17
      000910 77                    2305 	ld	(hl), a
      000911 E1                    2306 	pop	hl
      000912 7C                    2307 	ld	a, h
      000913 F8 10                 2308 	ldhl	sp,	#16
      000915 77                    2309 	ld	(hl), a
      000916                       2310 00129$:
      000916 F8 0F                 2311 	ldhl	sp,#15
      000918 2A                    2312 	ld	a, (hl+)
      000919 4F                    2313 	ld	c, a
      00091A 46                    2314 	ld	b, (hl)
      00091B CB 28                 2315 	sra	b
      00091D CB 19                 2316 	rr	c
      00091F CB 28                 2317 	sra	b
      000921 CB 19                 2318 	rr	c
      000923 CB 28                 2319 	sra	b
      000925 CB 19                 2320 	rr	c
      000927 79                    2321 	ld	a, c
      000928 87                    2322 	add	a, a
      000929 87                    2323 	add	a, a
      00092A 87                    2324 	add	a, a
      00092B EAr03r00              2325 	ld	(#_player_x),a
                                   2326 ;geometry_boy.c:155: lose = 1;
      00092E 21r06r00              2327 	ld	hl, #_lose
      000931 36 01                 2328 	ld	(hl), #0x01
      000933                       2329 00102$:
                                   2330 ;geometry_boy.c:158: if (tile == 0x3){ // black block or floor block
      000933 F8 0C                 2331 	ldhl	sp,	#12
      000935 7E                    2332 	ld	a, (hl)
      000936 D6 03                 2333 	sub	a, #0x03
      000938 C2rD4r09              2334 	jp	NZ,00110$
                                   2335 ;geometry_boy.c:160: player_y = (player_y/8)*8;
      00093B 21r02r00              2336 	ld	hl, #_player_y
      00093E 4E                    2337 	ld	c, (hl)
      00093F 06 00                 2338 	ld	b, #0x00
      000941 78                    2339 	ld	a, b
      000942 07                    2340 	rlca
      000943 E6 01                 2341 	and	a,#0x01
      000945 F8 10                 2342 	ldhl	sp,	#16
      000947 77                    2343 	ld	(hl), a
      000948 21 07 00              2344 	ld	hl, #0x0007
      00094B 09                    2345 	add	hl, bc
      00094C 5D                    2346 	ld	e, l
      00094D 54                    2347 	ld	d, h
                                   2348 ;geometry_boy.c:159: if (vel_y > 0){ // falling down
      00094E F8 0A                 2349 	ldhl	sp,	#10
      000950 7E                    2350 	ld	a, (hl)
      000951 B7                    2351 	or	a, a
      000952 28 27                 2352 	jr	Z, 00107$
                                   2353 ;geometry_boy.c:160: player_y = (player_y/8)*8;
      000954 F8 10                 2354 	ldhl	sp,	#16
      000956 7E                    2355 	ld	a, (hl)
      000957 B7                    2356 	or	a, a
      000958 28 02                 2357 	jr	Z, 00130$
      00095A 4B                    2358 	ld	c, e
      00095B 42                    2359 	ld	b, d
      00095C                       2360 00130$:
      00095C CB 28                 2361 	sra	b
      00095E CB 19                 2362 	rr	c
      000960 CB 28                 2363 	sra	b
      000962 CB 19                 2364 	rr	c
      000964 CB 28                 2365 	sra	b
      000966 CB 19                 2366 	rr	c
      000968 79                    2367 	ld	a, c
      000969 87                    2368 	add	a, a
      00096A 87                    2369 	add	a, a
      00096B 87                    2370 	add	a, a
      00096C EAr02r00              2371 	ld	(#_player_y),a
                                   2372 ;geometry_boy.c:161: player_dy = 0;
      00096F 21r00r00              2373 	ld	hl, #_player_dy
      000972 36 00                 2374 	ld	(hl), #0x00
                                   2375 ;geometry_boy.c:162: on_ground = 1;
      000974 21r04r00              2376 	ld	hl, #_on_ground
      000977 36 01                 2377 	ld	(hl), #0x01
      000979 18 59                 2378 	jr	00110$
      00097B                       2379 00107$:
                                   2380 ;geometry_boy.c:163: } else if (vel_y < 0) {// jumping up
      00097B F8 0B                 2381 	ldhl	sp,	#11
      00097D 7E                    2382 	ld	a, (hl)
      00097E B7                    2383 	or	a, a
      00097F 28 1F                 2384 	jr	Z, 00104$
                                   2385 ;geometry_boy.c:164: player_y = (player_y/8)*8 + 8;
      000981 F8 10                 2386 	ldhl	sp,	#16
      000983 7E                    2387 	ld	a, (hl)
      000984 B7                    2388 	or	a, a
      000985 28 02                 2389 	jr	Z, 00131$
      000987 4B                    2390 	ld	c, e
      000988 42                    2391 	ld	b, d
      000989                       2392 00131$:
      000989 CB 28                 2393 	sra	b
      00098B CB 19                 2394 	rr	c
      00098D CB 28                 2395 	sra	b
      00098F CB 19                 2396 	rr	c
      000991 CB 28                 2397 	sra	b
      000993 CB 19                 2398 	rr	c
      000995 79                    2399 	ld	a, c
      000996 87                    2400 	add	a, a
      000997 87                    2401 	add	a, a
      000998 87                    2402 	add	a, a
      000999 C6 08                 2403 	add	a, #0x08
      00099B EAr02r00              2404 	ld	(#_player_y),a
      00099E 18 34                 2405 	jr	00110$
      0009A0                       2406 00104$:
                                   2407 ;geometry_boy.c:167: player_dx = 0;
      0009A0 21r01r00              2408 	ld	hl, #_player_dx
      0009A3 36 00                 2409 	ld	(hl), #0x00
                                   2410 ;geometry_boy.c:168: player_dy = 0;
      0009A5 21r00r00              2411 	ld	hl, #_player_dy
      0009A8 36 00                 2412 	ld	(hl), #0x00
                                   2413 ;geometry_boy.c:169: player_x = (player_x/8)*8;
      0009AA 21r03r00              2414 	ld	hl, #_player_x
      0009AD 6E                    2415 	ld	l, (hl)
                                   2416 ;	spillPairReg hl
                                   2417 ;	spillPairReg hl
      0009AE 26 00                 2418 	ld	h, #0x00
                                   2419 ;	spillPairReg hl
                                   2420 ;	spillPairReg hl
      0009B0 4D                    2421 	ld	c, l
      0009B1 44                    2422 	ld	b, h
      0009B2 CB 7C                 2423 	bit	7, h
      0009B4 28 06                 2424 	jr	Z, 00132$
      0009B6 01 07 00              2425 	ld	bc, #0x7
      0009B9 09                    2426 	add	hl,bc
      0009BA 4D                    2427 	ld	c, l
      0009BB 44                    2428 	ld	b, h
      0009BC                       2429 00132$:
      0009BC CB 28                 2430 	sra	b
      0009BE CB 19                 2431 	rr	c
      0009C0 CB 28                 2432 	sra	b
      0009C2 CB 19                 2433 	rr	c
      0009C4 CB 28                 2434 	sra	b
      0009C6 CB 19                 2435 	rr	c
      0009C8 79                    2436 	ld	a, c
      0009C9 87                    2437 	add	a, a
      0009CA 87                    2438 	add	a, a
      0009CB 87                    2439 	add	a, a
      0009CC EAr03r00              2440 	ld	(#_player_x),a
                                   2441 ;geometry_boy.c:170: lose = 1;
      0009CF 21r06r00              2442 	ld	hl, #_lose
      0009D2 36 01                 2443 	ld	(hl), #0x01
      0009D4                       2444 00110$:
                                   2445 ;geometry_boy.c:174: if (tile == 0xB){ // jump tile
      0009D4 F8 0C                 2446 	ldhl	sp,	#12
      0009D6 7E                    2447 	ld	a, (hl)
      0009D7 D6 0B                 2448 	sub	a, #0x0b
      0009D9 20 05                 2449 	jr	NZ, 00112$
                                   2450 ;geometry_boy.c:175: player_dy = -9;
      0009DB 21r00r00              2451 	ld	hl, #_player_dy
      0009DE 36 F7                 2452 	ld	(hl), #0xf7
      0009E0                       2453 00112$:
                                   2454 ;geometry_boy.c:177: if (tile == 0xA && jpad == J_UP){
      0009E0 F8 0C                 2455 	ldhl	sp,	#12
      0009E2 7E                    2456 	ld	a, (hl)
      0009E3 D6 0A                 2457 	sub	a, #0x0a
      0009E5 20 0C                 2458 	jr	NZ, 00126$
      0009E7 FAr08r00              2459 	ld	a, (#_jpad)
      0009EA D6 04                 2460 	sub	a, #0x04
      0009EC 20 05                 2461 	jr	NZ, 00126$
                                   2462 ;geometry_boy.c:178: player_dy = -PLAYER_JUMP_VEL;
      0009EE 21r00r00              2463 	ld	hl, #_player_dy
      0009F1 36 FA                 2464 	ld	(hl), #0xfa
      0009F3                       2465 00126$:
                                   2466 ;geometry_boy.c:148: for (uint8_t i = 0; i < 4; i++){
      0009F3 F8 11                 2467 	ldhl	sp,	#17
      0009F5 34                    2468 	inc	(hl)
      0009F6 C3rC9r08              2469 	jp	00125$
      0009F9                       2470 00116$:
                                   2471 ;geometry_boy.c:181: if (vel_y == 0){
      0009F9 F8 14                 2472 	ldhl	sp,	#20
      0009FB 7E                    2473 	ld	a, (hl)
      0009FC B7                    2474 	or	a, a
      0009FD 20 42                 2475 	jr	NZ, 00127$
                                   2476 ;geometry_boy.c:182: uint8_t down_right = get_tile_by_px(player_x+PLAYER_WIDTH, player_y + PLAYER_WIDTH);
      0009FF FAr02r00              2477 	ld	a, (#_player_y)
      000A02 C6 08                 2478 	add	a, #0x08
      000A04 47                    2479 	ld	b, a
      000A05 FAr03r00              2480 	ld	a, (#_player_x)
      000A08 C6 08                 2481 	add	a, #0x08
      000A0A C5                    2482 	push	bc
      000A0B 33                    2483 	inc	sp
      000A0C F5                    2484 	push	af
      000A0D 33                    2485 	inc	sp
      000A0E CDrDFr07              2486 	call	_get_tile_by_px
      000A11 E1                    2487 	pop	hl
      000A12 4B                    2488 	ld	c, e
                                   2489 ;geometry_boy.c:183: uint8_t down_left = get_tile_by_px(player_x, player_y + PLAYER_WIDTH);
      000A13 FAr02r00              2490 	ld	a, (#_player_y)
      000A16 C6 08                 2491 	add	a, #0x08
      000A18 C5                    2492 	push	bc
      000A19 F5                    2493 	push	af
      000A1A 33                    2494 	inc	sp
      000A1B FAr03r00              2495 	ld	a, (#_player_x)
      000A1E F5                    2496 	push	af
      000A1F 33                    2497 	inc	sp
      000A20 CDrDFr07              2498 	call	_get_tile_by_px
      000A23 E1                    2499 	pop	hl
      000A24 C1                    2500 	pop	bc
                                   2501 ;geometry_boy.c:184: if (down_right == 0x1 || down_right == 0x5 || down_left == 0x1 || down_right == 0x5){
      000A25 79                    2502 	ld	a, c
      000A26 3D                    2503 	dec	a
      000A27 28 13                 2504 	jr	Z, 00117$
      000A29 79                    2505 	ld	a, c
      000A2A D6 05                 2506 	sub	a, #0x05
      000A2C 3E 01                 2507 	ld	a, #0x01
      000A2E 28 01                 2508 	jr	Z, 00234$
      000A30 AF                    2509 	xor	a, a
      000A31                       2510 00234$:
      000A31 4F                    2511 	ld	c, a
      000A32 B7                    2512 	or	a, a
      000A33 20 07                 2513 	jr	NZ, 00117$
      000A35 1D                    2514 	dec	e
      000A36 28 04                 2515 	jr	Z, 00117$
      000A38 79                    2516 	ld	a, c
      000A39 B7                    2517 	or	a, a
      000A3A 28 05                 2518 	jr	Z, 00127$
      000A3C                       2519 00117$:
                                   2520 ;geometry_boy.c:185: on_ground = 1;
      000A3C 21r04r00              2521 	ld	hl, #_on_ground
      000A3F 36 01                 2522 	ld	(hl), #0x01
      000A41                       2523 00127$:
                                   2524 ;geometry_boy.c:188: }
      000A41 E8 12                 2525 	add	sp, #18
      000A43 C9                    2526 	ret
                                   2527 ;geometry_boy.c:190: void tick_player(){
                                   2528 ;	---------------------------------
                                   2529 ; Function tick_player
                                   2530 ; ---------------------------------
      000A44                       2531 _tick_player::
                                   2532 ;geometry_boy.c:191: if (jpad == J_UP) { //debounce_input(J_UP, prev_jpad, jpad)){ // if jumping
      000A44 FAr08r00              2533 	ld	a, (#_jpad)
      000A47 D6 04                 2534 	sub	a, #0x04
      000A49 20 0B                 2535 	jr	NZ, 00104$
                                   2536 ;geometry_boy.c:192: if (on_ground){
      000A4B FAr04r00              2537 	ld	a, (#_on_ground)
      000A4E B7                    2538 	or	a, a
      000A4F 28 05                 2539 	jr	Z, 00104$
                                   2540 ;geometry_boy.c:193: player_dy = -PLAYER_JUMP_VEL;
      000A51 21r00r00              2541 	ld	hl, #_player_dy
      000A54 36 FA                 2542 	ld	(hl), #0xfa
      000A56                       2543 00104$:
                                   2544 ;geometry_boy.c:196: if (!on_ground){
      000A56 FAr04r00              2545 	ld	a, (#_on_ground)
      000A59 B7                    2546 	or	a, a
      000A5A 20 20                 2547 	jr	NZ, 00108$
                                   2548 ;geometry_boy.c:198: player_dy += GRAVITY;
      000A5C 21r00r00              2549 	ld	hl, #_player_dy
      000A5F 34                    2550 	inc	(hl)
                                   2551 ;geometry_boy.c:200: if (player_dy > MAX_FALL_SPEED){ // terminal velocity
      000A60 5E                    2552 	ld	e, (hl)
      000A61 3E 07                 2553 	ld	a,#0x07
      000A63 57                    2554 	ld	d,a
      000A64 96                    2555 	sub	a, (hl)
      000A65 CB 7B                 2556 	bit	7, e
      000A67 28 07                 2557 	jr	Z, 00133$
      000A69 CB 7A                 2558 	bit	7, d
      000A6B 20 08                 2559 	jr	NZ, 00134$
      000A6D BF                    2560 	cp	a, a
      000A6E 18 05                 2561 	jr	00134$
      000A70                       2562 00133$:
      000A70 CB 7A                 2563 	bit	7, d
      000A72 28 01                 2564 	jr	Z, 00134$
      000A74 37                    2565 	scf
      000A75                       2566 00134$:
      000A75 30 05                 2567 	jr	NC, 00108$
                                   2568 ;geometry_boy.c:201: player_dy = MAX_FALL_SPEED;
      000A77 21r00r00              2569 	ld	hl, #_player_dy
      000A7A 36 07                 2570 	ld	(hl), #0x07
      000A7C                       2571 00108$:
                                   2572 ;geometry_boy.c:205: collide(0);
      000A7C AF                    2573 	xor	a, a
      000A7D F5                    2574 	push	af
      000A7E 33                    2575 	inc	sp
      000A7F CDr12r08              2576 	call	_collide
      000A82 33                    2577 	inc	sp
                                   2578 ;geometry_boy.c:207: player_y += player_dy;
      000A83 FAr02r00              2579 	ld	a, (#_player_y)
      000A86 21r00r00              2580 	ld	hl, #_player_dy
      000A89 86                    2581 	add	a, (hl)
      000A8A EAr02r00              2582 	ld	(#_player_y),a
                                   2583 ;geometry_boy.c:210: on_ground = 0;
      000A8D 21r04r00              2584 	ld	hl, #_on_ground
      000A90 36 00                 2585 	ld	(hl), #0x00
                                   2586 ;geometry_boy.c:212: collide(player_dy);
      000A92 FAr00r00              2587 	ld	a, (#_player_dy)
      000A95 F5                    2588 	push	af
      000A96 33                    2589 	inc	sp
      000A97 CDr12r08              2590 	call	_collide
      000A9A 33                    2591 	inc	sp
                                   2592 ;geometry_boy.c:213: }
      000A9B C9                    2593 	ret
                                   2594 ;geometry_boy.c:215: void render_player(){ // i want a better name for this function
                                   2595 ;	---------------------------------
                                   2596 ; Function render_player
                                   2597 ; ---------------------------------
      000A9C                       2598 _render_player::
                                   2599 ;geometry_boy.c:216: move_sprite(0, player_x,     player_y    );
      000A9C 21r02r00              2600 	ld	hl, #_player_y
      000A9F 46                    2601 	ld	b, (hl)
      000AA0 21r03r00              2602 	ld	hl, #_player_x
      000AA3 4E                    2603 	ld	c, (hl)
                                   2604 ;../gbdk/include/gb/gb.h:1399: OAM_item_t * itm = &shadow_OAM[nb];
      000AA4 21r00r00              2605 	ld	hl, #_shadow_OAM
                                   2606 ;../gbdk/include/gb/gb.h:1400: itm->y=y, itm->x=x;
      000AA7 78                    2607 	ld	a, b
      000AA8 22                    2608 	ld	(hl+), a
      000AA9 71                    2609 	ld	(hl), c
                                   2610 ;geometry_boy.c:216: move_sprite(0, player_x,     player_y    );
                                   2611 ;geometry_boy.c:217: }
      000AAA C9                    2612 	ret
                                   2613 ;geometry_boy.c:219: void initialize_player(){
                                   2614 ;	---------------------------------
                                   2615 ; Function initialize_player
                                   2616 ; ---------------------------------
      000AAB                       2617 _initialize_player::
                                   2618 ;geometry_boy.c:220: set_sprite_data(0, 1, player);
      000AAB 11rCBr00              2619 	ld	de, #_player
      000AAE D5                    2620 	push	de
      000AAF AF                    2621 	xor	a, a
      000AB0 3C                    2622 	inc	a
      000AB1 F5                    2623 	push	af
      000AB2 CDr00r00              2624 	call	_set_sprite_data
      000AB5 E8 04                 2625 	add	sp, #4
                                   2626 ;../gbdk/include/gb/gb.h:1326: shadow_OAM[nb].tile=tile;
      000AB7 21r02r00              2627 	ld	hl, #(_shadow_OAM + 2)
      000ABA 36 00                 2628 	ld	(hl), #0x00
                                   2629 ;geometry_boy.c:221: set_sprite_tile(0,0);
                                   2630 ;geometry_boy.c:222: }
      000ABC C9                    2631 	ret
                                   2632 ;geometry_boy.c:224: void init_tiles(){
                                   2633 ;	---------------------------------
                                   2634 ; Function init_tiles
                                   2635 ; ---------------------------------
      000ABD                       2636 _init_tiles::
                                   2637 ;geometry_boy.c:225: set_bkg_data(0, 13, gb_tileset); // load tiles into VRAM
      000ABD 11rDBr00              2638 	ld	de, #_gb_tileset
      000AC0 D5                    2639 	push	de
      000AC1 21 00 0D              2640 	ld	hl, #0xd00
      000AC4 E5                    2641 	push	hl
      000AC5 CDr00r00              2642 	call	_set_bkg_data
      000AC8 E8 04                 2643 	add	sp, #4
                                   2644 ;geometry_boy.c:226: set_bkg_data(13, 16, parallax_tileset); // load tiles into VRAM
      000ACA 11rABr01              2645 	ld	de, #_parallax_tileset
      000ACD D5                    2646 	push	de
      000ACE 21 0D 10              2647 	ld	hl, #0x100d
      000AD1 E5                    2648 	push	hl
      000AD2 CDr00r00              2649 	call	_set_bkg_data
      000AD5 E8 04                 2650 	add	sp, #4
                                   2651 ;geometry_boy.c:227: }
      000AD7 C9                    2652 	ret
                                   2653 ;geometry_boy.c:229: screen_t game(){
                                   2654 ;	---------------------------------
                                   2655 ; Function game
                                   2656 ; ---------------------------------
      000AD8                       2657 _game::
      000AD8 3B                    2658 	dec	sp
                                   2659 ;geometry_boy.c:230: wait_vbl_done();
      000AD9 CDr00r00              2660 	call	_wait_vbl_done
                                   2661 ;geometry_boy.c:232: initialize_player();
      000ADC CDrABr0A              2662 	call	_initialize_player
                                   2663 ;geometry_boy.c:233: render_player(); // render at initial position
      000ADF CDr9Cr0A              2664 	call	_render_player
                                   2665 ;geometry_boy.c:234: SHOW_SPRITES;
      000AE2 F0r00                 2666 	ldh	a, (_LCDC_REG + 0)
      000AE4 F6 02                 2667 	or	a, #0x02
      000AE6 E0r00                 2668 	ldh	(_LCDC_REG + 0), a
                                   2669 ;geometry_boy.c:236: init_tiles();
      000AE8 CDrBDr0A              2670 	call	_init_tiles
                                   2671 ;geometry_boy.c:239: background_x_shift = 0; 
      000AEB AF                    2672 	xor	a, a
      000AEC 21r0Ar00              2673 	ld	hl, #_background_x_shift
      000AEF 22                    2674 	ld	(hl+), a
      000AF0 77                    2675 	ld	(hl), a
                                   2676 ;geometry_boy.c:240: old_background_x_shift = 8; 
      000AF1 21r0Cr00              2677 	ld	hl, #_old_background_x_shift
      000AF4 3E 08                 2678 	ld	a, #0x08
      000AF6 22                    2679 	ld	(hl+), a
      000AF7 AF                    2680 	xor	a, a
      000AF8 77                    2681 	ld	(hl), a
                                   2682 ;../gbdk/include/gb/gb.h:1009: SCX_REG=x, SCY_REG=y;
      000AF9 AF                    2683 	xor	a, a
      000AFA E0r00                 2684 	ldh	(_SCX_REG + 0), a
      000AFC AF                    2685 	xor	a, a
      000AFD E0r00                 2686 	ldh	(_SCY_REG + 0), a
                                   2687 ;geometry_boy.c:243: SHOW_BKG;
      000AFF F0r00                 2688 	ldh	a, (_LCDC_REG + 0)
      000B01 F6 01                 2689 	or	a, #0x01
      000B03 E0r00                 2690 	ldh	(_LCDC_REG + 0), a
                                   2691 ;geometry_boy.c:244: DISPLAY_ON;
      000B05 F0r00                 2692 	ldh	a, (_LCDC_REG + 0)
      000B07 F6 80                 2693 	or	a, #0x80
      000B09 E0r00                 2694 	ldh	(_LCDC_REG + 0), a
                                   2695 ;geometry_boy.c:246: SWITCH_ROM_MBC1(level1Bank);
      000B0B 3E 02                 2696 	ld	a, #0x02
      000B0D E0r00                 2697 	ldh	(__current_bank + 0), a
      000B0F 21 00 20              2698 	ld	hl, #0x2000
                                   2699 ;geometry_boy.c:248: init_background(level1, level1Width);
      000B12 11 00 02              2700 	ld	de, #0x0200
      000B15 72                    2701 	ld	(hl), d
      000B16 D5                    2702 	push	de
      000B17 11r00r00              2703 	ld	de, #_level1
      000B1A D5                    2704 	push	de
      000B1B CDr2Br07              2705 	call	_init_background
      000B1E E8 04                 2706 	add	sp, #4
                                   2707 ;geometry_boy.c:249: SWITCH_ROM_MBC1(saved_bank);
      000B20 21r04r00              2708 	ld	hl, #_saved_bank
      000B23 7E                    2709 	ld	a, (hl)
      000B24 E0r00                 2710 	ldh	(__current_bank + 0), a
      000B26 11 00 20              2711 	ld	de, #0x2000
      000B29 7E                    2712 	ld	a, (hl)
      000B2A 12                    2713 	ld	(de), a
                                   2714 ;geometry_boy.c:252: uint8_t white_tile_ind = 0;
      000B2B 0E 00                 2715 	ld	c, #0x00
                                   2716 ;geometry_boy.c:253: uint8_t green_tile_ind = 128; //8*16;
      000B2D F8 00                 2717 	ldhl	sp,	#0
      000B2F 36 80                 2718 	ld	(hl), #0x80
                                   2719 ;geometry_boy.c:254: while (1){
      000B31                       2720 00110$:
                                   2721 ;geometry_boy.c:255: wait_vbl_done();
      000B31 CDr00r00              2722 	call	_wait_vbl_done
                                   2723 ;geometry_boy.c:257: prev_jpad = jpad;
      000B34 FAr08r00              2724 	ld	a, (#_jpad)
      000B37 EAr07r00              2725 	ld	(#_prev_jpad),a
                                   2726 ;geometry_boy.c:258: jpad = joypad();
      000B3A CDr00r00              2727 	call	_joypad
      000B3D 21r08r00              2728 	ld	hl, #_jpad
      000B40 73                    2729 	ld	(hl), e
                                   2730 ;geometry_boy.c:260: if (debounce_input(J_A, jpad, prev_jpad)){ // press A to exit
      000B41 C5                    2731 	push	bc
      000B42 FAr07r00              2732 	ld	a, (#_prev_jpad)
      000B45 F5                    2733 	push	af
      000B46 33                    2734 	inc	sp
      000B47 FAr08r00              2735 	ld	a, (#_jpad)
      000B4A 67                    2736 	ld	h, a
      000B4B 2E 10                 2737 	ld	l, #0x10
      000B4D E5                    2738 	push	hl
      000B4E CDrFFr07              2739 	call	_debounce_input
      000B51 E8 03                 2740 	add	sp, #3
      000B53 7B                    2741 	ld	a, e
      000B54 C1                    2742 	pop	bc
      000B55 B7                    2743 	or	a, a
      000B56 28 05                 2744 	jr	Z, 00102$
                                   2745 ;geometry_boy.c:261: return TITLE;
      000B58 1E 00                 2746 	ld	e, #0x00
      000B5A C3r2Er0C              2747 	jp	00114$
      000B5D                       2748 00102$:
                                   2749 ;geometry_boy.c:265: tick_player();
      000B5D C5                    2750 	push	bc
      000B5E CDr44r0A              2751 	call	_tick_player
      000B61 CDr9Cr0A              2752 	call	_render_player
      000B64 C1                    2753 	pop	bc
                                   2754 ;geometry_boy.c:269: SWITCH_ROM_MBC1(level1Bank);
      000B65 3E 02                 2755 	ld	a, #0x02
      000B67 E0r00                 2756 	ldh	(__current_bank + 0), a
      000B69 21 00 20              2757 	ld	hl, #0x2000
      000B6C 36 02                 2758 	ld	(hl), #0x02
                                   2759 ;geometry_boy.c:270: scroll_bkg_x(player_dx, level1, level1Width);
      000B6E C5                    2760 	push	bc
      000B6F 11 00 02              2761 	ld	de, #0x0200
      000B72 D5                    2762 	push	de
      000B73 11r00r00              2763 	ld	de, #_level1
      000B76 D5                    2764 	push	de
      000B77 FAr01r00              2765 	ld	a, (#_player_dx)
      000B7A F5                    2766 	push	af
      000B7B 33                    2767 	inc	sp
      000B7C CDr00r00              2768 	call	_scroll_bkg_x
      000B7F E8 05                 2769 	add	sp, #5
      000B81 C1                    2770 	pop	bc
                                   2771 ;geometry_boy.c:271: SWITCH_ROM_MBC1(saved_bank);
      000B82 21r04r00              2772 	ld	hl, #_saved_bank
      000B85 7E                    2773 	ld	a, (hl)
      000B86 E0r00                 2774 	ldh	(__current_bank + 0), a
      000B88 11 00 20              2775 	ld	de, #0x2000
      000B8B 7E                    2776 	ld	a, (hl)
      000B8C 12                    2777 	ld	(de), a
                                   2778 ;geometry_boy.c:273: if (lose){ // TODO: add this to a reset function
      000B8D FAr06r00              2779 	ld	a, (#_lose)
      000B90 B7                    2780 	or	a, a
      000B91 28 52                 2781 	jr	Z, 00104$
                                   2782 ;geometry_boy.c:274: background_x_shift = 0; 
      000B93 AF                    2783 	xor	a, a
      000B94 21r0Ar00              2784 	ld	hl, #_background_x_shift
      000B97 22                    2785 	ld	(hl+), a
      000B98 77                    2786 	ld	(hl), a
                                   2787 ;geometry_boy.c:275: player_y = PLAYER_START_Y;
      000B99 21r02r00              2788 	ld	hl, #_player_y
      000B9C 36 90                 2789 	ld	(hl), #0x90
                                   2790 ;geometry_boy.c:276: player_x = PLAYER_START_X;
      000B9E 21r03r00              2791 	ld	hl, #_player_x
      000BA1 36 20                 2792 	ld	(hl), #0x20
                                   2793 ;geometry_boy.c:277: player_dx = 3;
      000BA3 21r01r00              2794 	ld	hl, #_player_dx
      000BA6 36 03                 2795 	ld	(hl), #0x03
                                   2796 ;geometry_boy.c:278: on_ground = 1;
      000BA8 21r04r00              2797 	ld	hl, #_on_ground
      000BAB 36 01                 2798 	ld	(hl), #0x01
                                   2799 ;geometry_boy.c:279: old_background_x_shift = 8;
      000BAD 21r0Cr00              2800 	ld	hl, #_old_background_x_shift
      000BB0 3E 08                 2801 	ld	a, #0x08
      000BB2 22                    2802 	ld	(hl+), a
      000BB3 AF                    2803 	xor	a, a
      000BB4 77                    2804 	ld	(hl), a
                                   2805 ;geometry_boy.c:280: lose = 0;
      000BB5 21r06r00              2806 	ld	hl, #_lose
      000BB8 36 00                 2807 	ld	(hl), #0x00
                                   2808 ;geometry_boy.c:281: SWITCH_ROM_MBC1(level1Bank);
      000BBA 3E 02                 2809 	ld	a, #0x02
      000BBC E0r00                 2810 	ldh	(__current_bank + 0), a
      000BBE 21 00 20              2811 	ld	hl, #0x2000
      000BC1 36 02                 2812 	ld	(hl), #0x02
                                   2813 ;geometry_boy.c:282: init_background(level1, level1Width);
      000BC3 C5                    2814 	push	bc
      000BC4 11 00 02              2815 	ld	de, #0x0200
      000BC7 D5                    2816 	push	de
      000BC8 11r00r00              2817 	ld	de, #_level1
      000BCB D5                    2818 	push	de
      000BCC CDr2Br07              2819 	call	_init_background
      000BCF E8 04                 2820 	add	sp, #4
      000BD1 C1                    2821 	pop	bc
                                   2822 ;geometry_boy.c:284: move_bkg(background_x_shift, 0);
      000BD2 FAr0Ar00              2823 	ld	a, (#_background_x_shift)
      000BD5 E0r00                 2824 	ldh	(_SCX_REG + 0), a
                                   2825 ;../gbdk/include/gb/gb.h:1009: SCX_REG=x, SCY_REG=y;
      000BD7 AF                    2826 	xor	a, a
      000BD8 E0r00                 2827 	ldh	(_SCY_REG + 0), a
                                   2828 ;geometry_boy.c:285: SWITCH_ROM_MBC1(saved_bank);
      000BDA 21r04r00              2829 	ld	hl, #_saved_bank
      000BDD 7E                    2830 	ld	a, (hl)
      000BDE E0r00                 2831 	ldh	(__current_bank + 0), a
      000BE0 11 00 20              2832 	ld	de, #0x2000
      000BE3 7E                    2833 	ld	a, (hl)
      000BE4 12                    2834 	ld	(de), a
      000BE5                       2835 00104$:
                                   2836 ;geometry_boy.c:288: white_tile_ind -= 16; 
      000BE5 79                    2837 	ld	a, c
      000BE6 C6 F0                 2838 	add	a, #0xf0
                                   2839 ;geometry_boy.c:289: if (white_tile_ind <= 0){
      000BE8 4F                    2840 	ld	c, a
      000BE9 B7                    2841 	or	a, a
      000BEA 20 02                 2842 	jr	NZ, 00106$
                                   2843 ;geometry_boy.c:290: white_tile_ind = 240;
      000BEC 0E F0                 2844 	ld	c, #0xf0
      000BEE                       2845 00106$:
                                   2846 ;geometry_boy.c:292: green_tile_ind -= 16;
      000BEE F8 00                 2847 	ldhl	sp,	#0
      000BF0 7E                    2848 	ld	a, (hl)
      000BF1 C6 F0                 2849 	add	a, #0xf0
      000BF3 77                    2850 	ld	(hl), a
                                   2851 ;geometry_boy.c:293: if (green_tile_ind <= 0){
      000BF4 7E                    2852 	ld	a, (hl)
      000BF5 B7                    2853 	or	a, a
      000BF6 20 02                 2854 	jr	NZ, 00108$
                                   2855 ;geometry_boy.c:294: green_tile_ind = 240; // 16*15
      000BF8 36 F0                 2856 	ld	(hl), #0xf0
      000BFA                       2857 00108$:
                                   2858 ;geometry_boy.c:296: set_bkg_data(6, 1, parallax_tileset + white_tile_ind); // load tiles into VRAM
      000BFA 21rABr01              2859 	ld	hl, #_parallax_tileset
      000BFD 06 00                 2860 	ld	b, #0x00
      000BFF 09                    2861 	add	hl, bc
      000C00 E5                    2862 	push	hl
      000C01 21 06 01              2863 	ld	hl, #0x106
      000C04 E5                    2864 	push	hl
      000C05 CDr00r00              2865 	call	_set_bkg_data
      000C08 E8 04                 2866 	add	sp, #4
                                   2867 ;geometry_boy.c:297: set_bkg_data(7, 1, parallax_tileset + green_tile_ind); // load tiles into VRAM
      000C0A 11rABr01              2868 	ld	de, #_parallax_tileset
      000C0D F8 00                 2869 	ldhl	sp,	#0
      000C0F 6E                    2870 	ld	l, (hl)
      000C10 26 00                 2871 	ld	h, #0x00
      000C12 19                    2872 	add	hl, de
      000C13 E5                    2873 	push	hl
      000C14 21 07 01              2874 	ld	hl, #0x107
      000C17 E5                    2875 	push	hl
      000C18 CDr00r00              2876 	call	_set_bkg_data
      000C1B E8 04                 2877 	add	sp, #4
                                   2878 ;geometry_boy.c:299: tick++;
      000C1D 21r09r00              2879 	ld	hl, #_tick
      000C20 34                    2880 	inc	(hl)
                                   2881 ;geometry_boy.c:300: delay(LOOP_DELAY);
      000C21 C5                    2882 	push	bc
      000C22 11 14 00              2883 	ld	de, #0x0014
      000C25 D5                    2884 	push	de
      000C26 CDr00r00              2885 	call	_delay
      000C29 E1                    2886 	pop	hl
      000C2A C1                    2887 	pop	bc
      000C2B C3r31r0B              2888 	jp	00110$
      000C2E                       2889 00114$:
                                   2890 ;geometry_boy.c:302: }
      000C2E 33                    2891 	inc	sp
      000C2F C9                    2892 	ret
                                   2893 ;geometry_boy.c:304: screen_t title(){
                                   2894 ;	---------------------------------
                                   2895 ; Function title
                                   2896 ; ---------------------------------
      000C30                       2897 _title::
      000C30 E8 F6                 2898 	add	sp, #-10
                                   2899 ;geometry_boy.c:305: wait_vbl_done();
      000C32 CDr00r00              2900 	call	_wait_vbl_done
                                   2901 ;geometry_boy.c:308: for (uint8_t i = 0; i < TITLE_WIDTH*TITLE_HEIGHT; i++){
      000C35 F8 09                 2902 	ldhl	sp,	#9
      000C37 36 00                 2903 	ld	(hl), #0x00
      000C39                       2904 00128$:
      000C39 F8 09                 2905 	ldhl	sp,	#9
      000C3B 7E                    2906 	ld	a, (hl)
      000C3C D6 10                 2907 	sub	a, #0x10
      000C3E 30 70                 2908 	jr	NC, 00104$
                                   2909 ;geometry_boy.c:309: if (game_title[i] == ' '){
      000C40 11r0Er00              2910 	ld	de, #_game_title
      000C43 6E                    2911 	ld	l, (hl)
      000C44 26 00                 2912 	ld	h, #0x00
      000C46 19                    2913 	add	hl, de
      000C47 4D                    2914 	ld	c, l
      000C48 44                    2915 	ld	b, h
      000C49 0A                    2916 	ld	a, (bc)
      000C4A F8 08                 2917 	ldhl	sp,	#8
      000C4C 77                    2918 	ld	(hl), a
      000C4D 7E                    2919 	ld	a, (hl)
      000C4E D6 20                 2920 	sub	a, #0x20
      000C50 28 59                 2921 	jr	Z, 00103$
                                   2922 ;geometry_boy.c:312: set_sprite_data(1 + i, 1, out_test + 16*(13 + game_title[i] - 65)); // load tiles into VRAM
      000C52 F8 08                 2923 	ldhl	sp,	#8
      000C54 7E                    2924 	ld	a, (hl)
      000C55 4F                    2925 	ld	c, a
      000C56 07                    2926 	rlca
      000C57 9F                    2927 	sbc	a, a
      000C58 47                    2928 	ld	b, a
      000C59 21 CC FF              2929 	ld	hl, #0xffcc
      000C5C 09                    2930 	add	hl, bc
      000C5D E5                    2931 	push	hl
      000C5E 7D                    2932 	ld	a, l
      000C5F F8 09                 2933 	ldhl	sp,	#9
      000C61 77                    2934 	ld	(hl), a
      000C62 E1                    2935 	pop	hl
      000C63 7C                    2936 	ld	a, h
      000C64 F8 08                 2937 	ldhl	sp,	#8
      000C66 32                    2938 	ld	(hl-), a
      000C67 3A                    2939 	ld	a, (hl-)
      000C68 2B                    2940 	dec	hl
      000C69 77                    2941 	ld	(hl), a
      000C6A F8 08                 2942 	ldhl	sp,	#8
      000C6C 3A                    2943 	ld	a, (hl-)
      000C6D 2B                    2944 	dec	hl
      000C6E 77                    2945 	ld	(hl), a
      000C6F 3E 04                 2946 	ld	a, #0x04
      000C71                       2947 00214$:
      000C71 F8 05                 2948 	ldhl	sp,	#5
      000C73 CB 26                 2949 	sla	(hl)
      000C75 23                    2950 	inc	hl
      000C76 CB 16                 2951 	rl	(hl)
      000C78 3D                    2952 	dec	a
      000C79 20 F6                 2953 	jr	NZ, 00214$
      000C7B 11rABr02              2954 	ld	de, #_out_test
      000C7E 3A                    2955 	ld	a, (hl-)
      000C7F 6E                    2956 	ld	l, (hl)
      000C80 67                    2957 	ld	h, a
      000C81 19                    2958 	add	hl, de
      000C82 E5                    2959 	push	hl
      000C83 7D                    2960 	ld	a, l
      000C84 F8 09                 2961 	ldhl	sp,	#9
      000C86 77                    2962 	ld	(hl), a
      000C87 E1                    2963 	pop	hl
      000C88 7C                    2964 	ld	a, h
      000C89 F8 08                 2965 	ldhl	sp,	#8
      000C8B 32                    2966 	ld	(hl-), a
      000C8C 2A                    2967 	ld	a, (hl+)
      000C8D 5F                    2968 	ld	e, a
      000C8E 2A                    2969 	ld	a, (hl+)
      000C8F 57                    2970 	ld	d, a
      000C90 46                    2971 	ld	b, (hl)
      000C91 04                    2972 	inc	b
      000C92 D5                    2973 	push	de
      000C93 3E 01                 2974 	ld	a, #0x01
      000C95 F5                    2975 	push	af
      000C96 33                    2976 	inc	sp
      000C97 C5                    2977 	push	bc
      000C98 33                    2978 	inc	sp
      000C99 CDr00r00              2979 	call	_set_sprite_data
      000C9C E8 04                 2980 	add	sp, #4
                                   2981 ;geometry_boy.c:314: set_sprite_tile(i+1,i+1);
      000C9E 48                    2982 	ld	c, b
                                   2983 ;../gbdk/include/gb/gb.h:1326: shadow_OAM[nb].tile=tile;
      000C9F 68                    2984 	ld	l, b
                                   2985 ;	spillPairReg hl
                                   2986 ;	spillPairReg hl
      000CA0 26 00                 2987 	ld	h, #0x00
                                   2988 ;	spillPairReg hl
                                   2989 ;	spillPairReg hl
      000CA2 29                    2990 	add	hl, hl
      000CA3 29                    2991 	add	hl, hl
      000CA4 11r00r00              2992 	ld	de, #_shadow_OAM
      000CA7 19                    2993 	add	hl, de
      000CA8 23                    2994 	inc	hl
      000CA9 23                    2995 	inc	hl
      000CAA 71                    2996 	ld	(hl), c
                                   2997 ;geometry_boy.c:314: set_sprite_tile(i+1,i+1);
      000CAB                       2998 00103$:
                                   2999 ;geometry_boy.c:308: for (uint8_t i = 0; i < TITLE_WIDTH*TITLE_HEIGHT; i++){
      000CAB F8 09                 3000 	ldhl	sp,	#9
      000CAD 34                    3001 	inc	(hl)
      000CAE 18 89                 3002 	jr	00128$
      000CB0                       3003 00104$:
                                   3004 ;geometry_boy.c:317: SHOW_SPRITES;
      000CB0 F0r00                 3005 	ldh	a, (_LCDC_REG + 0)
      000CB2 F6 02                 3006 	or	a, #0x02
      000CB4 E0r00                 3007 	ldh	(_LCDC_REG + 0), a
                                   3008 ;geometry_boy.c:319: init_tiles();
      000CB6 CDrBDr0A              3009 	call	_init_tiles
                                   3010 ;geometry_boy.c:321: SHOW_BKG;
      000CB9 F0r00                 3011 	ldh	a, (_LCDC_REG + 0)
      000CBB F6 01                 3012 	or	a, #0x01
      000CBD E0r00                 3013 	ldh	(_LCDC_REG + 0), a
                                   3014 ;geometry_boy.c:322: DISPLAY_ON;
      000CBF F0r00                 3015 	ldh	a, (_LCDC_REG + 0)
      000CC1 F6 80                 3016 	or	a, #0x80
      000CC3 E0r00                 3017 	ldh	(_LCDC_REG + 0), a
                                   3018 ;geometry_boy.c:324: SWITCH_ROM_MBC1(title_mapBank);
      000CC5 3E 02                 3019 	ld	a, #0x02
      000CC7 E0r00                 3020 	ldh	(__current_bank + 0), a
      000CC9 21 00 20              3021 	ld	hl, #0x2000
      000CCC 36 02                 3022 	ld	(hl), #0x02
                                   3023 ;geometry_boy.c:326: init_background(title_map, title_mapWidth);
      000CCE 11 3C 00              3024 	ld	de, #0x003c
      000CD1 D5                    3025 	push	de
      000CD2 11r00r00              3026 	ld	de, #_title_map
      000CD5 D5                    3027 	push	de
      000CD6 CDr2Br07              3028 	call	_init_background
      000CD9 E8 04                 3029 	add	sp, #4
                                   3030 ;geometry_boy.c:328: SWITCH_ROM_MBC1(saved_bank);
      000CDB 21r04r00              3031 	ld	hl, #_saved_bank
      000CDE 7E                    3032 	ld	a, (hl)
      000CDF E0r00                 3033 	ldh	(__current_bank + 0), a
      000CE1 11 00 20              3034 	ld	de, #0x2000
      000CE4 7E                    3035 	ld	a, (hl)
      000CE5 12                    3036 	ld	(de), a
                                   3037 ;geometry_boy.c:330: uint8_t white_tile_ind = 0;
      000CE6 F8 00                 3038 	ldhl	sp,	#0
                                   3039 ;geometry_boy.c:331: uint8_t green_tile_ind = 128; //8*16;
      000CE8 AF                    3040 	xor	a, a
      000CE9 22                    3041 	ld	(hl+), a
                                   3042 ;geometry_boy.c:332: uint8_t moving_letter_ind = 0;
      000CEA 3E 80                 3043 	ld	a, #0x80
      000CEC 22                    3044 	ld	(hl+), a
                                   3045 ;geometry_boy.c:333: uint8_t up = 1;
      000CED AF                    3046 	xor	a, a
      000CEE 22                    3047 	ld	(hl+), a
                                   3048 ;geometry_boy.c:334: uint8_t offset = 0;
      000CEF 3E 01                 3049 	ld	a, #0x01
      000CF1 22                    3050 	ld	(hl+), a
      000CF2 36 00                 3051 	ld	(hl), #0x00
                                   3052 ;geometry_boy.c:335: while (1){
      000CF4                       3053 00122$:
                                   3054 ;geometry_boy.c:336: wait_vbl_done();
      000CF4 CDr00r00              3055 	call	_wait_vbl_done
                                   3056 ;geometry_boy.c:337: SWITCH_ROM_MBC1(title_mapBank);
      000CF7 3E 02                 3057 	ld	a, #0x02
      000CF9 E0r00                 3058 	ldh	(__current_bank + 0), a
      000CFB 21 00 20              3059 	ld	hl, #0x2000
      000CFE 36 02                 3060 	ld	(hl), #0x02
                                   3061 ;geometry_boy.c:338: scroll_bkg_x(player_dx, title_map, title_mapWidth);
      000D00 11 3C 00              3062 	ld	de, #0x003c
      000D03 D5                    3063 	push	de
      000D04 11r00r00              3064 	ld	de, #_title_map
      000D07 D5                    3065 	push	de
      000D08 FAr01r00              3066 	ld	a, (#_player_dx)
      000D0B F5                    3067 	push	af
      000D0C 33                    3068 	inc	sp
      000D0D CDr00r00              3069 	call	_scroll_bkg_x
      000D10 E8 05                 3070 	add	sp, #5
                                   3071 ;geometry_boy.c:339: SWITCH_ROM_MBC1(saved_bank);
      000D12 21r04r00              3072 	ld	hl, #_saved_bank
      000D15 7E                    3073 	ld	a, (hl)
      000D16 E0r00                 3074 	ldh	(__current_bank + 0), a
      000D18 11 00 20              3075 	ld	de, #0x2000
      000D1B 7E                    3076 	ld	a, (hl)
      000D1C 12                    3077 	ld	(de), a
                                   3078 ;geometry_boy.c:340: saved_bank = _current_bank;
      000D1D F0r00                 3079 	ldh	a, (__current_bank + 0)
      000D1F 77                    3080 	ld	(hl), a
                                   3081 ;geometry_boy.c:341: if (tick % 1 == 0){
      000D20 AF                    3082 	xor	a, a
      000D21 F8 08                 3083 	ldhl	sp,	#8
      000D23 22                    3084 	ld	(hl+), a
      000D24 77                    3085 	ld	(hl), a
      000D25 3A                    3086 	ld	a, (hl-)
      000D26 B6                    3087 	or	a, (hl)
      000D27 C2r29r0E              3088 	jp	NZ, 00117$
                                   3089 ;geometry_boy.c:342: white_tile_ind -= 16; 
      000D2A F8 00                 3090 	ldhl	sp,	#0
      000D2C 7E                    3091 	ld	a, (hl)
      000D2D C6 F0                 3092 	add	a, #0xf0
      000D2F 77                    3093 	ld	(hl), a
                                   3094 ;geometry_boy.c:343: if (white_tile_ind <= 0){
      000D30 7E                    3095 	ld	a, (hl)
      000D31 B7                    3096 	or	a, a
      000D32 20 02                 3097 	jr	NZ, 00106$
                                   3098 ;geometry_boy.c:344: white_tile_ind = 240;
      000D34 36 F0                 3099 	ld	(hl), #0xf0
      000D36                       3100 00106$:
                                   3101 ;geometry_boy.c:346: green_tile_ind -= 16;
      000D36 F8 01                 3102 	ldhl	sp,	#1
      000D38 7E                    3103 	ld	a, (hl)
      000D39 C6 F0                 3104 	add	a, #0xf0
      000D3B 77                    3105 	ld	(hl), a
                                   3106 ;geometry_boy.c:347: if (green_tile_ind <= 0){
      000D3C 7E                    3107 	ld	a, (hl)
      000D3D B7                    3108 	or	a, a
      000D3E 20 02                 3109 	jr	NZ, 00108$
                                   3110 ;geometry_boy.c:348: green_tile_ind = 240; // 16*15
      000D40 36 F0                 3111 	ld	(hl), #0xf0
      000D42                       3112 00108$:
                                   3113 ;geometry_boy.c:350: set_bkg_data(6, 1, parallax_tileset + white_tile_ind); // load tiles into VRAM
      000D42 11rABr01              3114 	ld	de, #_parallax_tileset
      000D45 F8 00                 3115 	ldhl	sp,	#0
      000D47 6E                    3116 	ld	l, (hl)
      000D48 26 00                 3117 	ld	h, #0x00
      000D4A 19                    3118 	add	hl, de
      000D4B E5                    3119 	push	hl
      000D4C 21 06 01              3120 	ld	hl, #0x106
      000D4F E5                    3121 	push	hl
      000D50 CDr00r00              3122 	call	_set_bkg_data
      000D53 E8 04                 3123 	add	sp, #4
                                   3124 ;geometry_boy.c:351: set_bkg_data(7, 1, parallax_tileset + green_tile_ind); // load tiles into VRAM
      000D55 11rABr01              3125 	ld	de, #_parallax_tileset
      000D58 F8 01                 3126 	ldhl	sp,	#1
      000D5A 6E                    3127 	ld	l, (hl)
      000D5B 26 00                 3128 	ld	h, #0x00
      000D5D 19                    3129 	add	hl, de
      000D5E E5                    3130 	push	hl
      000D5F 21 07 01              3131 	ld	hl, #0x107
      000D62 E5                    3132 	push	hl
      000D63 CDr00r00              3133 	call	_set_bkg_data
      000D66 E8 04                 3134 	add	sp, #4
                                   3135 ;geometry_boy.c:354: offset += 1;
      000D68 F8 04                 3136 	ldhl	sp,	#4
                                   3137 ;geometry_boy.c:353: if (up){
      000D6A 3A                    3138 	ld	a, (hl-)
      000D6B 4F                    3139 	ld	c, a
      000D6C 7E                    3140 	ld	a, (hl)
      000D6D B7                    3141 	or	a, a
      000D6E 28 0F                 3142 	jr	Z, 00114$
                                   3143 ;geometry_boy.c:354: offset += 1;
      000D70 23                    3144 	inc	hl
      000D71 79                    3145 	ld	a, c
      000D72 3C                    3146 	inc	a
      000D73 77                    3147 	ld	(hl), a
                                   3148 ;geometry_boy.c:355: if (offset == 2){
      000D74 7E                    3149 	ld	a, (hl)
      000D75 D6 02                 3150 	sub	a, #0x02
      000D77 20 24                 3151 	jr	NZ, 00115$
                                   3152 ;geometry_boy.c:356: up = 0;
      000D79 F8 03                 3153 	ldhl	sp,	#3
      000D7B 36 00                 3154 	ld	(hl), #0x00
      000D7D 18 1E                 3155 	jr	00115$
      000D7F                       3156 00114$:
                                   3157 ;geometry_boy.c:359: offset -=1;
      000D7F 79                    3158 	ld	a, c
      000D80 3D                    3159 	dec	a
      000D81 F8 04                 3160 	ldhl	sp,	#4
      000D83 77                    3161 	ld	(hl), a
                                   3162 ;geometry_boy.c:360: if (offset == 0){
      000D84 7E                    3163 	ld	a, (hl)
      000D85 B7                    3164 	or	a, a
      000D86 20 15                 3165 	jr	NZ, 00115$
                                   3166 ;geometry_boy.c:361: up = 1;
      000D88 2B                    3167 	dec	hl
                                   3168 ;geometry_boy.c:362: moving_letter_ind = (moving_letter_ind + 1) % (TITLE_WIDTH*TITLE_HEIGHT);
      000D89 3E 01                 3169 	ld	a, #0x01
      000D8B 32                    3170 	ld	(hl-), a
      000D8C 4E                    3171 	ld	c, (hl)
      000D8D 06 00                 3172 	ld	b, #0x00
      000D8F 03                    3173 	inc	bc
      000D90 11 10 00              3174 	ld	de, #0x0010
      000D93 D5                    3175 	push	de
      000D94 C5                    3176 	push	bc
      000D95 CDr00r00              3177 	call	__modsint
      000D98 E8 04                 3178 	add	sp, #4
      000D9A F8 02                 3179 	ldhl	sp,	#2
      000D9C 73                    3180 	ld	(hl), e
      000D9D                       3181 00115$:
                                   3182 ;geometry_boy.c:369: TITLE_START_Y + (8 + SPACE_PX)*(moving_letter_ind/TITLE_WIDTH) - offset
      000D9D F8 02                 3183 	ldhl	sp,	#2
      000D9F 4E                    3184 	ld	c, (hl)
      000DA0 06 00                 3185 	ld	b, #0x00
      000DA2 F8 08                 3186 	ldhl	sp,	#8
      000DA4 79                    3187 	ld	a, c
      000DA5 22                    3188 	ld	(hl+), a
      000DA6 70                    3189 	ld	(hl), b
      000DA7 78                    3190 	ld	a, b
      000DA8 07                    3191 	rlca
      000DA9 E6 01                 3192 	and	a,#0x01
      000DAB F8 05                 3193 	ldhl	sp,	#5
      000DAD 77                    3194 	ld	(hl), a
      000DAE 21 07 00              3195 	ld	hl, #0x0007
      000DB1 09                    3196 	add	hl, bc
      000DB2 E5                    3197 	push	hl
      000DB3 7D                    3198 	ld	a, l
      000DB4 F8 08                 3199 	ldhl	sp,	#8
      000DB6 77                    3200 	ld	(hl), a
      000DB7 E1                    3201 	pop	hl
      000DB8 7C                    3202 	ld	a, h
      000DB9 F8 07                 3203 	ldhl	sp,	#7
      000DBB 32                    3204 	ld	(hl-), a
      000DBC 2B                    3205 	dec	hl
      000DBD 7E                    3206 	ld	a, (hl)
      000DBE B7                    3207 	or	a, a
      000DBF 28 07                 3208 	jr	Z, 00134$
      000DC1 23                    3209 	inc	hl
      000DC2 2A                    3210 	ld	a, (hl+)
      000DC3 23                    3211 	inc	hl
      000DC4 32                    3212 	ld	(hl-), a
      000DC5 2A                    3213 	ld	a, (hl+)
      000DC6 23                    3214 	inc	hl
      000DC7 77                    3215 	ld	(hl), a
      000DC8                       3216 00134$:
      000DC8 F8 08                 3217 	ldhl	sp,#8
      000DCA 2A                    3218 	ld	a, (hl+)
      000DCB 5F                    3219 	ld	e, a
      000DCC 56                    3220 	ld	d, (hl)
      000DCD CB 2A                 3221 	sra	d
      000DCF CB 1B                 3222 	rr	e
      000DD1 CB 2A                 3223 	sra	d
      000DD3 CB 1B                 3224 	rr	e
      000DD5 CB 2A                 3225 	sra	d
      000DD7 CB 1B                 3226 	rr	e
      000DD9 7B                    3227 	ld	a,e
      000DDA 87                    3228 	add	a, a
      000DDB 87                    3229 	add	a, a
      000DDC 87                    3230 	add	a, a
      000DDD 83                    3231 	add	a, e
      000DDE C6 20                 3232 	add	a, #0x20
      000DE0 F8 04                 3233 	ldhl	sp,	#4
      000DE2 5E                    3234 	ld	e, (hl)
      000DE3 93                    3235 	sub	a, e
      000DE4 F8 08                 3236 	ldhl	sp,	#8
      000DE6 77                    3237 	ld	(hl), a
                                   3238 ;geometry_boy.c:368: TITLE_START_X + (8 + SPACE_PX)*(moving_letter_ind%TITLE_WIDTH) + 4*(moving_letter_ind/TITLE_WIDTH),
      000DE7 79                    3239 	ld	a, c
      000DE8 E6 07                 3240 	and	a, #0x07
      000DEA 5F                    3241 	ld	e, a
      000DEB 87                    3242 	add	a, a
      000DEC 87                    3243 	add	a, a
      000DED 87                    3244 	add	a, a
      000DEE 83                    3245 	add	a, e
      000DEF C6 36                 3246 	add	a, #0x36
      000DF1 F8 09                 3247 	ldhl	sp,	#9
      000DF3 77                    3248 	ld	(hl), a
      000DF4 59                    3249 	ld	e, c
      000DF5 50                    3250 	ld	d, b
      000DF6 F8 05                 3251 	ldhl	sp,	#5
      000DF8 7E                    3252 	ld	a, (hl)
      000DF9 B7                    3253 	or	a, a
      000DFA 28 04                 3254 	jr	Z, 00135$
      000DFC 23                    3255 	inc	hl
      000DFD 2A                    3256 	ld	a, (hl+)
      000DFE 5F                    3257 	ld	e, a
      000DFF 56                    3258 	ld	d, (hl)
      000E00                       3259 00135$:
      000E00 CB 2A                 3260 	sra	d
      000E02 CB 1B                 3261 	rr	e
      000E04 CB 2A                 3262 	sra	d
      000E06 CB 1B                 3263 	rr	e
      000E08 CB 2A                 3264 	sra	d
      000E0A CB 1B                 3265 	rr	e
      000E0C 7B                    3266 	ld	a, e
      000E0D 87                    3267 	add	a, a
      000E0E 87                    3268 	add	a, a
      000E0F F8 09                 3269 	ldhl	sp,	#9
      000E11 86                    3270 	add	a, (hl)
      000E12 4F                    3271 	ld	c, a
                                   3272 ;geometry_boy.c:367: moving_letter_ind+1, 
      000E13 F8 02                 3273 	ldhl	sp,	#2
      000E15 46                    3274 	ld	b, (hl)
      000E16 04                    3275 	inc	b
                                   3276 ;../gbdk/include/gb/gb.h:1399: OAM_item_t * itm = &shadow_OAM[nb];
      000E17 11r00r00              3277 	ld	de, #_shadow_OAM+0
      000E1A 68                    3278 	ld	l, b
                                   3279 ;	spillPairReg hl
                                   3280 ;	spillPairReg hl
      000E1B 26 00                 3281 	ld	h, #0x00
                                   3282 ;	spillPairReg hl
                                   3283 ;	spillPairReg hl
      000E1D 29                    3284 	add	hl, hl
      000E1E 29                    3285 	add	hl, hl
      000E1F 19                    3286 	add	hl, de
      000E20 5D                    3287 	ld	e, l
      000E21 54                    3288 	ld	d, h
                                   3289 ;../gbdk/include/gb/gb.h:1400: itm->y=y, itm->x=x;
      000E22 F8 08                 3290 	ldhl	sp,	#8
      000E24 7E                    3291 	ld	a, (hl)
      000E25 12                    3292 	ld	(de), a
      000E26 13                    3293 	inc	de
      000E27 79                    3294 	ld	a, c
      000E28 12                    3295 	ld	(de), a
                                   3296 ;geometry_boy.c:370: );
      000E29                       3297 00117$:
                                   3298 ;geometry_boy.c:374: prev_jpad = jpad;
      000E29 FAr08r00              3299 	ld	a, (#_jpad)
      000E2C EAr07r00              3300 	ld	(#_prev_jpad),a
                                   3301 ;geometry_boy.c:375: jpad = joypad();
      000E2F CDr00r00              3302 	call	_joypad
      000E32 21r08r00              3303 	ld	hl, #_jpad
      000E35 73                    3304 	ld	(hl), e
                                   3305 ;geometry_boy.c:377: if (debounce_input(J_START, jpad, prev_jpad)){
      000E36 FAr07r00              3306 	ld	a, (#_prev_jpad)
      000E39 F5                    3307 	push	af
      000E3A 33                    3308 	inc	sp
      000E3B FAr08r00              3309 	ld	a, (#_jpad)
      000E3E 67                    3310 	ld	h, a
      000E3F 2E 80                 3311 	ld	l, #0x80
      000E41 E5                    3312 	push	hl
      000E42 CDrFFr07              3313 	call	_debounce_input
      000E45 E8 03                 3314 	add	sp, #3
      000E47 7B                    3315 	ld	a, e
      000E48 B7                    3316 	or	a, a
      000E49 28 19                 3317 	jr	Z, 00120$
                                   3318 ;geometry_boy.c:378: for (uint8_t i = 1; i < TITLE_WIDTH*TITLE_HEIGHT+1; i++){
      000E4B 0E 01                 3319 	ld	c, #0x01
      000E4D                       3320 00130$:
      000E4D 79                    3321 	ld	a, c
      000E4E D6 11                 3322 	sub	a, #0x11
      000E50 30 0E                 3323 	jr	NC, 00118$
                                   3324 ;../gbdk/include/gb/gb.h:1425: shadow_OAM[nb].y = 0;
      000E52 11r00r00              3325 	ld	de, #_shadow_OAM+0
      000E55 69                    3326 	ld	l, c
                                   3327 ;	spillPairReg hl
                                   3328 ;	spillPairReg hl
      000E56 26 00                 3329 	ld	h, #0x00
                                   3330 ;	spillPairReg hl
                                   3331 ;	spillPairReg hl
      000E58 29                    3332 	add	hl, hl
      000E59 29                    3333 	add	hl, hl
      000E5A 19                    3334 	add	hl, de
      000E5B 36 00                 3335 	ld	(hl), #0x00
                                   3336 ;geometry_boy.c:378: for (uint8_t i = 1; i < TITLE_WIDTH*TITLE_HEIGHT+1; i++){
      000E5D 0C                    3337 	inc	c
      000E5E 18 ED                 3338 	jr	00130$
      000E60                       3339 00118$:
                                   3340 ;geometry_boy.c:381: return GAME;
      000E60 1E 01                 3341 	ld	e, #0x01
      000E62 18 0F                 3342 	jr	00132$
      000E64                       3343 00120$:
                                   3344 ;geometry_boy.c:383: tick++;
      000E64 21r09r00              3345 	ld	hl, #_tick
      000E67 34                    3346 	inc	(hl)
                                   3347 ;geometry_boy.c:384: delay(LOOP_DELAY);
      000E68 11 14 00              3348 	ld	de, #0x0014
      000E6B D5                    3349 	push	de
      000E6C CDr00r00              3350 	call	_delay
      000E6F E1                    3351 	pop	hl
      000E70 C3rF4r0C              3352 	jp	00122$
      000E73                       3353 00132$:
                                   3354 ;geometry_boy.c:386: }
      000E73 E8 0A                 3355 	add	sp, #10
      000E75 C9                    3356 	ret
                                   3357 ;geometry_boy.c:389: void main(){
                                   3358 ;	---------------------------------
                                   3359 ; Function main
                                   3360 ; ---------------------------------
      000E76                       3361 _main::
                                   3362 ;../gbdk/include/gb/gb.h:644: __asm__("ei");
      000E76 FB                    3363 	ei
                                   3364 ;geometry_boy.c:392: BGP_REG = OBP0_REG = OBP1_REG = 0xE4;
      000E77 3E E4                 3365 	ld	a, #0xe4
      000E79 E0r00                 3366 	ldh	(_OBP1_REG + 0), a
      000E7B 3E E4                 3367 	ld	a, #0xe4
      000E7D E0r00                 3368 	ldh	(_OBP0_REG + 0), a
      000E7F 3E E4                 3369 	ld	a, #0xe4
      000E81 E0r00                 3370 	ldh	(_BGP_REG + 0), a
                                   3371 ;geometry_boy.c:393: SPRITES_8x8;
      000E83 F0r00                 3372 	ldh	a, (_LCDC_REG + 0)
      000E85 E6 FB                 3373 	and	a, #0xfb
      000E87 E0r00                 3374 	ldh	(_LCDC_REG + 0), a
                                   3375 ;geometry_boy.c:394: saved_bank = _current_bank;
      000E89 F0r00                 3376 	ldh	a, (__current_bank + 0)
      000E8B EAr04r00              3377 	ld	(#_saved_bank),a
                                   3378 ;geometry_boy.c:395: screen_t current_screen = TITLE;
      000E8E 1E 00                 3379 	ld	e, #0x00
                                   3380 ;geometry_boy.c:397: while (1){
      000E90                       3381 00107$:
                                   3382 ;geometry_boy.c:398: if (current_screen == TITLE){
      000E90 7B                    3383 	ld	a, e
      000E91 B7                    3384 	or	a, a
      000E92 20 05                 3385 	jr	NZ, 00104$
                                   3386 ;geometry_boy.c:399: current_screen = title();
      000E94 CDr30r0C              3387 	call	_title
      000E97 18 F7                 3388 	jr	00107$
      000E99                       3389 00104$:
                                   3390 ;geometry_boy.c:400: } else if (current_screen == GAME){
      000E99 7B                    3391 	ld	a, e
      000E9A 3D                    3392 	dec	a
      000E9B 20 F3                 3393 	jr	NZ, 00107$
                                   3394 ;geometry_boy.c:401: current_screen = game();
      000E9D CDrD8r0A              3395 	call	_game
                                   3396 ;geometry_boy.c:404: }
      000EA0 18 EE                 3397 	jr	00107$
                                   3398 	.area _CODE
                                   3399 	.area _INITIALIZER
      000000                       3400 __xinit__player_dy:
      000000 00                    3401 	.db #0x00	;  0
      000001                       3402 __xinit__player_dx:
      000001 03                    3403 	.db #0x03	;  3
      000002                       3404 __xinit__player_y:
      000002 90                    3405 	.db #0x90	; 144
      000003                       3406 __xinit__player_x:
      000003 20                    3407 	.db #0x20	; 32
      000004                       3408 __xinit__on_ground:
      000004 01                    3409 	.db #0x01	; 1
      000005                       3410 __xinit__win:
      000005 00                    3411 	.db #0x00	; 0
      000006                       3412 __xinit__lose:
      000006 00                    3413 	.db #0x00	; 0
      000007                       3414 __xinit__prev_jpad:
      000007 00                    3415 	.db #0x00	; 0
      000008                       3416 __xinit__jpad:
      000008 00                    3417 	.db #0x00	; 0
      000009                       3418 __xinit__tick:
      000009 00                    3419 	.db #0x00	; 0
      00000A                       3420 __xinit__background_x_shift:
      00000A 00 00                 3421 	.dw #0x0000
      00000C                       3422 __xinit__old_background_x_shift:
      00000C 08 00                 3423 	.dw #0x0008
      00000E                       3424 __xinit__game_title:
      00000E 47                    3425 	.db #0x47	;  71	'G'
      00000F 45                    3426 	.db #0x45	;  69	'E'
      000010 4F                    3427 	.db #0x4f	;  79	'O'
      000011 4D                    3428 	.db #0x4d	;  77	'M'
      000012 45                    3429 	.db #0x45	;  69	'E'
      000013 54                    3430 	.db #0x54	;  84	'T'
      000014 52                    3431 	.db #0x52	;  82	'R'
      000015 59                    3432 	.db #0x59	;  89	'Y'
      000016 20                    3433 	.db #0x20	;  32
      000017 20                    3434 	.db #0x20	;  32
      000018 42                    3435 	.db #0x42	;  66	'B'
      000019 4F                    3436 	.db #0x4f	;  79	'O'
      00001A 59                    3437 	.db #0x59	;  89	'Y'
      00001B 20                    3438 	.db #0x20	;  32
      00001C 20                    3439 	.db #0x20	;  32
      00001D 20                    3440 	.db #0x20	;  32
                                   3441 	.area _CABS (ABS)
